[-] Export listing for file : D:\Program Files\Tencent\QQNT\resources\app\QQNT.dll

	 Name : ??$TryToCopyAndConvertArrayToCppBuffer@$0DAAAA@H@v8@@YA_NV?$Local@VArray@v8@@@0@PEAHI@Z
	 

	 Name : ??$TryToCopyAndConvertArrayToCppBuffer@$0EAAAA@I@v8@@YA_NV?$Local@VArray@v8@@@0@PEAII@Z
	 

	 Name : ??$TryToCopyAndConvertArrayToCppBuffer@$0HAAAA@M@v8@@YA_NV?$Local@VArray@v8@@@0@PEAMI@Z
	 

	 Name : ??$TryToCopyAndConvertArrayToCppBuffer@$0IAAAA@N@v8@@YA_NV?$Local@VArray@v8@@@0@PEANI@Z
	 

	 Name : ??$ValidateCallbackInfo@VArray@v8@@@internal@v8@@YA_NAEBV?$PropertyCallbackInfo@VArray@v8@@@1@@Z
	 

	 Name : ??$ValidateCallbackInfo@VBoolean@v8@@@internal@v8@@YA_NAEBV?$PropertyCallbackInfo@VBoolean@v8@@@1@@Z
	 

	 Name : ??$ValidateCallbackInfo@VInteger@v8@@@internal@v8@@YA_NAEBV?$PropertyCallbackInfo@VInteger@v8@@@1@@Z
	 

	 Name : ??$ValidateCallbackInfo@VValue@v8@@@internal@v8@@YA_NAEBV?$FunctionCallbackInfo@VValue@v8@@@1@@Z
	 

	 Name : ??$ValidateCallbackInfo@VValue@v8@@@internal@v8@@YA_NAEBV?$PropertyCallbackInfo@VValue@v8@@@1@@Z
	 

	 Name : ??$ValidateCallbackInfo@X@internal@v8@@YA_NAEBV?$FunctionCallbackInfo@X@1@@Z
	 

	 Name : ??$ValidateCallbackInfo@X@internal@v8@@YA_NAEBV?$PropertyCallbackInfo@X@1@@Z
	 

	 Name : ??0?$MemorySpan@$$CBD@v8@@QEAA@XZ
	 

	 Name : ??0?$MemorySpan@$$CBE@v8@@QEAA@XZ
	 

	 Name : ??0?$MemorySpan@$$CBV?$Local@VContext@v8@@@v8@@@v8@@QEAA@XZ
	 

	 Name : ??0?$MemorySpan@$$CBV?$Local@VString@v8@@@v8@@@v8@@QEAA@XZ
	 

	 Name : ??0?$MemorySpan@$$CBV?$Local@VValue@v8@@@v8@@@v8@@QEAA@XZ
	 

	 Name : ??0?$MemorySpan@$$CBV?$basic_string_view@DU?$char_traits@D@__Cr@std@@@__Cr@std@@@v8@@QEAA@XZ
	 

	 Name : ??0?$MemorySpan@$$CBVCFunction@v8@@@v8@@QEAA@XZ
	 

	 Name : ??0?$MemorySpan@$$CB_K@v8@@QEAA@XZ
	 

	 Name : ??0?$MemorySpan@E@v8@@QEAA@XZ
	 

	 Name : ??0?$MemorySpan@V?$Handle@VMap@internal@v8@@@internal@v8@@@v8@@QEAA@XZ
	 

	 Name : ??0?$MemorySpan@V?$Handle@VObject@internal@v8@@@internal@v8@@@v8@@QEAA@XZ
	 

	 Name : ??0?$MemorySpan@V?$MaybeLocal@VValue@v8@@@v8@@@v8@@QEAA@XZ
	 

	 Name : ??0?$MemorySpan@_K@v8@@QEAA@XZ
	 

	 Name : ??0?$vector@UCpuProfileDeoptFrame@v8@@V?$allocator@UCpuProfileDeoptFrame@v8@@@__Cr@std@@@__Cr@std@@QEAA@$$QEAV012@@Z
	 

	 Name : ??0?$vector@UCpuProfileDeoptFrame@v8@@V?$allocator@UCpuProfileDeoptFrame@v8@@@__Cr@std@@@__Cr@std@@QEAA@$$QEAV012@AEBV?$allocator@UCpuProfileDeoptFrame@v8@@@12@@Z
	 

	 Name : ??0?$vector@UCpuProfileDeoptFrame@v8@@V?$allocator@UCpuProfileDeoptFrame@v8@@@__Cr@std@@@__Cr@std@@QEAA@AEBV012@@Z
	 

	 Name : ??0?$vector@UCpuProfileDeoptFrame@v8@@V?$allocator@UCpuProfileDeoptFrame@v8@@@__Cr@std@@@__Cr@std@@QEAA@AEBV012@AEBV?$allocator@UCpuProfileDeoptFrame@v8@@@12@@Z
	 

	 Name : ??0?$vector@UCpuProfileDeoptFrame@v8@@V?$allocator@UCpuProfileDeoptFrame@v8@@@__Cr@std@@@__Cr@std@@QEAA@AEBV?$allocator@UCpuProfileDeoptFrame@v8@@@12@@Z
	 

	 Name : ??0?$vector@UCpuProfileDeoptFrame@v8@@V?$allocator@UCpuProfileDeoptFrame@v8@@@__Cr@std@@@__Cr@std@@QEAA@V?$initializer_list@UCpuProfileDeoptFrame@v8@@@2@@Z
	 

	 Name : ??0?$vector@UCpuProfileDeoptFrame@v8@@V?$allocator@UCpuProfileDeoptFrame@v8@@@__Cr@std@@@__Cr@std@@QEAA@V?$initializer_list@UCpuProfileDeoptFrame@v8@@@2@AEBV?$allocator@UCpuProfileDeoptFrame@v8@@@12@@Z
	 

	 Name : ??0?$vector@UCpuProfileDeoptFrame@v8@@V?$allocator@UCpuProfileDeoptFrame@v8@@@__Cr@std@@@__Cr@std@@QEAA@XZ
	 

	 Name : ??0?$vector@UCpuProfileDeoptFrame@v8@@V?$allocator@UCpuProfileDeoptFrame@v8@@@__Cr@std@@@__Cr@std@@QEAA@_K@Z
	 

	 Name : ??0?$vector@UCpuProfileDeoptFrame@v8@@V?$allocator@UCpuProfileDeoptFrame@v8@@@__Cr@std@@@__Cr@std@@QEAA@_KAEBUCpuProfileDeoptFrame@v8@@@Z
	 

	 Name : ??0?$vector@UCpuProfileDeoptFrame@v8@@V?$allocator@UCpuProfileDeoptFrame@v8@@@__Cr@std@@@__Cr@std@@QEAA@_KAEBV?$allocator@UCpuProfileDeoptFrame@v8@@@12@@Z
	 

	 Name : ??0?$vector@UCpuProfileDeoptInfo@v8@@V?$allocator@UCpuProfileDeoptInfo@v8@@@__Cr@std@@@__Cr@std@@QEAA@$$QEAV012@@Z
	 

	 Name : ??0?$vector@UCpuProfileDeoptInfo@v8@@V?$allocator@UCpuProfileDeoptInfo@v8@@@__Cr@std@@@__Cr@std@@QEAA@$$QEAV012@AEBV?$allocator@UCpuProfileDeoptInfo@v8@@@12@@Z
	 

	 Name : ??0?$vector@UCpuProfileDeoptInfo@v8@@V?$allocator@UCpuProfileDeoptInfo@v8@@@__Cr@std@@@__Cr@std@@QEAA@AEBV012@@Z
	 

	 Name : ??0?$vector@UCpuProfileDeoptInfo@v8@@V?$allocator@UCpuProfileDeoptInfo@v8@@@__Cr@std@@@__Cr@std@@QEAA@AEBV012@AEBV?$allocator@UCpuProfileDeoptInfo@v8@@@12@@Z
	 

	 Name : ??0?$vector@UCpuProfileDeoptInfo@v8@@V?$allocator@UCpuProfileDeoptInfo@v8@@@__Cr@std@@@__Cr@std@@QEAA@AEBV?$allocator@UCpuProfileDeoptInfo@v8@@@12@@Z
	 

	 Name : ??0?$vector@UCpuProfileDeoptInfo@v8@@V?$allocator@UCpuProfileDeoptInfo@v8@@@__Cr@std@@@__Cr@std@@QEAA@V?$initializer_list@UCpuProfileDeoptInfo@v8@@@2@@Z
	 

	 Name : ??0?$vector@UCpuProfileDeoptInfo@v8@@V?$allocator@UCpuProfileDeoptInfo@v8@@@__Cr@std@@@__Cr@std@@QEAA@V?$initializer_list@UCpuProfileDeoptInfo@v8@@@2@AEBV?$allocator@UCpuProfileDeoptInfo@v8@@@12@@Z
	 

	 Name : ??0?$vector@UCpuProfileDeoptInfo@v8@@V?$allocator@UCpuProfileDeoptInfo@v8@@@__Cr@std@@@__Cr@std@@QEAA@XZ
	 

	 Name : ??0?$vector@UCpuProfileDeoptInfo@v8@@V?$allocator@UCpuProfileDeoptInfo@v8@@@__Cr@std@@@__Cr@std@@QEAA@_K@Z
	 

	 Name : ??0?$vector@UCpuProfileDeoptInfo@v8@@V?$allocator@UCpuProfileDeoptInfo@v8@@@__Cr@std@@@__Cr@std@@QEAA@_KAEBUCpuProfileDeoptInfo@v8@@@Z
	 

	 Name : ??0?$vector@UCpuProfileDeoptInfo@v8@@V?$allocator@UCpuProfileDeoptInfo@v8@@@__Cr@std@@@__Cr@std@@QEAA@_KAEBV?$allocator@UCpuProfileDeoptInfo@v8@@@12@@Z
	 

	 Name : ??0ActivityControl@v8@@QEAA@AEBV01@@Z
	 

	 Name : ??0ActivityControl@v8@@QEAA@XZ
	 

	 Name : ??0AllocationProfile@v8@@QEAA@AEBV01@@Z
	 

	 Name : ??0AllocationProfile@v8@@QEAA@XZ
	 

	 Name : ??0Allocator@ArrayBuffer@v8@@QEAA@AEBV012@@Z
	 

	 Name : ??0Allocator@ArrayBuffer@v8@@QEAA@XZ
	 

	 Name : ??0AllowJavascriptExecutionScope@Isolate@v8@@QEAA@PEAV12@@Z
	 

	 Name : ??0ArrayBufferAllocator@node@@QEAA@$$QEAV01@@Z
	 

	 Name : ??0ArrayBufferAllocator@node@@QEAA@AEBV01@@Z
	 

	 Name : ??0ArrayBufferAllocator@node@@QEAA@XZ
	 

	 Name : ??0AsyncResource@node@@QEAA@PEAVIsolate@v8@@V?$Local@VObject@v8@@@3@PEBDN@Z
	 

	 Name : ??0BackupIncumbentScope@Context@v8@@QEAA@V?$Local@VContext@v8@@@2@@Z
	 

	 Name : ??0Binary@protocol@v8_inspector@@AEAA@V?$shared_ptr@V?$vector@EV?$allocator@E@__Cr@std@@@__Cr@std@@@__Cr@std@@@Z
	 

	 Name : ??0Binary@protocol@v8_inspector@@QEAA@$$QEAV012@@Z
	 

	 Name : ??0Binary@protocol@v8_inspector@@QEAA@AEBV012@@Z
	 

	 Name : ??0Binary@protocol@v8_inspector@@QEAA@XZ
	 

	 Name : ??0CFunction@v8@@QEAA@PEBXPEBVCFunctionInfo@1@@Z
	 

	 Name : ??0CFunction@v8@@QEAA@XZ
	 

	 Name : ??0CFunctionInfo@v8@@QEAA@AEBVCTypeInfo@1@IPEBV21@W4Int64Representation@01@@Z
	 

	 Name : ??0CachedData@ScriptCompiler@v8@@QEAA@PEBEHW4BufferPolicy@012@@Z
	 

	 Name : ??0CachedData@ScriptCompiler@v8@@QEAA@XZ
	 

	 Name : ??0CallbackScope@AsyncResource@node@@QEAA@PEAV12@@Z
	 

	 Name : ??0CallbackScope@node@@QEAA@PEAVEnvironment@1@V?$Local@VObject@v8@@@v8@@Uasync_context@1@@Z
	 

	 Name : ??0CallbackScope@node@@QEAA@PEAVIsolate@v8@@V?$Local@VObject@v8@@@3@Uasync_context@1@@Z
	 

	 Name : ??0Channel@V8Inspector@v8_inspector@@QEAA@AEBV012@@Z
	 

	 Name : ??0Channel@V8Inspector@v8_inspector@@QEAA@XZ
	 

	 Name : ??0CodeEventHandler@v8@@QEAA@PEAVIsolate@1@@Z
	 

	 Name : ??0CommonEnvironmentSetup@node@@AEAA@PEAVMultiIsolatePlatform@1@PEAV?$vector@V?$basic_string@DU?$char_traits@D@__Cr@std@@V?$allocator@D@23@@__Cr@std@@V?$allocator@V?$basic_string@DU?$char_traits@D@__Cr@std@@V?$allocator@D@23@@__Cr@std@@@23@@__Cr@std@@PEBVEmbedderSnapshotData@1@IV?$function@$$A6APEAVEnvironment@node@@PEBVCommonEnvironmentSetup@2@@Z@45@PEBUSnapshotConfig@1@@Z
	 

	 Name : ??0CommonEnvironmentSetup@node@@AEAA@PEAVMultiIsolatePlatform@1@PEAV?$vector@V?$basic_string@DU?$char_traits@D@__Cr@std@@V?$allocator@D@23@@__Cr@std@@V?$allocator@V?$basic_string@DU?$char_traits@D@__Cr@std@@V?$allocator@D@23@@__Cr@std@@@23@@__Cr@std@@V?$function@$$A6APEAVEnvironment@node@@PEBVCommonEnvironmentSetup@2@@Z@45@@Z
	 

	 Name : ??0CompilationDependencies@compiler@internal@v8@@QEAA@$$QEAV0123@@Z
	 

	 Name : ??0CompilationDependencies@compiler@internal@v8@@QEAA@AEBV0123@@Z
	 

	 Name : ??0CompilationDependencies@compiler@internal@v8@@QEAA@PEAVJSHeapBroker@123@PEAVZone@23@@Z
	 

	 Name : ??0CompiledWasmModule@v8@@AEAA@V?$shared_ptr@VNativeModule@wasm@internal@v8@@@__Cr@std@@PEBD_K@Z
	 

	 Name : ??0CompiledWasmModule@v8@@QEAA@$$QEAV01@@Z
	 

	 Name : ??0CompiledWasmModule@v8@@QEAA@AEBV01@@Z
	 

	 Name : ??0ConsumeCodeCacheTask@ScriptCompiler@v8@@AEAA@V?$unique_ptr@VBackgroundDeserializeTask@internal@v8@@U?$default_delete@VBackgroundDeserializeTask@internal@v8@@@__Cr@std@@@__Cr@std@@@Z
	 

	 Name : ??0CppHeap@v8@@AEAA@XZ
	 

	 Name : ??0CppHeap@v8@@QEAA@AEBV01@@Z
	 

	 Name : ??0CppHeapCreateParams@v8@@QEAA@V?$vector@V?$unique_ptr@VCustomSpaceBase@cppgc@@U?$default_delete@VCustomSpaceBase@cppgc@@@__Cr@std@@@__Cr@std@@V?$allocator@V?$unique_ptr@VCustomSpaceBase@cppgc@@U?$default_delete@VCustomSpaceBase@cppgc@@@__Cr@std@@@__Cr@std@@@23@@__Cr@std@@@Z
	 

	 Name : ??0CpuProfileDeoptInfo@v8@@QEAA@$$QEAU01@@Z
	 

	 Name : ??0CpuProfileDeoptInfo@v8@@QEAA@AEBU01@@Z
	 

	 Name : ??0CpuProfileDeoptInfo@v8@@QEAA@XZ
	 

	 Name : ??0CpuProfilingOptions@v8@@QEAA@$$QEAV01@@Z
	 

	 Name : ??0CpuProfilingOptions@v8@@QEAA@W4CpuProfilingMode@1@IHV?$MaybeLocal@VContext@v8@@@1@@Z
	 

	 Name : ??0CreateParams@Isolate@v8@@QEAA@$$QEAU012@@Z
	 

	 Name : ??0CreateParams@Isolate@v8@@QEAA@AEBU012@@Z
	 

	 Name : ??0CreateParams@Isolate@v8@@QEAA@XZ
	 

	 Name : ??0CrossThreadPersistentRegion@internal@cppgc@@QEAA@AEBVFatalOutOfMemoryHandler@12@@Z
	 

	 Name : ??0DeepSerializationResult@v8_inspector@@QEAA@$$QEAU01@@Z
	 

	 Name : ??0DeepSerializationResult@v8_inspector@@QEAA@V?$unique_ptr@UDeepSerializedValue@v8_inspector@@U?$default_delete@UDeepSerializedValue@v8_inspector@@@__Cr@std@@@__Cr@std@@@Z
	 

	 Name : ??0DeepSerializationResult@v8_inspector@@QEAA@V?$unique_ptr@VStringBuffer@v8_inspector@@U?$default_delete@VStringBuffer@v8_inspector@@@__Cr@std@@@__Cr@std@@@Z
	 

	 Name : ??0DeepSerializedValue@v8_inspector@@QEAA@$$QEAU01@@Z
	 

	 Name : ??0DeepSerializedValue@v8_inspector@@QEAA@V?$unique_ptr@VStringBuffer@v8_inspector@@U?$default_delete@VStringBuffer@v8_inspector@@@__Cr@std@@@__Cr@std@@V?$MaybeLocal@VValue@v8@@@v8@@@Z
	 

	 Name : ??0Delegate@ValueDeserializer@v8@@QEAA@AEBV012@@Z
	 

	 Name : ??0Delegate@ValueDeserializer@v8@@QEAA@XZ
	 

	 Name : ??0Delegate@ValueSerializer@v8@@QEAA@AEBV012@@Z
	 

	 Name : ??0Delegate@ValueSerializer@v8@@QEAA@XZ
	 

	 Name : ??0DisallowGarbageCollectionScope@subtle@cppgc@@QEAA@AEAVHeapHandle@2@@Z
	 

	 Name : ??0DisallowJavascriptExecutionScope@Isolate@v8@@QEAA@PEAV12@W4OnFailure@012@@Z
	 

	 Name : ??0DiscardedSamplesDelegate@v8@@QEAA@AEBV01@@Z
	 

	 Name : ??0DiscardedSamplesDelegate@v8@@QEAA@XZ
	 

	 Name : ??0Domain@API@Schema@protocol@v8_inspector@@QEAA@$$QEAV01234@@Z
	 

	 Name : ??0Domain@API@Schema@protocol@v8_inspector@@QEAA@AEBV01234@@Z
	 

	 Name : ??0Domain@API@Schema@protocol@v8_inspector@@QEAA@XZ
	 

	 Name : ??0EmbedderGraph@v8@@QEAA@AEBV01@@Z
	 

	 Name : ??0EmbedderGraph@v8@@QEAA@XZ
	 

	 Name : ??0EmbedderRootsHandler@v8@@QEAA@AEBV01@@Z
	 

	 Name : ??0EmbedderRootsHandler@v8@@QEAA@XZ
	 

	 Name : ??0EmbedderStateScope@v8@@QEAA@PEAVIsolate@1@V?$Local@VContext@v8@@@1@W4EmbedderStateTag@1@@Z
	 

	 Name : ??0EscapableHandleScope@v8@@QEAA@PEAVIsolate@1@@Z
	 

	 Name : ??0EscapableHandleScopeBase@v8@@QEAA@PEAVIsolate@1@@Z
	 

	 Name : ??0EvaluateResult@V8InspectorSession@v8_inspector@@QEAA@XZ
	 

	 Name : ??0Exported@protocol@v8_inspector@@QEAA@AEBV012@@Z
	 

	 Name : ??0Exported@protocol@v8_inspector@@QEAA@XZ
	 

	 Name : ??0Extension@v8@@QEAA@PEBD0HPEAPEBDH@Z
	 

	 Name : ??0ExtensionConfiguration@v8@@QEAA@HQEAPEBD@Z
	 

	 Name : ??0ExtensionConfiguration@v8@@QEAA@XZ
	 

	 Name : ??0ExternalOneByteStringResource@String@v8@@IEAA@XZ
	 

	 Name : ??0ExternalResourceVisitor@v8@@QEAA@AEBV01@@Z
	 

	 Name : ??0ExternalResourceVisitor@v8@@QEAA@XZ
	 

	 Name : ??0ExternalSourceStream@ScriptCompiler@v8@@QEAA@AEBV012@@Z
	 

	 Name : ??0ExternalSourceStream@ScriptCompiler@v8@@QEAA@XZ
	 

	 Name : ??0ExternalStringResource@String@v8@@IEAA@XZ
	 

	 Name : ??0ExternalStringResourceBase@String@v8@@IEAA@XZ
	 

	 Name : ??0GCInfoTable@internal@cppgc@@QEAA@AEAVPageAllocator@v8@@AEAVFatalOutOfMemoryHandler@12@@Z
	 

	 Name : ??0HandleScope@v8@@QEAA@PEAVIsolate@1@@Z
	 

	 Name : ??0Heap@cppgc@@AEAA@XZ
	 

	 Name : ??0Heap@cppgc@@QEAA@AEBV01@@Z
	 

	 Name : ??0HeapCodeStatistics@v8@@QEAA@XZ
	 

	 Name : ??0HeapObjectStatistics@v8@@QEAA@XZ
	 

	 Name : ??0HeapSpaceStatistics@v8@@QEAA@XZ
	 

	 Name : ??0HeapStatistics@v8@@QEAA@XZ
	 

	 Name : ??0InitializationResult@node@@AEAA@XZ
	 

	 Name : ??0InitializationResult@node@@QEAA@AEBV01@@Z
	 

	 Name : ??0Inspectable@V8InspectorSession@v8_inspector@@QEAA@AEBV012@@Z
	 

	 Name : ??0Inspectable@V8InspectorSession@v8_inspector@@QEAA@XZ
	 

	 Name : ??0IsolatePlatformDelegate@node@@QEAA@$$QEAV01@@Z
	 

	 Name : ??0IsolatePlatformDelegate@node@@QEAA@AEBV01@@Z
	 

	 Name : ??0IsolatePlatformDelegate@node@@QEAA@XZ
	 

	 Name : ??0JitPageReference@ThreadIsolation@internal@v8@@QEAA@$$QEAV0123@@Z
	 

	 Name : ??0JitPageReference@ThreadIsolation@internal@v8@@QEAA@PEAVJitPage@123@_K@Z
	 

	 Name : ??0Location@v8@@QEAA@HH@Z
	 

	 Name : ??0Locker@v8@@QEAA@PEAVIsolate@1@@Z
	 

	 Name : ??0LongTaskStats@metrics@v8@@QEAA@XZ
	 

	 Name : ??0MeasureMemoryDelegate@v8@@QEAA@AEBV01@@Z
	 

	 Name : ??0MeasureMemoryDelegate@v8@@QEAA@XZ
	 

	 Name : ??0MicrotaskQueue@v8@@AEAA@XZ
	 

	 Name : ??0MicrotasksScope@v8@@QEAA@PEAVIsolate@1@PEAVMicrotaskQueue@1@W4Type@01@@Z
	 

	 Name : ??0MicrotasksScope@v8@@QEAA@V?$Local@VContext@v8@@@1@W4Type@01@@Z
	 

	 Name : ??0ModuleWrap@loader@node@@AEAA@PEAVRealm@2@V?$Local@VObject@v8@@@v8@@V?$Local@VModule@v8@@@5@V?$Local@VString@v8@@@5@1V?$Local@VValue@v8@@@5@@Z
	 

	 Name : ??0MultiIsolatePlatform@node@@QEAA@AEBV01@@Z
	 

	 Name : ??0MultiIsolatePlatform@node@@QEAA@XZ
	 

	 Name : ??0NameProvider@cppgc@@QEAA@AEBV01@@Z
	 

	 Name : ??0NameProvider@cppgc@@QEAA@XZ
	 

	 Name : ??0NoGarbageCollectionScope@subtle@cppgc@@QEAA@AEAVHeapHandle@2@@Z
	 

	 Name : ??0OptimizingCompileDispatcherQueue@internal@v8@@QEAA@H@Z
	 

	 Name : ??0OutputStream@v8@@QEAA@AEBV01@@Z
	 

	 Name : ??0OutputStream@v8@@QEAA@XZ
	 

	 Name : ??0OverrideEmbedderStackStateScope@testing@cppgc@@QEAA@AEAVHeapHandle@2@W4EmbedderStackState@2@@Z
	 

	 Name : ??0PersistentHandleVisitor@v8@@QEAA@AEBV01@@Z
	 

	 Name : ??0PersistentHandleVisitor@v8@@QEAA@XZ
	 

	 Name : ??0PersistentRegion@internal@cppgc@@QEAA@AEBVHeapBase@12@AEBVFatalOutOfMemoryHandler@12@@Z
	 

	 Name : ??0PersistentRegionBase@internal@cppgc@@IEAA@AEBVFatalOutOfMemoryHandler@12@@Z
	 

	 Name : ??0PersistentRegionLock@internal@cppgc@@QEAA@XZ
	 

	 Name : ??0Platform@cppgc@@QEAA@AEBV01@@Z
	 

	 Name : ??0Platform@cppgc@@QEAA@XZ
	 

	 Name : ??0PrefinalizerRegistration@internal@cppgc@@QEAA@PEAXP6A_NAEBVLivenessBroker@2@0@Z@Z
	 

	 Name : ??0PropertyDescriptor@v8@@QEAA@V?$Local@VValue@v8@@@1@0@Z
	 

	 Name : ??0PropertyDescriptor@v8@@QEAA@V?$Local@VValue@v8@@@1@@Z
	 

	 Name : ??0PropertyDescriptor@v8@@QEAA@V?$Local@VValue@v8@@@1@_N@Z
	 

	 Name : ??0PropertyDescriptor@v8@@QEAA@XZ
	 

	 Name : ??0Recorder@metrics@v8@@QEAA@AEBV012@@Z
	 

	 Name : ??0Recorder@metrics@v8@@QEAA@XZ
	 

	 Name : ??0RegisterState@v8@@QEAA@AEBU01@@Z
	 

	 Name : ??0RegisterState@v8@@QEAA@XZ
	 

	 Name : ??0RemoteObject@API@Runtime@protocol@v8_inspector@@QEAA@$$QEAV01234@@Z
	 

	 Name : ??0RemoteObject@API@Runtime@protocol@v8_inspector@@QEAA@AEBV01234@@Z
	 

	 Name : ??0RemoteObject@API@Runtime@protocol@v8_inspector@@QEAA@XZ
	 

	 Name : ??0ResourceConstraints@v8@@QEAA@XZ
	 

	 Name : ??0RootVisitor@internal@cppgc@@QEAA@AEBV012@@Z
	 

	 Name : ??0RootVisitor@internal@cppgc@@QEAA@VKey@Visitor@2@@Z
	 

	 Name : ??0SameThreadEnabledCheckingPolicyBase@internal@cppgc@@QEAA@XZ
	 

	 Name : ??0Scope@Isolate@v8@@QEAA@PEAV12@@Z
	 

	 Name : ??0ScriptOrigin@v8@@QEAA@V?$Local@VValue@v8@@@1@HH_NH0111V?$Local@VData@v8@@@1@@Z
	 

	 Name : ??0ScriptStreamingTask@ScriptCompiler@v8@@AEAA@PEAUScriptStreamingData@internal@2@@Z
	 

	 Name : ??0SealHandleScope@v8@@QEAA@PEAVIsolate@1@@Z
	 

	 Name : ??0SearchMatch@API@Debugger@protocol@v8_inspector@@QEAA@$$QEAV01234@@Z
	 

	 Name : ??0SearchMatch@API@Debugger@protocol@v8_inspector@@QEAA@AEBV01234@@Z
	 

	 Name : ??0SearchMatch@API@Debugger@protocol@v8_inspector@@QEAA@XZ
	 

	 Name : ??0SharedMemoryStatistics@v8@@QEAA@XZ
	 

	 Name : ??0SharedValueConveyor@v8@@AEAA@PEAVIsolate@1@@Z
	 

	 Name : ??0SharedValueConveyor@v8@@QEAA@$$QEAV01@@Z
	 

	 Name : ??0SnapshotCreator@v8@@QEAA@AEBUCreateParams@Isolate@1@@Z
	 

	 Name : ??0SnapshotCreator@v8@@QEAA@PEAVIsolate@1@AEBUCreateParams@21@@Z
	 

	 Name : ??0SnapshotCreator@v8@@QEAA@PEAVIsolate@1@PEB_JPEBVStartupData@1@_N@Z
	 

	 Name : ??0SnapshotCreator@v8@@QEAA@PEB_JPEBVStartupData@1@@Z
	 

	 Name : ??0SourceLocation@v8@@AEAA@PEBD0_K@Z
	 

	 Name : ??0SourceLocation@v8@@QEAA@XZ
	 

	 Name : ??0StackTrace@API@Runtime@protocol@v8_inspector@@QEAA@$$QEAV01234@@Z
	 

	 Name : ??0StackTrace@API@Runtime@protocol@v8_inspector@@QEAA@AEBV01234@@Z
	 

	 Name : ??0StackTrace@API@Runtime@protocol@v8_inspector@@QEAA@XZ
	 

	 Name : ??0StackTraceId@API@Runtime@protocol@v8_inspector@@QEAA@$$QEAV01234@@Z
	 

	 Name : ??0StackTraceId@API@Runtime@protocol@v8_inspector@@QEAA@AEBV01234@@Z
	 

	 Name : ??0StackTraceId@API@Runtime@protocol@v8_inspector@@QEAA@XZ
	 

	 Name : ??0StandaloneTestingHeap@testing@cppgc@@QEAA@AEAVHeapHandle@2@@Z
	 

	 Name : ??0StreamedSource@ScriptCompiler@v8@@QEAA@V?$unique_ptr@VExternalSourceStream@ScriptCompiler@v8@@U?$default_delete@VExternalSourceStream@ScriptCompiler@v8@@@__Cr@std@@@__Cr@std@@W4Encoding@012@@Z
	 

	 Name : ??0String16@v8_inspector@@QEAA@PEBD@Z
	 

	 Name : ??0String16@v8_inspector@@QEAA@PEB_S@Z
	 

	 Name : ??0StringBuffer@v8_inspector@@QEAA@AEBV01@@Z
	 

	 Name : ??0StringBuffer@v8_inspector@@QEAA@XZ
	 

	 Name : ??0StringView@v8_inspector@@QEAA@PEBE_K@Z
	 

	 Name : ??0StringView@v8_inspector@@QEAA@PEBG_K@Z
	 

	 Name : ??0StringView@v8_inspector@@QEAA@XZ
	 

	 Name : ??0StrongRootAllocatorBase@internal@v8@@IEAA@PEAVHeap@12@@Z
	 

	 Name : ??0StrongRootAllocatorBase@internal@v8@@IEAA@PEAVIsolate@12@@Z
	 

	 Name : ??0StrongRootAllocatorBase@internal@v8@@IEAA@PEAVIsolate@2@@Z
	 

	 Name : ??0StrongRootAllocatorBase@internal@v8@@IEAA@PEAVLocalHeap@12@@Z
	 

	 Name : ??0StrongRootAllocatorBase@internal@v8@@IEAA@PEAVLocalIsolate@12@@Z
	 

	 Name : ??0SuppressMicrotaskExecutionScope@Isolate@v8@@QEAA@PEAV12@PEAVMicrotaskQueue@2@@Z
	 

	 Name : ??0SuspendTagCheckingScope@base@heap@@QEAA@XZ
	 

	 Name : ??0TickSample@internal@v8@@QEAA@XZ
	 

	 Name : ??0TryCatch@v8@@QEAA@PEAVIsolate@1@@Z
	 

	 Name : ??0TypecheckWitness@v8@@QEAA@PEAVIsolate@1@@Z
	 

	 Name : ??0Unlocker@v8@@QEAA@PEAVIsolate@1@@Z
	 

	 Name : ??0Utf8Value@String@v8@@QEAA@PEAVIsolate@2@V?$Local@VValue@v8@@@2@W4WriteOptions@12@@Z
	 

	 Name : ??0V8ContextInfo@v8_inspector@@QEAA@V?$Local@VContext@v8@@@v8@@HVStringView@1@@Z
	 

	 Name : ??0V8DebuggerId@v8_inspector@@AEAA@U?$pair@_J_J@__Cr@std@@@Z
	 

	 Name : ??0V8DebuggerId@v8_inspector@@QEAA@XZ
	 

	 Name : ??0V8Inspector@v8_inspector@@QEAA@AEBV01@@Z
	 

	 Name : ??0V8Inspector@v8_inspector@@QEAA@XZ
	 

	 Name : ??0V8InspectorClient@v8_inspector@@QEAA@AEBV01@@Z
	 

	 Name : ??0V8InspectorClient@v8_inspector@@QEAA@XZ
	 

	 Name : ??0V8InspectorSession@v8_inspector@@QEAA@AEBV01@@Z
	 

	 Name : ??0V8InspectorSession@v8_inspector@@QEAA@XZ
	 

	 Name : ??0V8SerializationDuplicateTracker@v8_inspector@@QEAA@V?$Local@VContext@v8@@@v8@@@Z
	 

	 Name : ??0V8StackFrame@v8_inspector@@QEAA@XZ
	 

	 Name : ??0V8StackTrace@v8_inspector@@QEAA@AEBV01@@Z
	 

	 Name : ??0V8StackTrace@v8_inspector@@QEAA@XZ
	 

	 Name : ??0V8StackTraceId@v8_inspector@@QEAA@VStringView@1@@Z
	 

	 Name : ??0V8StackTraceId@v8_inspector@@QEAA@XZ
	 

	 Name : ??0V8StackTraceId@v8_inspector@@QEAA@_KU?$pair@_J_J@__Cr@std@@@Z
	 

	 Name : ??0V8StackTraceId@v8_inspector@@QEAA@_KU?$pair@_J_J@__Cr@std@@_N@Z
	 

	 Name : ??0Value@String@v8@@QEAA@PEAVIsolate@2@V?$Local@VValue@v8@@@2@@Z
	 

	 Name : ??0ValueDeserializer@v8@@QEAA@PEAVIsolate@1@PEBE_K@Z
	 

	 Name : ??0ValueDeserializer@v8@@QEAA@PEAVIsolate@1@PEBE_KPEAVDelegate@01@@Z
	 

	 Name : ??0ValueSerializer@v8@@QEAA@PEAVIsolate@1@@Z
	 

	 Name : ??0ValueSerializer@v8@@QEAA@PEAVIsolate@1@PEAVDelegate@01@@Z
	 

	 Name : ??0ValueView@String@v8@@QEAA@PEAVIsolate@2@V?$Local@VString@v8@@@2@@Z
	 

	 Name : ??0Visitor@cppgc@@QEAA@AEBV01@@Z
	 

	 Name : ??0Visitor@cppgc@@QEAA@VKey@01@@Z
	 

	 Name : ??0WasmStreaming@v8@@QEAA@V?$unique_ptr@VWasmStreamingImpl@WasmStreaming@v8@@U?$default_delete@VWasmStreamingImpl@WasmStreaming@v8@@@__Cr@std@@@__Cr@std@@@Z
	 

	 Name : ??1?$vector@UCpuProfileDeoptFrame@v8@@V?$allocator@UCpuProfileDeoptFrame@v8@@@__Cr@std@@@__Cr@std@@QEAA@XZ
	 

	 Name : ??1?$vector@UCpuProfileDeoptInfo@v8@@V?$allocator@UCpuProfileDeoptInfo@v8@@@__Cr@std@@@__Cr@std@@QEAA@XZ
	 

	 Name : ??1ActivityControl@v8@@UEAA@XZ
	 

	 Name : ??1AllocationProfile@v8@@UEAA@XZ
	 

	 Name : ??1Allocator@ArrayBuffer@v8@@UEAA@XZ
	 

	 Name : ??1AllowJavascriptExecutionScope@Isolate@v8@@QEAA@XZ
	 

	 Name : ??1ArrayBufferAllocator@node@@UEAA@XZ
	 

	 Name : ??1AsyncResource@node@@UEAA@XZ
	 

	 Name : ??1BackingStore@v8@@QEAA@XZ
	 

	 Name : ??1BackupIncumbentScope@Context@v8@@QEAA@XZ
	 

	 Name : ??1Binary@protocol@v8_inspector@@QEAA@XZ
	 

	 Name : ??1CachedData@ScriptCompiler@v8@@QEAA@XZ
	 

	 Name : ??1CallbackScope@AsyncResource@node@@QEAA@XZ
	 

	 Name : ??1CallbackScope@node@@QEAA@XZ
	 

	 Name : ??1Channel@V8Inspector@v8_inspector@@UEAA@XZ
	 

	 Name : ??1CodeEventHandler@v8@@UEAA@XZ
	 

	 Name : ??1CommonEnvironmentSetup@node@@QEAA@XZ
	 

	 Name : ??1CompilationDependencies@compiler@internal@v8@@QEAA@XZ
	 

	 Name : ??1CompiledWasmModule@v8@@QEAA@XZ
	 

	 Name : ??1ConsumeCodeCacheTask@ScriptCompiler@v8@@QEAA@XZ
	 

	 Name : ??1CppHeap@v8@@UEAA@XZ
	 

	 Name : ??1CppHeapCreateParams@v8@@QEAA@XZ
	 

	 Name : ??1CpuProfileDeoptInfo@v8@@QEAA@XZ
	 

	 Name : ??1CpuProfilingOptions@v8@@QEAA@XZ
	 

	 Name : ??1CreateParams@Isolate@v8@@QEAA@XZ
	 

	 Name : ??1CrossThreadPersistentRegion@internal@cppgc@@QEAA@XZ
	 

	 Name : ??1DeepSerializationResult@v8_inspector@@QEAA@XZ
	 

	 Name : ??1DeepSerializedValue@v8_inspector@@QEAA@XZ
	 

	 Name : ??1Delegate@ValueDeserializer@v8@@UEAA@XZ
	 

	 Name : ??1Delegate@ValueSerializer@v8@@UEAA@XZ
	 

	 Name : ??1DisallowGarbageCollectionScope@subtle@cppgc@@QEAA@XZ
	 

	 Name : ??1DisallowJavascriptExecutionScope@Isolate@v8@@QEAA@XZ
	 

	 Name : ??1DiscardedSamplesDelegate@v8@@UEAA@XZ
	 

	 Name : ??1Domain@API@Schema@protocol@v8_inspector@@UEAA@XZ
	 

	 Name : ??1EmbedderGraph@v8@@UEAA@XZ
	 

	 Name : ??1EmbedderRootsHandler@v8@@UEAA@XZ
	 

	 Name : ??1EmbedderStateScope@v8@@QEAA@XZ
	 

	 Name : ??1EscapableHandleScope@v8@@QEAA@XZ
	 

	 Name : ??1EscapableHandleScopeBase@v8@@QEAA@XZ
	 

	 Name : ??1Exported@protocol@v8_inspector@@UEAA@XZ
	 

	 Name : ??1Extension@v8@@UEAA@XZ
	 

	 Name : ??1ExternalOneByteStringResource@String@v8@@UEAA@XZ
	 

	 Name : ??1ExternalResourceVisitor@v8@@UEAA@XZ
	 

	 Name : ??1ExternalSourceStream@ScriptCompiler@v8@@UEAA@XZ
	 

	 Name : ??1ExternalStringResource@String@v8@@UEAA@XZ
	 

	 Name : ??1ExternalStringResourceBase@String@v8@@UEAA@XZ
	 

	 Name : ??1GCInfoTable@internal@cppgc@@QEAA@XZ
	 

	 Name : ??1HandleScope@v8@@QEAA@XZ
	 

	 Name : ??1Heap@cppgc@@UEAA@XZ
	 

	 Name : ??1InitializationResult@node@@UEAA@XZ
	 

	 Name : ??1Inspectable@V8InspectorSession@v8_inspector@@UEAA@XZ
	 

	 Name : ??1JitPageReference@ThreadIsolation@internal@v8@@QEAA@XZ
	 

	 Name : ??1Locker@v8@@QEAA@XZ
	 

	 Name : ??1MeasureMemoryDelegate@v8@@UEAA@XZ
	 

	 Name : ??1MicrotaskQueue@v8@@UEAA@XZ
	 

	 Name : ??1MicrotasksScope@v8@@QEAA@XZ
	 

	 Name : ??1ModuleWrap@loader@node@@EEAA@XZ
	 

	 Name : ??1MultiIsolatePlatform@node@@UEAA@XZ
	 

	 Name : ??1NameProvider@cppgc@@UEAA@XZ
	 

	 Name : ??1NoGarbageCollectionScope@subtle@cppgc@@QEAA@XZ
	 

	 Name : ??1OptimizingCompileDispatcherQueue@internal@v8@@QEAA@XZ
	 

	 Name : ??1OutputStream@v8@@UEAA@XZ
	 

	 Name : ??1OverrideEmbedderStackStateScope@testing@cppgc@@QEAA@XZ
	 

	 Name : ??1PersistentHandleVisitor@v8@@UEAA@XZ
	 

	 Name : ??1PersistentRegion@internal@cppgc@@QEAA@XZ
	 

	 Name : ??1PersistentRegionBase@internal@cppgc@@QEAA@XZ
	 

	 Name : ??1PersistentRegionLock@internal@cppgc@@QEAA@XZ
	 

	 Name : ??1Platform@cppgc@@UEAA@XZ
	 

	 Name : ??1PropertyDescriptor@v8@@QEAA@XZ
	 

	 Name : ??1Recorder@metrics@v8@@UEAA@XZ
	 

	 Name : ??1RegisterState@v8@@QEAA@XZ
	 

	 Name : ??1RemoteObject@API@Runtime@protocol@v8_inspector@@UEAA@XZ
	 

	 Name : ??1RootVisitor@internal@cppgc@@UEAA@XZ
	 

	 Name : ??1Scope@Isolate@v8@@QEAA@XZ
	 

	 Name : ??1SealHandleScope@v8@@QEAA@XZ
	 

	 Name : ??1SearchMatch@API@Debugger@protocol@v8_inspector@@UEAA@XZ
	 

	 Name : ??1SharedValueConveyor@v8@@QEAA@XZ
	 

	 Name : ??1SnapshotCreator@v8@@QEAA@XZ
	 

	 Name : ??1StackTrace@API@Runtime@protocol@v8_inspector@@UEAA@XZ
	 

	 Name : ??1StackTraceId@API@Runtime@protocol@v8_inspector@@UEAA@XZ
	 

	 Name : ??1StreamedSource@ScriptCompiler@v8@@QEAA@XZ
	 

	 Name : ??1StringBuffer@v8_inspector@@UEAA@XZ
	 

	 Name : ??1SuppressMicrotaskExecutionScope@Isolate@v8@@QEAA@XZ
	 

	 Name : ??1SuspendTagCheckingScope@base@heap@@QEAA@XZ
	 

	 Name : ??1TryCatch@v8@@QEAA@XZ
	 

	 Name : ??1Unlocker@v8@@QEAA@XZ
	 

	 Name : ??1Utf8Value@String@v8@@QEAA@XZ
	 

	 Name : ??1V8Inspector@v8_inspector@@UEAA@XZ
	 

	 Name : ??1V8InspectorClient@v8_inspector@@UEAA@XZ
	 

	 Name : ??1V8InspectorSession@v8_inspector@@UEAA@XZ
	 

	 Name : ??1V8StackTrace@v8_inspector@@UEAA@XZ
	 

	 Name : ??1Value@String@v8@@QEAA@XZ
	 

	 Name : ??1ValueDeserializer@v8@@QEAA@XZ
	 

	 Name : ??1ValueSerializer@v8@@QEAA@XZ
	 

	 Name : ??1ValueView@String@v8@@QEAA@XZ
	 

	 Name : ??1Visitor@cppgc@@UEAA@XZ
	 

	 Name : ??1WasmStreaming@v8@@QEAA@XZ
	 

	 Name : ??2GlobalGCInfoTable@internal@cppgc@@CAPEAX_K@Z
	 

	 Name : ??2HandleScope@v8@@CAPEAX_K@Z
	 

	 Name : ??2TryCatch@v8@@CAPEAX_K@Z
	 

	 Name : ??3BackingStore@v8@@SAXPEAX@Z
	 

	 Name : ??3GlobalGCInfoTable@internal@cppgc@@CAXPEAX_K@Z
	 

	 Name : ??3HandleScope@v8@@CAXPEAX_K@Z
	 

	 Name : ??3TryCatch@v8@@CAXPEAX_K@Z
	 

	 Name : ??4?$CTypeInfoBuilder@H$S@v8@@QEAAAEAV01@$$QEAV01@@Z
	 

	 Name : ??4?$CTypeInfoBuilder@H$S@v8@@QEAAAEAV01@AEBV01@@Z
	 

	 Name : ??4?$CTypeInfoBuilder@I$S@v8@@QEAAAEAV01@$$QEAV01@@Z
	 

	 Name : ??4?$CTypeInfoBuilder@I$S@v8@@QEAAAEAV01@AEBV01@@Z
	 

	 Name : ??4?$CTypeInfoBuilder@M$S@v8@@QEAAAEAV01@$$QEAV01@@Z
	 

	 Name : ??4?$CTypeInfoBuilder@M$S@v8@@QEAAAEAV01@AEBV01@@Z
	 

	 Name : ??4?$CTypeInfoBuilder@N$S@v8@@QEAAAEAV01@$$QEAV01@@Z
	 

	 Name : ??4?$CTypeInfoBuilder@N$S@v8@@QEAAAEAV01@AEBV01@@Z
	 

	 Name : ??4?$MemorySpan@$$CBD@v8@@QEAAAEAV01@$$QEAV01@@Z
	 

	 Name : ??4?$MemorySpan@$$CBD@v8@@QEAAAEAV01@AEBV01@@Z
	 

	 Name : ??4?$MemorySpan@$$CBE@v8@@QEAAAEAV01@$$QEAV01@@Z
	 

	 Name : ??4?$MemorySpan@$$CBE@v8@@QEAAAEAV01@AEBV01@@Z
	 

	 Name : ??4?$MemorySpan@$$CBV?$Local@VContext@v8@@@v8@@@v8@@QEAAAEAV01@$$QEAV01@@Z
	 

	 Name : ??4?$MemorySpan@$$CBV?$Local@VContext@v8@@@v8@@@v8@@QEAAAEAV01@AEBV01@@Z
	 

	 Name : ??4?$MemorySpan@$$CBV?$Local@VString@v8@@@v8@@@v8@@QEAAAEAV01@$$QEAV01@@Z
	 

	 Name : ??4?$MemorySpan@$$CBV?$Local@VString@v8@@@v8@@@v8@@QEAAAEAV01@AEBV01@@Z
	 

	 Name : ??4?$MemorySpan@$$CBV?$Local@VValue@v8@@@v8@@@v8@@QEAAAEAV01@$$QEAV01@@Z
	 

	 Name : ??4?$MemorySpan@$$CBV?$Local@VValue@v8@@@v8@@@v8@@QEAAAEAV01@AEBV01@@Z
	 

	 Name : ??4?$MemorySpan@$$CBV?$basic_string_view@DU?$char_traits@D@__Cr@std@@@__Cr@std@@@v8@@QEAAAEAV01@$$QEAV01@@Z
	 

	 Name : ??4?$MemorySpan@$$CBV?$basic_string_view@DU?$char_traits@D@__Cr@std@@@__Cr@std@@@v8@@QEAAAEAV01@AEBV01@@Z
	 

	 Name : ??4?$MemorySpan@$$CBVCFunction@v8@@@v8@@QEAAAEAV01@$$QEAV01@@Z
	 

	 Name : ??4?$MemorySpan@$$CBVCFunction@v8@@@v8@@QEAAAEAV01@AEBV01@@Z
	 

	 Name : ??4?$MemorySpan@$$CB_K@v8@@QEAAAEAV01@$$QEAV01@@Z
	 

	 Name : ??4?$MemorySpan@$$CB_K@v8@@QEAAAEAV01@AEBV01@@Z
	 

	 Name : ??4?$MemorySpan@E@v8@@QEAAAEAV01@$$QEAV01@@Z
	 

	 Name : ??4?$MemorySpan@E@v8@@QEAAAEAV01@AEBV01@@Z
	 

	 Name : ??4?$MemorySpan@V?$Handle@VMap@internal@v8@@@internal@v8@@@v8@@QEAAAEAV01@$$QEAV01@@Z
	 

	 Name : ??4?$MemorySpan@V?$Handle@VMap@internal@v8@@@internal@v8@@@v8@@QEAAAEAV01@AEBV01@@Z
	 

	 Name : ??4?$MemorySpan@V?$Handle@VObject@internal@v8@@@internal@v8@@@v8@@QEAAAEAV01@$$QEAV01@@Z
	 

	 Name : ??4?$MemorySpan@V?$Handle@VObject@internal@v8@@@internal@v8@@@v8@@QEAAAEAV01@AEBV01@@Z
	 

	 Name : ??4?$MemorySpan@V?$MaybeLocal@VValue@v8@@@v8@@@v8@@QEAAAEAV01@$$QEAV01@@Z
	 

	 Name : ??4?$MemorySpan@V?$MaybeLocal@VValue@v8@@@v8@@@v8@@QEAAAEAV01@AEBV01@@Z
	 

	 Name : ??4?$MemorySpan@_K@v8@@QEAAAEAV01@$$QEAV01@@Z
	 

	 Name : ??4?$MemorySpan@_K@v8@@QEAAAEAV01@AEBV01@@Z
	 

	 Name : ??4?$vector@UCpuProfileDeoptFrame@v8@@V?$allocator@UCpuProfileDeoptFrame@v8@@@__Cr@std@@@__Cr@std@@QEAAAEAV012@$$QEAV012@@Z
	 

	 Name : ??4?$vector@UCpuProfileDeoptFrame@v8@@V?$allocator@UCpuProfileDeoptFrame@v8@@@__Cr@std@@@__Cr@std@@QEAAAEAV012@AEBV012@@Z
	 

	 Name : ??4?$vector@UCpuProfileDeoptFrame@v8@@V?$allocator@UCpuProfileDeoptFrame@v8@@@__Cr@std@@@__Cr@std@@QEAAAEAV012@V?$initializer_list@UCpuProfileDeoptFrame@v8@@@2@@Z
	 

	 Name : ??4?$vector@UCpuProfileDeoptInfo@v8@@V?$allocator@UCpuProfileDeoptInfo@v8@@@__Cr@std@@@__Cr@std@@QEAAAEAV012@$$QEAV012@@Z
	 

	 Name : ??4?$vector@UCpuProfileDeoptInfo@v8@@V?$allocator@UCpuProfileDeoptInfo@v8@@@__Cr@std@@@__Cr@std@@QEAAAEAV012@AEBV012@@Z
	 

	 Name : ??4?$vector@UCpuProfileDeoptInfo@v8@@V?$allocator@UCpuProfileDeoptInfo@v8@@@__Cr@std@@@__Cr@std@@QEAAAEAV012@V?$initializer_list@UCpuProfileDeoptInfo@v8@@@2@@Z
	 

	 Name : ??4ActivityControl@v8@@QEAAAEAV01@AEBV01@@Z
	 

	 Name : ??4AgeTable@internal@cppgc@@QEAAAEAV012@$$QEAV012@@Z
	 

	 Name : ??4AgeTable@internal@cppgc@@QEAAAEAV012@AEBV012@@Z
	 

	 Name : ??4AllocationHandle@cppgc@@QEAAAEAV01@$$QEAV01@@Z
	 

	 Name : ??4AllocationHandle@cppgc@@QEAAAEAV01@AEBV01@@Z
	 

	 Name : ??4AllocationProfile@v8@@QEAAAEAV01@AEBV01@@Z
	 

	 Name : ??4Allocator@ArrayBuffer@v8@@QEAAAEAV012@AEBV012@@Z
	 

	 Name : ??4Array@v8@@QEAAAEAV01@$$QEAV01@@Z
	 

	 Name : ??4Array@v8@@QEAAAEAV01@AEBV01@@Z
	 

	 Name : ??4ArrayBuffer@v8@@QEAAAEAV01@$$QEAV01@@Z
	 

	 Name : ??4ArrayBuffer@v8@@QEAAAEAV01@AEBV01@@Z
	 

	 Name : ??4ArrayBufferAllocator@node@@QEAAAEAV01@$$QEAV01@@Z
	 

	 Name : ??4ArrayBufferAllocator@node@@QEAAAEAV01@AEBV01@@Z
	 

	 Name : ??4ArrayBufferView@v8@@QEAAAEAV01@$$QEAV01@@Z
	 

	 Name : ??4ArrayBufferView@v8@@QEAAAEAV01@AEBV01@@Z
	 

	 Name : ??4AtomicsWaitWakeHandle@Isolate@v8@@QEAAAEAV012@$$QEAV012@@Z
	 

	 Name : ??4AtomicsWaitWakeHandle@Isolate@v8@@QEAAAEAV012@AEBV012@@Z
	 

	 Name : ??4BackingStore@v8@@QEAAAEAV01@AEBV01@@Z
	 

	 Name : ??4BackupIncumbentScope@Context@v8@@QEAAAEAV012@AEBV012@@Z
	 

	 Name : ??4BaseObjectSizeTrait@internal@cppgc@@QEAAAEAU012@$$QEAU012@@Z
	 

	 Name : ??4BaseObjectSizeTrait@internal@cppgc@@QEAAAEAU012@AEBU012@@Z
	 

	 Name : ??4BigInt64Array@v8@@QEAAAEAV01@$$QEAV01@@Z
	 

	 Name : ??4BigInt64Array@v8@@QEAAAEAV01@AEBV01@@Z
	 

	 Name : ??4BigInt@v8@@QEAAAEAV01@$$QEAV01@@Z
	 

	 Name : ??4BigInt@v8@@QEAAAEAV01@AEBV01@@Z
	 

	 Name : ??4BigIntObject@v8@@QEAAAEAV01@$$QEAV01@@Z
	 

	 Name : ??4BigIntObject@v8@@QEAAAEAV01@AEBV01@@Z
	 

	 Name : ??4BigUint64Array@v8@@QEAAAEAV01@$$QEAV01@@Z
	 

	 Name : ??4BigUint64Array@v8@@QEAAAEAV01@AEBV01@@Z
	 

	 Name : ??4Binary@protocol@v8_inspector@@QEAAAEAV012@$$QEAV012@@Z
	 

	 Name : ??4Binary@protocol@v8_inspector@@QEAAAEAV012@AEBV012@@Z
	 

	 Name : ??4Boolean@v8@@QEAAAEAV01@$$QEAV01@@Z
	 

	 Name : ??4Boolean@v8@@QEAAAEAV01@AEBV01@@Z
	 

	 Name : ??4BooleanObject@v8@@QEAAAEAV01@$$QEAV01@@Z
	 

	 Name : ??4BooleanObject@v8@@QEAAAEAV01@AEBV01@@Z
	 

	 Name : ??4CFunction@v8@@QEAAAEAV01@$$QEAV01@@Z
	 

	 Name : ??4CFunction@v8@@QEAAAEAV01@AEBV01@@Z
	 

	 Name : ??4CageBaseGlobal@internal@cppgc@@QEAAAEAV012@$$QEAV012@@Z
	 

	 Name : ??4CageBaseGlobal@internal@cppgc@@QEAAAEAV012@AEBV012@@Z
	 

	 Name : ??4CagedHeapBase@internal@cppgc@@QEAAAEAV012@$$QEAV012@@Z
	 

	 Name : ??4CagedHeapBase@internal@cppgc@@QEAAAEAV012@AEBV012@@Z
	 

	 Name : ??4Channel@V8Inspector@v8_inspector@@QEAAAEAV012@AEBV012@@Z
	 

	 Name : ??4CodeEvent@v8@@QEAAAEAV01@$$QEAV01@@Z
	 

	 Name : ??4CodeEvent@v8@@QEAAAEAV01@AEBV01@@Z
	 

	 Name : ??4CompileHintsCollector@v8@@QEAAAEAV01@$$QEAV01@@Z
	 

	 Name : ??4CompileHintsCollector@v8@@QEAAAEAV01@AEBV01@@Z
	 

	 Name : ??4Context@v8@@QEAAAEAV01@$$QEAV01@@Z
	 

	 Name : ??4Context@v8@@QEAAAEAV01@AEBV01@@Z
	 

	 Name : ??4CppHeap@v8@@QEAAAEAV01@AEBV01@@Z
	 

	 Name : ??4CpuProfile@v8@@QEAAAEAV01@$$QEAV01@@Z
	 

	 Name : ??4CpuProfile@v8@@QEAAAEAV01@AEBV01@@Z
	 

	 Name : ??4CpuProfileDeoptInfo@v8@@QEAAAEAU01@$$QEAU01@@Z
	 

	 Name : ??4CpuProfileDeoptInfo@v8@@QEAAAEAU01@AEBU01@@Z
	 

	 Name : ??4CpuProfileNode@v8@@QEAAAEAV01@$$QEAV01@@Z
	 

	 Name : ??4CpuProfileNode@v8@@QEAAAEAV01@AEBV01@@Z
	 

	 Name : ??4CpuProfilingOptions@v8@@QEAAAEAV01@$$QEAV01@@Z
	 

	 Name : ??4CreateParams@Isolate@v8@@QEAAAEAU012@$$QEAU012@@Z
	 

	 Name : ??4CreateParams@Isolate@v8@@QEAAAEAU012@AEBU012@@Z
	 

	 Name : ??4Data@v8@@QEAAAEAV01@$$QEAV01@@Z
	 

	 Name : ??4Data@v8@@QEAAAEAV01@AEBV01@@Z
	 

	 Name : ??4DataView@v8@@QEAAAEAV01@$$QEAV01@@Z
	 

	 Name : ??4DataView@v8@@QEAAAEAV01@AEBV01@@Z
	 

	 Name : ??4Date@v8@@QEAAAEAV01@$$QEAV01@@Z
	 

	 Name : ??4Date@v8@@QEAAAEAV01@AEBV01@@Z
	 

	 Name : ??4DeepSerializationResult@v8_inspector@@QEAAAEAU01@$$QEAU01@@Z
	 

	 Name : ??4DeepSerializedValue@v8_inspector@@QEAAAEAU01@$$QEAU01@@Z
	 

	 Name : ??4Delegate@ValueDeserializer@v8@@QEAAAEAV012@AEBV012@@Z
	 

	 Name : ??4Delegate@ValueSerializer@v8@@QEAAAEAV012@AEBV012@@Z
	 

	 Name : ??4DeleteACHHandle@node@@QEAAAEAU01@$$QEAU01@@Z
	 

	 Name : ??4DeleteACHHandle@node@@QEAAAEAU01@AEBU01@@Z
	 

	 Name : ??4DictionaryTemplate@v8@@QEAAAEAV01@$$QEAV01@@Z
	 

	 Name : ??4DictionaryTemplate@v8@@QEAAAEAV01@AEBV01@@Z
	 

	 Name : ??4DiscardedSamplesDelegate@v8@@QEAAAEAV01@AEBV01@@Z
	 

	 Name : ??4Domain@API@Schema@protocol@v8_inspector@@QEAAAEAV01234@$$QEAV01234@@Z
	 

	 Name : ??4Domain@API@Schema@protocol@v8_inspector@@QEAAAEAV01234@AEBV01234@@Z
	 

	 Name : ??4EmbedderGraph@v8@@QEAAAEAV01@AEBV01@@Z
	 

	 Name : ??4EmbedderRootsHandler@v8@@QEAAAEAV01@AEBV01@@Z
	 

	 Name : ??4EnsureGCInfoIndexTrait@internal@cppgc@@QEAAAEAU012@$$QEAU012@@Z
	 

	 Name : ??4EnsureGCInfoIndexTrait@internal@cppgc@@QEAAAEAU012@AEBU012@@Z
	 

	 Name : ??4EvaluateResult@V8InspectorSession@v8_inspector@@QEAAAEAU012@$$QEAU012@@Z
	 

	 Name : ??4EvaluateResult@V8InspectorSession@v8_inspector@@QEAAAEAU012@AEBU012@@Z
	 

	 Name : ??4Exception@v8@@QEAAAEAV01@$$QEAV01@@Z
	 

	 Name : ??4Exception@v8@@QEAAAEAV01@AEBV01@@Z
	 

	 Name : ??4Exported@protocol@v8_inspector@@QEAAAEAV012@AEBV012@@Z
	 

	 Name : ??4External@v8@@QEAAAEAV01@$$QEAV01@@Z
	 

	 Name : ??4External@v8@@QEAAAEAV01@AEBV01@@Z
	 

	 Name : ??4ExternalResourceVisitor@v8@@QEAAAEAV01@AEBV01@@Z
	 

	 Name : ??4ExternalSourceStream@ScriptCompiler@v8@@QEAAAEAV012@AEBV012@@Z
	 

	 Name : ??4FixedArray@v8@@QEAAAEAV01@$$QEAV01@@Z
	 

	 Name : ??4FixedArray@v8@@QEAAAEAV01@AEBV01@@Z
	 

	 Name : ??4Float16Array@v8@@QEAAAEAV01@$$QEAV01@@Z
	 

	 Name : ??4Float16Array@v8@@QEAAAEAV01@AEBV01@@Z
	 

	 Name : ??4Float32Array@v8@@QEAAAEAV01@$$QEAV01@@Z
	 

	 Name : ??4Float32Array@v8@@QEAAAEAV01@AEBV01@@Z
	 

	 Name : ??4Float64Array@v8@@QEAAAEAV01@$$QEAV01@@Z
	 

	 Name : ??4Float64Array@v8@@QEAAAEAV01@AEBV01@@Z
	 

	 Name : ??4Function@v8@@QEAAAEAV01@$$QEAV01@@Z
	 

	 Name : ??4Function@v8@@QEAAAEAV01@AEBV01@@Z
	 

	 Name : ??4FunctionTemplate@v8@@QEAAAEAV01@$$QEAV01@@Z
	 

	 Name : ??4FunctionTemplate@v8@@QEAAAEAV01@AEBV01@@Z
	 

	 Name : ??4Heap@cppgc@@QEAAAEAV01@AEBV01@@Z
	 

	 Name : ??4HeapCodeStatistics@v8@@QEAAAEAV01@$$QEAV01@@Z
	 

	 Name : ??4HeapCodeStatistics@v8@@QEAAAEAV01@AEBV01@@Z
	 

	 Name : ??4HeapGraphEdge@v8@@QEAAAEAV01@$$QEAV01@@Z
	 

	 Name : ??4HeapGraphEdge@v8@@QEAAAEAV01@AEBV01@@Z
	 

	 Name : ??4HeapGraphNode@v8@@QEAAAEAV01@$$QEAV01@@Z
	 

	 Name : ??4HeapGraphNode@v8@@QEAAAEAV01@AEBV01@@Z
	 

	 Name : ??4HeapObjectStatistics@v8@@QEAAAEAV01@$$QEAV01@@Z
	 

	 Name : ??4HeapObjectStatistics@v8@@QEAAAEAV01@AEBV01@@Z
	 

	 Name : ??4HeapSnapshot@v8@@QEAAAEAV01@$$QEAV01@@Z
	 

	 Name : ??4HeapSnapshot@v8@@QEAAAEAV01@AEBV01@@Z
	 

	 Name : ??4HeapSpaceStatistics@v8@@QEAAAEAV01@$$QEAV01@@Z
	 

	 Name : ??4HeapSpaceStatistics@v8@@QEAAAEAV01@AEBV01@@Z
	 

	 Name : ??4HeapState@subtle@cppgc@@QEAAAEAV012@$$QEAV012@@Z
	 

	 Name : ??4HeapState@subtle@cppgc@@QEAAAEAV012@AEBV012@@Z
	 

	 Name : ??4HeapStatistics@v8@@QEAAAEAV01@$$QEAV01@@Z
	 

	 Name : ??4HeapStatistics@v8@@QEAAAEAV01@AEBV01@@Z
	 

	 Name : ??4InitializationResult@node@@QEAAAEAV01@AEBV01@@Z
	 

	 Name : ??4Inspectable@V8InspectorSession@v8_inspector@@QEAAAEAV012@AEBV012@@Z
	 

	 Name : ??4Int16Array@v8@@QEAAAEAV01@$$QEAV01@@Z
	 

	 Name : ??4Int16Array@v8@@QEAAAEAV01@AEBV01@@Z
	 

	 Name : ??4Int32@v8@@QEAAAEAV01@$$QEAV01@@Z
	 

	 Name : ??4Int32@v8@@QEAAAEAV01@AEBV01@@Z
	 

	 Name : ??4Int32Array@v8@@QEAAAEAV01@$$QEAV01@@Z
	 

	 Name : ??4Int32Array@v8@@QEAAAEAV01@AEBV01@@Z
	 

	 Name : ??4Int8Array@v8@@QEAAAEAV01@$$QEAV01@@Z
	 

	 Name : ??4Int8Array@v8@@QEAAAEAV01@AEBV01@@Z
	 

	 Name : ??4Integer@v8@@QEAAAEAV01@$$QEAV01@@Z
	 

	 Name : ??4Integer@v8@@QEAAAEAV01@AEBV01@@Z
	 

	 Name : ??4IsolatePlatformDelegate@node@@QEAAAEAV01@$$QEAV01@@Z
	 

	 Name : ??4IsolatePlatformDelegate@node@@QEAAAEAV01@AEBV01@@Z
	 

	 Name : ??4JSON@v8@@QEAAAEAV01@$$QEAV01@@Z
	 

	 Name : ??4JSON@v8@@QEAAAEAV01@AEBV01@@Z
	 

	 Name : ??4LivenessBroker@cppgc@@QEAAAEAV01@$$QEAV01@@Z
	 

	 Name : ??4LivenessBroker@cppgc@@QEAAAEAV01@AEBV01@@Z
	 

	 Name : ??4Location@v8@@QEAAAEAV01@$$QEAV01@@Z
	 

	 Name : ??4Location@v8@@QEAAAEAV01@AEBV01@@Z
	 

	 Name : ??4LongTaskStats@metrics@v8@@QEAAAEAU012@$$QEAU012@@Z
	 

	 Name : ??4LongTaskStats@metrics@v8@@QEAAAEAU012@AEBU012@@Z
	 

	 Name : ??4Map@v8@@QEAAAEAV01@$$QEAV01@@Z
	 

	 Name : ??4Map@v8@@QEAAAEAV01@AEBV01@@Z
	 

	 Name : ??4MeasureMemoryDelegate@v8@@QEAAAEAV01@AEBV01@@Z
	 

	 Name : ??4Message@v8@@QEAAAEAV01@$$QEAV01@@Z
	 

	 Name : ??4Message@v8@@QEAAAEAV01@AEBV01@@Z
	 

	 Name : ??4Module@v8@@QEAAAEAV01@$$QEAV01@@Z
	 

	 Name : ??4Module@v8@@QEAAAEAV01@AEBV01@@Z
	 

	 Name : ??4ModuleRequest@v8@@QEAAAEAV01@$$QEAV01@@Z
	 

	 Name : ??4ModuleRequest@v8@@QEAAAEAV01@AEBV01@@Z
	 

	 Name : ??4MultiIsolatePlatform@node@@QEAAAEAV01@AEBV01@@Z
	 

	 Name : ??4Name@v8@@QEAAAEAV01@$$QEAV01@@Z
	 

	 Name : ??4Name@v8@@QEAAAEAV01@AEBV01@@Z
	 

	 Name : ??4NameProvider@cppgc@@QEAAAEAV01@AEBV01@@Z
	 

	 Name : ??4NameTraitBase@internal@cppgc@@QEAAAEAV012@$$QEAV012@@Z
	 

	 Name : ??4NameTraitBase@internal@cppgc@@QEAAAEAV012@AEBV012@@Z
	 

	 Name : ??4Number@v8@@QEAAAEAV01@$$QEAV01@@Z
	 

	 Name : ??4Number@v8@@QEAAAEAV01@AEBV01@@Z
	 

	 Name : ??4NumberObject@v8@@QEAAAEAV01@$$QEAV01@@Z
	 

	 Name : ??4NumberObject@v8@@QEAAAEAV01@AEBV01@@Z
	 

	 Name : ??4Numeric@v8@@QEAAAEAV01@$$QEAV01@@Z
	 

	 Name : ??4Numeric@v8@@QEAAAEAV01@AEBV01@@Z
	 

	 Name : ??4Object@v8@@QEAAAEAV01@$$QEAV01@@Z
	 

	 Name : ??4Object@v8@@QEAAAEAV01@AEBV01@@Z
	 

	 Name : ??4ObjectTemplate@v8@@QEAAAEAV01@$$QEAV01@@Z
	 

	 Name : ??4ObjectTemplate@v8@@QEAAAEAV01@AEBV01@@Z
	 

	 Name : ??4OutputStream@v8@@QEAAAEAV01@AEBV01@@Z
	 

	 Name : ??4PersistentHandleVisitor@v8@@QEAAAEAV01@AEBV01@@Z
	 

	 Name : ??4PersistentRegionLock@internal@cppgc@@QEAAAEAV012@AEBV012@@Z
	 

	 Name : ??4Platform@cppgc@@QEAAAEAV01@AEBV01@@Z
	 

	 Name : ??4PrefinalizerRegistration@internal@cppgc@@QEAAAEAV012@$$QEAV012@@Z
	 

	 Name : ??4PrefinalizerRegistration@internal@cppgc@@QEAAAEAV012@AEBV012@@Z
	 

	 Name : ??4Primitive@v8@@QEAAAEAV01@$$QEAV01@@Z
	 

	 Name : ??4Primitive@v8@@QEAAAEAV01@AEBV01@@Z
	 

	 Name : ??4PrimitiveArray@v8@@QEAAAEAV01@$$QEAV01@@Z
	 

	 Name : ??4PrimitiveArray@v8@@QEAAAEAV01@AEBV01@@Z
	 

	 Name : ??4Private@v8@@QEAAAEAV01@$$QEAV01@@Z
	 

	 Name : ??4Private@v8@@QEAAAEAV01@AEBV01@@Z
	 

	 Name : ??4ProcessHeapStatistics@cppgc@@QEAAAEAV01@$$QEAV01@@Z
	 

	 Name : ??4ProcessHeapStatistics@cppgc@@QEAAAEAV01@AEBV01@@Z
	 

	 Name : ??4Promise@v8@@QEAAAEAV01@$$QEAV01@@Z
	 

	 Name : ??4Promise@v8@@QEAAAEAV01@AEBV01@@Z
	 

	 Name : ??4Proxy@v8@@QEAAAEAV01@$$QEAV01@@Z
	 

	 Name : ??4Proxy@v8@@QEAAAEAV01@AEBV01@@Z
	 

	 Name : ??4Recorder@metrics@v8@@QEAAAEAV012@AEBV012@@Z
	 

	 Name : ??4RegExp@v8@@QEAAAEAV01@$$QEAV01@@Z
	 

	 Name : ??4RegExp@v8@@QEAAAEAV01@AEBV01@@Z
	 

	 Name : ??4RegisterState@v8@@QEAAAEAU01@AEBU01@@Z
	 

	 Name : ??4RemoteObject@API@Runtime@protocol@v8_inspector@@QEAAAEAV01234@$$QEAV01234@@Z
	 

	 Name : ??4RemoteObject@API@Runtime@protocol@v8_inspector@@QEAAAEAV01234@AEBV01234@@Z
	 

	 Name : ??4Resolver@Promise@v8@@QEAAAEAV012@$$QEAV012@@Z
	 

	 Name : ??4Resolver@Promise@v8@@QEAAAEAV012@AEBV012@@Z
	 

	 Name : ??4ResourceConstraints@v8@@QEAAAEAV01@$$QEAV01@@Z
	 

	 Name : ??4ResourceConstraints@v8@@QEAAAEAV01@AEBV01@@Z
	 

	 Name : ??4RootVisitor@internal@cppgc@@QEAAAEAV012@AEBV012@@Z
	 

	 Name : ??4SameThreadEnabledCheckingPolicyBase@internal@cppgc@@QEAAAEAV012@$$QEAV012@@Z
	 

	 Name : ??4SameThreadEnabledCheckingPolicyBase@internal@cppgc@@QEAAAEAV012@AEBV012@@Z
	 

	 Name : ??4Script@v8@@QEAAAEAV01@$$QEAV01@@Z
	 

	 Name : ??4Script@v8@@QEAAAEAV01@AEBV01@@Z
	 

	 Name : ??4ScriptCompiler@v8@@QEAAAEAV01@$$QEAV01@@Z
	 

	 Name : ??4ScriptCompiler@v8@@QEAAAEAV01@AEBV01@@Z
	 

	 Name : ??4ScriptOrModule@v8@@QEAAAEAV01@$$QEAV01@@Z
	 

	 Name : ??4ScriptOrModule@v8@@QEAAAEAV01@AEBV01@@Z
	 

	 Name : ??4ScriptStreamingTask@ScriptCompiler@v8@@QEAAAEAV012@$$QEAV012@@Z
	 

	 Name : ??4ScriptStreamingTask@ScriptCompiler@v8@@QEAAAEAV012@AEBV012@@Z
	 

	 Name : ??4SearchMatch@API@Debugger@protocol@v8_inspector@@QEAAAEAV01234@$$QEAV01234@@Z
	 

	 Name : ??4SearchMatch@API@Debugger@protocol@v8_inspector@@QEAAAEAV01234@AEBV01234@@Z
	 

	 Name : ??4Set@v8@@QEAAAEAV01@$$QEAV01@@Z
	 

	 Name : ??4Set@v8@@QEAAAEAV01@AEBV01@@Z
	 

	 Name : ??4SharedArrayBuffer@v8@@QEAAAEAV01@$$QEAV01@@Z
	 

	 Name : ??4SharedArrayBuffer@v8@@QEAAAEAV01@AEBV01@@Z
	 

	 Name : ??4SharedMemoryStatistics@v8@@QEAAAEAV01@$$QEAV01@@Z
	 

	 Name : ??4SharedMemoryStatistics@v8@@QEAAAEAV01@AEBV01@@Z
	 

	 Name : ??4SharedValueConveyor@v8@@QEAAAEAV01@$$QEAV01@@Z
	 

	 Name : ??4Signature@v8@@QEAAAEAV01@$$QEAV01@@Z
	 

	 Name : ??4Signature@v8@@QEAAAEAV01@AEBV01@@Z
	 

	 Name : ??4SourceLocation@v8@@QEAAAEAV01@$$QEAV01@@Z
	 

	 Name : ??4SourceLocation@v8@@QEAAAEAV01@AEBV01@@Z
	 

	 Name : ??4StackFrame@v8@@QEAAAEAV01@$$QEAV01@@Z
	 

	 Name : ??4StackFrame@v8@@QEAAAEAV01@AEBV01@@Z
	 

	 Name : ??4StackTrace@API@Runtime@protocol@v8_inspector@@QEAAAEAV01234@$$QEAV01234@@Z
	 

	 Name : ??4StackTrace@API@Runtime@protocol@v8_inspector@@QEAAAEAV01234@AEBV01234@@Z
	 

	 Name : ??4StackTrace@v8@@QEAAAEAV01@$$QEAV01@@Z
	 

	 Name : ??4StackTrace@v8@@QEAAAEAV01@AEBV01@@Z
	 

	 Name : ??4StackTraceId@API@Runtime@protocol@v8_inspector@@QEAAAEAV01234@$$QEAV01234@@Z
	 

	 Name : ??4StackTraceId@API@Runtime@protocol@v8_inspector@@QEAAAEAV01234@AEBV01234@@Z
	 

	 Name : ??4StartupData@v8@@QEAAAEAV01@$$QEAV01@@Z
	 

	 Name : ??4StartupData@v8@@QEAAAEAV01@AEBV01@@Z
	 

	 Name : ??4String@v8@@QEAAAEAV01@$$QEAV01@@Z
	 

	 Name : ??4String@v8@@QEAAAEAV01@AEBV01@@Z
	 

	 Name : ??4StringBuffer@v8_inspector@@QEAAAEAV01@AEBV01@@Z
	 

	 Name : ??4StringObject@v8@@QEAAAEAV01@$$QEAV01@@Z
	 

	 Name : ??4StringObject@v8@@QEAAAEAV01@AEBV01@@Z
	 

	 Name : ??4StringView@v8_inspector@@QEAAAEAV01@$$QEAV01@@Z
	 

	 Name : ??4StringView@v8_inspector@@QEAAAEAV01@AEBV01@@Z
	 

	 Name : ??4StrongRootAllocatorBase@internal@v8@@QEAAAEAV012@$$QEAV012@@Z
	 

	 Name : ??4StrongRootAllocatorBase@internal@v8@@QEAAAEAV012@AEBV012@@Z
	 

	 Name : ??4SuspendTagCheckingScope@base@heap@@QEAAAEAV012@AEBV012@@Z
	 

	 Name : ??4Symbol@v8@@QEAAAEAV01@$$QEAV01@@Z
	 

	 Name : ??4Symbol@v8@@QEAAAEAV01@AEBV01@@Z
	 

	 Name : ??4SymbolObject@v8@@QEAAAEAV01@$$QEAV01@@Z
	 

	 Name : ??4SymbolObject@v8@@QEAAAEAV01@AEBV01@@Z
	 

	 Name : ??4Template@v8@@QEAAAEAV01@$$QEAV01@@Z
	 

	 Name : ??4Template@v8@@QEAAAEAV01@AEBV01@@Z
	 

	 Name : ??4ThreadIsolation@internal@v8@@QEAAAEAV012@$$QEAV012@@Z
	 

	 Name : ??4ThreadIsolation@internal@v8@@QEAAAEAV012@AEBV012@@Z
	 

	 Name : ??4TickSample@internal@v8@@QEAAAEAU012@$$QEAU012@@Z
	 

	 Name : ??4TickSample@internal@v8@@QEAAAEAU012@AEBU012@@Z
	 

	 Name : ??4TraceTraitFromInnerAddressImpl@internal@cppgc@@QEAAAEAU012@$$QEAU012@@Z
	 

	 Name : ??4TraceTraitFromInnerAddressImpl@internal@cppgc@@QEAAAEAU012@AEBU012@@Z
	 

	 Name : ??4TypecheckWitness@v8@@QEAAAEAV01@$$QEAV01@@Z
	 

	 Name : ??4TypecheckWitness@v8@@QEAAAEAV01@AEBV01@@Z
	 

	 Name : ??4TypedArray@v8@@QEAAAEAV01@$$QEAV01@@Z
	 

	 Name : ??4TypedArray@v8@@QEAAAEAV01@AEBV01@@Z
	 

	 Name : ??4Uint16Array@v8@@QEAAAEAV01@$$QEAV01@@Z
	 

	 Name : ??4Uint16Array@v8@@QEAAAEAV01@AEBV01@@Z
	 

	 Name : ??4Uint32@v8@@QEAAAEAV01@$$QEAV01@@Z
	 

	 Name : ??4Uint32@v8@@QEAAAEAV01@AEBV01@@Z
	 

	 Name : ??4Uint32Array@v8@@QEAAAEAV01@$$QEAV01@@Z
	 

	 Name : ??4Uint32Array@v8@@QEAAAEAV01@AEBV01@@Z
	 

	 Name : ??4Uint8Array@v8@@QEAAAEAV01@$$QEAV01@@Z
	 

	 Name : ??4Uint8Array@v8@@QEAAAEAV01@AEBV01@@Z
	 

	 Name : ??4Uint8ClampedArray@v8@@QEAAAEAV01@$$QEAV01@@Z
	 

	 Name : ??4Uint8ClampedArray@v8@@QEAAAEAV01@AEBV01@@Z
	 

	 Name : ??4UnboundModuleScript@v8@@QEAAAEAV01@$$QEAV01@@Z
	 

	 Name : ??4UnboundModuleScript@v8@@QEAAAEAV01@AEBV01@@Z
	 

	 Name : ??4UnboundScript@v8@@QEAAAEAV01@$$QEAV01@@Z
	 

	 Name : ??4UnboundScript@v8@@QEAAAEAV01@AEBV01@@Z
	 

	 Name : ??4Unlocker@v8@@QEAAAEAV01@AEBV01@@Z
	 

	 Name : ??4Unwinder@v8@@QEAAAEAV01@$$QEAV01@@Z
	 

	 Name : ??4Unwinder@v8@@QEAAAEAV01@AEBV01@@Z
	 

	 Name : ??4V8@v8@@QEAAAEAV01@$$QEAV01@@Z
	 

	 Name : ??4V8@v8@@QEAAAEAV01@AEBV01@@Z
	 

	 Name : ??4V8DebuggerId@v8_inspector@@QEAAAEAV01@AEBV01@@Z
	 

	 Name : ??4V8Inspector@v8_inspector@@QEAAAEAV01@AEBV01@@Z
	 

	 Name : ??4V8InspectorClient@v8_inspector@@QEAAAEAV01@AEBV01@@Z
	 

	 Name : ??4V8InspectorSession@v8_inspector@@QEAAAEAV01@AEBV01@@Z
	 

	 Name : ??4V8StackFrame@v8_inspector@@QEAAAEAU01@$$QEAU01@@Z
	 

	 Name : ??4V8StackFrame@v8_inspector@@QEAAAEAU01@AEBU01@@Z
	 

	 Name : ??4V8StackTrace@v8_inspector@@QEAAAEAV01@AEBV01@@Z
	 

	 Name : ??4V8StackTraceId@v8_inspector@@QEAAAEAU01@$$QEAU01@@Z
	 

	 Name : ??4V8StackTraceId@v8_inspector@@QEAAAEAU01@AEBU01@@Z
	 

	 Name : ??4Value@v8@@QEAAAEAV01@$$QEAV01@@Z
	 

	 Name : ??4Value@v8@@QEAAAEAV01@AEBV01@@Z
	 

	 Name : ??4Version@internal@v8@@QEAAAEAV012@$$QEAV012@@Z
	 

	 Name : ??4Version@internal@v8@@QEAAAEAV012@AEBV012@@Z
	 

	 Name : ??4Visitor@cppgc@@QEAAAEAV01@AEBV01@@Z
	 

	 Name : ??4WasmMemoryObject@v8@@QEAAAEAV01@$$QEAV01@@Z
	 

	 Name : ??4WasmMemoryObject@v8@@QEAAAEAV01@AEBV01@@Z
	 

	 Name : ??4WasmModuleObject@v8@@QEAAAEAV01@$$QEAV01@@Z
	 

	 Name : ??4WasmModuleObject@v8@@QEAAAEAV01@AEBV01@@Z
	 

	 Name : ??4WriteBarrier@internal@cppgc@@QEAAAEAV012@$$QEAV012@@Z
	 

	 Name : ??4WriteBarrier@internal@cppgc@@QEAAAEAV012@AEBV012@@Z
	 

	 Name : ??4WriteBarrierTypeForCagedHeapPolicy@internal@cppgc@@QEAAAEAV012@$$QEAV012@@Z
	 

	 Name : ??4WriteBarrierTypeForCagedHeapPolicy@internal@cppgc@@QEAAAEAV012@AEBV012@@Z
	 

	 Name : ??4WriteBarrierTypeForNonCagedHeapPolicy@internal@cppgc@@QEAAAEAV012@$$QEAV012@@Z
	 

	 Name : ??4WriteBarrierTypeForNonCagedHeapPolicy@internal@cppgc@@QEAAAEAV012@AEBV012@@Z
	 

	 Name : ??A?$MemorySpan@$$CBV?$Local@VContext@v8@@@v8@@@v8@@QEBAAEBV?$Local@VContext@v8@@@1@_K@Z
	 

	 Name : ??A?$MemorySpan@$$CBV?$Local@VString@v8@@@v8@@@v8@@QEBAAEBV?$Local@VString@v8@@@1@_K@Z
	 

	 Name : ??A?$MemorySpan@$$CB_K@v8@@QEBAAEB_K_K@Z
	 

	 Name : ??A?$MemorySpan@V?$Handle@VMap@internal@v8@@@internal@v8@@@v8@@QEBAAEAV?$Handle@VMap@internal@v8@@@internal@1@_K@Z
	 

	 Name : ??A?$MemorySpan@V?$MaybeLocal@VValue@v8@@@v8@@@v8@@QEBAAEAV?$MaybeLocal@VValue@v8@@@1@_K@Z
	 

	 Name : ??A?$MemorySpan@_K@v8@@QEBAAEA_K_K@Z
	 

	 Name : ??A?$vector@UCpuProfileDeoptFrame@v8@@V?$allocator@UCpuProfileDeoptFrame@v8@@@__Cr@std@@@__Cr@std@@QEAAAEAUCpuProfileDeoptFrame@v8@@_K@Z
	 

	 Name : ??A?$vector@UCpuProfileDeoptFrame@v8@@V?$allocator@UCpuProfileDeoptFrame@v8@@@__Cr@std@@@__Cr@std@@QEBAAEBUCpuProfileDeoptFrame@v8@@_K@Z
	 

	 Name : ??A?$vector@UCpuProfileDeoptInfo@v8@@V?$allocator@UCpuProfileDeoptInfo@v8@@@__Cr@std@@@__Cr@std@@QEAAAEAUCpuProfileDeoptInfo@v8@@_K@Z
	 

	 Name : ??A?$vector@UCpuProfileDeoptInfo@v8@@V?$allocator@UCpuProfileDeoptInfo@v8@@@__Cr@std@@@__Cr@std@@QEBAAEBUCpuProfileDeoptInfo@v8@@_K@Z
	 

	 Name : ??DUtf8Value@String@v8@@QEAAPEADXZ
	 

	 Name : ??DUtf8Value@String@v8@@QEBAPEBDXZ
	 

	 Name : ??DValue@String@v8@@QEAAPEAGXZ
	 

	 Name : ??DValue@String@v8@@QEBAPEBGXZ
	 

	 Name : ??RDeleteACHHandle@node@@QEBAXPEAUACHHandle@1@@Z
	 

	 Name : ??_7ActivityControl@v8@@6B@
	 

	 Name : ??_7AllocationProfile@v8@@6B@
	 

	 Name : ??_7Allocator@ArrayBuffer@v8@@6B@
	 

	 Name : ??_7ArrayBufferAllocator@node@@6B@
	 

	 Name : ??_7AsyncResource@node@@6B@
	 

	 Name : ??_7Channel@V8Inspector@v8_inspector@@6B@
	 

	 Name : ??_7CodeEventHandler@v8@@6B@
	 

	 Name : ??_7CppHeap@v8@@6B@
	 

	 Name : ??_7Delegate@ValueDeserializer@v8@@6B@
	 

	 Name : ??_7Delegate@ValueSerializer@v8@@6B@
	 

	 Name : ??_7DiscardedSamplesDelegate@v8@@6B@
	 

	 Name : ??_7Domain@API@Schema@protocol@v8_inspector@@6B@
	 

	 Name : ??_7EmbedderGraph@v8@@6B@
	 

	 Name : ??_7EmbedderRootsHandler@v8@@6B@
	 

	 Name : ??_7Exported@protocol@v8_inspector@@6B@
	 

	 Name : ??_7Extension@v8@@6B@
	 

	 Name : ??_7ExternalOneByteStringResource@String@v8@@6B@
	 

	 Name : ??_7ExternalResourceVisitor@v8@@6B@
	 

	 Name : ??_7ExternalSourceStream@ScriptCompiler@v8@@6B@
	 

	 Name : ??_7ExternalStringResource@String@v8@@6B@
	 

	 Name : ??_7ExternalStringResourceBase@String@v8@@6B@
	 

	 Name : ??_7Heap@cppgc@@6B@
	 

	 Name : ??_7InitializationResult@node@@6B@
	 

	 Name : ??_7Inspectable@V8InspectorSession@v8_inspector@@6B@
	 

	 Name : ??_7IsolatePlatformDelegate@node@@6B@
	 

	 Name : ??_7MeasureMemoryDelegate@v8@@6B@
	 

	 Name : ??_7MicrotaskQueue@v8@@6B@
	 

	 Name : ??_7ModuleWrap@loader@node@@6B@
	 

	 Name : ??_7MultiIsolatePlatform@node@@6B@
	 

	 Name : ??_7NameProvider@cppgc@@6B@
	 

	 Name : ??_7OutputStream@v8@@6B@
	 

	 Name : ??_7PersistentHandleVisitor@v8@@6B@
	 

	 Name : ??_7Platform@cppgc@@6B@
	 

	 Name : ??_7Recorder@metrics@v8@@6B@
	 

	 Name : ??_7RemoteObject@API@Runtime@protocol@v8_inspector@@6B@
	 

	 Name : ??_7RootVisitor@internal@cppgc@@6B@
	 

	 Name : ??_7SearchMatch@API@Debugger@protocol@v8_inspector@@6B@
	 

	 Name : ??_7StackTrace@API@Runtime@protocol@v8_inspector@@6B@
	 

	 Name : ??_7StackTraceId@API@Runtime@protocol@v8_inspector@@6B@
	 

	 Name : ??_7StringBuffer@v8_inspector@@6B@
	 

	 Name : ??_7V8Inspector@v8_inspector@@6B@
	 

	 Name : ??_7V8InspectorClient@v8_inspector@@6B@
	 

	 Name : ??_7V8InspectorSession@v8_inspector@@6B@
	 

	 Name : ??_7V8StackTrace@v8_inspector@@6B@
	 

	 Name : ??_7Visitor@cppgc@@6B@
	 

	 Name : ??_FCpuProfilingOptions@v8@@QEAAXXZ
	 

	 Name : ??_FSnapshotCreator@v8@@QEAAXXZ
	 

	 Name : ??_UGlobalGCInfoTable@internal@cppgc@@CAPEAX_K@Z
	 

	 Name : ??_UHandleScope@v8@@CAPEAX_K@Z
	 

	 Name : ??_UTryCatch@v8@@CAPEAX_K@Z
	 

	 Name : ??_VGlobalGCInfoTable@internal@cppgc@@CAXPEAX_K@Z
	 

	 Name : ??_VHandleScope@v8@@CAXPEAX_K@Z
	 

	 Name : ??_VTryCatch@v8@@CAXPEAX_K@Z
	 

	 Name : ?Abort@WasmStreaming@v8@@QEAAXV?$MaybeLocal@VValue@v8@@@2@@Z
	 

	 Name : ?Add@Set@v8@@QEAA?AV?$MaybeLocal@VSet@v8@@@2@V?$Local@VContext@v8@@@2@V?$Local@VValue@v8@@@2@@Z
	 

	 Name : ?AddBeforeCallEnteredCallback@Isolate@v8@@QEAAXP6AXPEAV12@@Z@Z
	 

	 Name : ?AddBuildEmbedderGraphCallback@HeapProfiler@v8@@QEAAXP6AXPEAVIsolate@2@PEAVEmbedderGraph@2@PEAX@Z2@Z
	 

	 Name : ?AddCallCompletedCallback@Isolate@v8@@QEAAXP6AXPEAV12@@Z@Z
	 

	 Name : ?AddContext@SnapshotCreator@v8@@QEAA_KV?$Local@VContext@v8@@@2@USerializeInternalFieldsCallback@2@USerializeContextDataCallback@2@USerializeAPIWrapperCallback@2@@Z
	 

	 Name : ?AddData@SnapshotCreator@v8@@AEAA_KV?$Local@VContext@v8@@@2@_K@Z
	 

	 Name : ?AddData@SnapshotCreator@v8@@AEAA_K_K@Z
	 

	 Name : ?AddEnvironmentCleanupHook@node@@YAXPEAVIsolate@v8@@P6AXPEAX@Z1@Z
	 

	 Name : ?AddEnvironmentCleanupHookInternal@node@@YAPEAUACHHandle@1@PEAVIsolate@v8@@P6AXPEAXP6AX1@Z1@Z1@Z
	 

	 Name : ?AddGCEpilogueCallback@Isolate@v8@@QEAAXP6AXPEAV12@W4GCType@2@W4GCCallbackFlags@2@@Z1@Z
	 

	 Name : ?AddGCEpilogueCallback@Isolate@v8@@QEAAXP6AXPEAV12@W4GCType@2@W4GCCallbackFlags@2@PEAX@Z31@Z
	 

	 Name : ?AddGCPrologueCallback@Isolate@v8@@QEAAXP6AXPEAV12@W4GCType@2@W4GCCallbackFlags@2@@Z1@Z
	 

	 Name : ?AddGCPrologueCallback@Isolate@v8@@QEAAXP6AXPEAV12@W4GCType@2@W4GCCallbackFlags@2@PEAX@Z31@Z
	 

	 Name : ?AddLinkedBinding@node@@YAXPEAVEnvironment@1@AEBUnapi_module@@@Z
	 

	 Name : ?AddLinkedBinding@node@@YAXPEAVEnvironment@1@AEBUnode_module@1@@Z
	 

	 Name : ?AddLinkedBinding@node@@YAXPEAVEnvironment@1@PEBDP6APEAUnapi_value__@@PEAUnapi_env__@@PEAU3@@ZH@Z
	 

	 Name : ?AddLinkedBinding@node@@YAXPEAVEnvironment@1@PEBDP6AXV?$Local@VObject@v8@@@v8@@V?$Local@VValue@v8@@@4@V?$Local@VContext@v8@@@4@PEAX@Z5@Z
	 

	 Name : ?AddMainThreadEvent@Recorder@metrics@v8@@UEAAXAEBU?$GarbageCollectionBatchedEvents@UGarbageCollectionFullMainThreadIncrementalMark@metrics@v8@@@23@VContextId@123@@Z
	 

	 Name : ?AddMainThreadEvent@Recorder@metrics@v8@@UEAAXAEBU?$GarbageCollectionBatchedEvents@UGarbageCollectionFullMainThreadIncrementalSweep@metrics@v8@@@23@VContextId@123@@Z
	 

	 Name : ?AddMainThreadEvent@Recorder@metrics@v8@@UEAAXAEBUGarbageCollectionFullCycle@23@VContextId@123@@Z
	 

	 Name : ?AddMainThreadEvent@Recorder@metrics@v8@@UEAAXAEBUGarbageCollectionFullMainThreadIncrementalMark@23@VContextId@123@@Z
	 

	 Name : ?AddMainThreadEvent@Recorder@metrics@v8@@UEAAXAEBUGarbageCollectionFullMainThreadIncrementalSweep@23@VContextId@123@@Z
	 

	 Name : ?AddMainThreadEvent@Recorder@metrics@v8@@UEAAXAEBUGarbageCollectionYoungCycle@23@VContextId@123@@Z
	 

	 Name : ?AddMainThreadEvent@Recorder@metrics@v8@@UEAAXAEBUWasmModuleCompiled@23@VContextId@123@@Z
	 

	 Name : ?AddMainThreadEvent@Recorder@metrics@v8@@UEAAXAEBUWasmModuleDecoded@23@VContextId@123@@Z
	 

	 Name : ?AddMainThreadEvent@Recorder@metrics@v8@@UEAAXAEBUWasmModuleInstantiated@23@VContextId@123@@Z
	 

	 Name : ?AddMessageListener@Isolate@v8@@QEAA_NP6AXV?$Local@VMessage@v8@@@2@V?$Local@VValue@v8@@@2@@Z1@Z
	 

	 Name : ?AddMessageListenerWithErrorLevel@Isolate@v8@@QEAA_NP6AXV?$Local@VMessage@v8@@@2@V?$Local@VValue@v8@@@2@@ZH1@Z
	 

	 Name : ?AddMicrotasksCompletedCallback@Isolate@v8@@QEAAXP6AXPEAV12@PEAX@Z1@Z
	 

	 Name : ?AddNearHeapLimitCallback@Isolate@v8@@QEAAXP6A_KPEAX_K1@Z0@Z
	 

	 Name : ?AddThreadSafeEvent@Recorder@metrics@v8@@UEAAXAEBUWasmModulesPerIsolate@23@@Z
	 

	 Name : ?Address@JitPageReference@ThreadIsolation@internal@v8@@QEBA_KXZ
	 

	 Name : ?AdjustAmountOfExternalAllocatedMemory@Isolate@v8@@QEAA_J_J@Z
	 

	 Name : ?AdoptSharedValueConveyor@Delegate@ValueSerializer@v8@@UEAA_NPEAVIsolate@3@$$QEAVSharedValueConveyor@3@@Z
	 

	 Name : ?Allocate@Isolate@v8@@SAPEAV12@XZ
	 

	 Name : ?Allocate@MakeGarbageCollectedTraitInternal@internal@cppgc@@CAPEAXAEAVAllocationHandle@3@_KG@Z
	 

	 Name : ?Allocate@MakeGarbageCollectedTraitInternal@internal@cppgc@@CAPEAXAEAVAllocationHandle@3@_KGUCustomSpaceIndex@3@@Z
	 

	 Name : ?Allocate@MakeGarbageCollectedTraitInternal@internal@cppgc@@CAPEAXAEAVAllocationHandle@3@_KW4AlignVal@23@G@Z
	 

	 Name : ?Allocate@MakeGarbageCollectedTraitInternal@internal@cppgc@@CAPEAXAEAVAllocationHandle@3@_KW4AlignVal@23@GUCustomSpaceIndex@3@@Z
	 

	 Name : ?AllocateEnvironmentThreadId@node@@YA?AUThreadId@1@XZ
	 

	 Name : ?AllocateNode@CrossThreadPersistentRegion@internal@cppgc@@QEAAPEAVPersistentNode@23@PEAXP6AXAEAVRootVisitor@23@PEBX@Z@Z
	 

	 Name : ?AllocateNode@PersistentRegion@internal@cppgc@@QEAAPEAVPersistentNode@23@PEAXP6AXAEAVRootVisitor@23@PEBX@Z@Z
	 

	 Name : ?AllocationContaining@JitPageReference@ThreadIsolation@internal@v8@@QEAA?AU?$pair@_KAEAVJitAllocation@ThreadIsolation@internal@v8@@@__Cr@std@@_K@Z
	 

	 Name : ?AllowCodeGenerationFromStrings@Context@v8@@QEAAX_N@Z
	 

	 Name : ?AllowWasmCodeGenerationCallback@node@@YA_NV?$Local@VContext@v8@@@v8@@V?$Local@VString@v8@@@3@@Z
	 

	 Name : ?Ambiguous@ReasonEnum@Paused@API@Debugger@protocol@v8_inspector@@3PEBDEB
	 

	 Name : ?AnnotateStrongRetainer@api_internal@v8@@YAXPEA_KPEBD@Z
	 

	 Name : ?AreWithinCage@CagedHeapBase@internal@cppgc@@SA_NPEBX0@Z
	 

	 Name : ?ArgumentCount@CFunction@v8@@QEBAIXZ
	 

	 Name : ?ArgumentCount@CFunctionInfo@v8@@QEBAIXZ
	 

	 Name : ?ArgumentInfo@CFunction@v8@@QEBAAEBVCTypeInfo@2@I@Z
	 

	 Name : ?ArgumentInfo@CFunctionInfo@v8@@QEBAAEBVCTypeInfo@2@I@Z
	 

	 Name : ?AsArray@Map@v8@@QEBA?AV?$Local@VArray@v8@@@2@XZ
	 

	 Name : ?AsArray@Set@v8@@QEBA?AV?$Local@VArray@v8@@@2@XZ
	 

	 Name : ?Assert@ReasonEnum@Paused@API@Debugger@protocol@v8_inspector@@3PEBDEB
	 

	 Name : ?AssertLocked@PersistentRegionLock@internal@cppgc@@SAXXZ
	 

	 Name : ?AsyncHooksGetExecutionAsyncId@node@@YANPEAVIsolate@v8@@@Z
	 

	 Name : ?AsyncHooksGetTriggerAsyncId@node@@YANPEAVIsolate@v8@@@Z
	 

	 Name : ?AtExit@node@@YAXPEAVEnvironment@1@P6AXPEAX@Z1@Z
	 

	 Name : ?AttachCppHeap@Isolate@v8@@QEAAXPEAVCppHeap@2@@Z
	 

	 Name : ?AutomaticallyRestoreInitialHeapLimit@Isolate@v8@@QEAAXN@Z
	 

	 Name : ?BindToCurrentContext@UnboundScript@v8@@QEAA?AV?$Local@VScript@v8@@@2@XZ
	 

	 Name : ?BooleanValue@Value@v8@@QEBA_NPEAVIsolate@2@@Z
	 

	 Name : ?Buffer@ArrayBufferView@v8@@QEAA?AV?$Local@VArrayBuffer@v8@@@2@XZ
	 

	 Name : ?Buffer@WasmMemoryObject@v8@@QEAA?AV?$Local@VArrayBuffer@v8@@@2@XZ
	 

	 Name : ?Build@?$CTypeInfoBuilder@H$S@v8@@SA?AVCTypeInfo@2@XZ
	 

	 Name : ?Build@?$CTypeInfoBuilder@I$S@v8@@SA?AVCTypeInfo@2@XZ
	 

	 Name : ?Build@?$CTypeInfoBuilder@M$S@v8@@SA?AVCTypeInfo@2@XZ
	 

	 Name : ?Build@?$CTypeInfoBuilder@N$S@v8@@SA?AVCTypeInfo@2@XZ
	 

	 Name : ?ByteLength@ArrayBuffer@v8@@QEBA_KXZ
	 

	 Name : ?ByteLength@ArrayBufferView@v8@@QEAA_KXZ
	 

	 Name : ?ByteLength@BackingStore@v8@@QEBA_KXZ
	 

	 Name : ?ByteLength@SharedArrayBuffer@v8@@QEBA_KXZ
	 

	 Name : ?ByteOffset@ArrayBufferView@v8@@QEAA_KXZ
	 

	 Name : ?CSPViolation@ReasonEnum@Paused@API@Debugger@protocol@v8_inspector@@3PEBDEB
	 

	 Name : ?CacheResolvedWrapsSync@ModuleWrap@loader@node@@CAXAEBV?$FunctionCallbackInfo@VValue@v8@@@v8@@@Z
	 

	 Name : ?CachedDataVersionTag@ScriptCompiler@v8@@SAIXZ
	 

	 Name : ?CalculateAgeTableSizeForHeapSize@AgeTable@internal@cppgc@@SA_K_K@Z
	 

	 Name : ?Call@Function@v8@@QEAA?AV?$MaybeLocal@VValue@v8@@@2@PEAVIsolate@2@V?$Local@VContext@v8@@@2@V?$Local@VValue@v8@@@2@HQEAV62@@Z
	 

	 Name : ?Call@Function@v8@@QEAA?AV?$MaybeLocal@VValue@v8@@@2@V?$Local@VContext@v8@@@2@V?$Local@VValue@v8@@@2@HQEAV52@@Z
	 

	 Name : ?CallAsConstructor@Object@v8@@QEAA?AV?$MaybeLocal@VValue@v8@@@2@V?$Local@VContext@v8@@@2@HQEAV?$Local@VValue@v8@@@2@@Z
	 

	 Name : ?CallAsFunction@Object@v8@@QEAA?AV?$MaybeLocal@VValue@v8@@@2@V?$Local@VContext@v8@@@2@V?$Local@VValue@v8@@@2@HQEAV52@@Z
	 

	 Name : ?CanBeRehashed@StartupData@v8@@QEBA_NXZ
	 

	 Name : ?CanContinue@TryCatch@v8@@QEBA_NXZ
	 

	 Name : ?CanLookupStartOfJitAllocationAt@ThreadIsolation@internal@v8@@SA_N_K@Z
	 

	 Name : ?CanMakeExternal@String@v8@@QEBA_NW4Encoding@12@@Z
	 

	 Name : ?CancelTerminateExecution@Isolate@v8@@QEAAXXZ
	 

	 Name : ?CaptureStackTrace@Exception@v8@@SA?AV?$Maybe@_N@2@V?$Local@VContext@v8@@@2@V?$Local@VObject@v8@@@2@@Z
	 

	 Name : ?Cast@Array@v8@@SAPEAV12@PEAVValue@2@@Z
	 

	 Name : ?Cast@ArrayBuffer@v8@@SAPEAV12@PEAVValue@2@@Z
	 

	 Name : ?Cast@ArrayBufferView@v8@@SAPEAV12@PEAVValue@2@@Z
	 

	 Name : ?Cast@BigInt64Array@v8@@SAPEAV12@PEAVValue@2@@Z
	 

	 Name : ?Cast@BigInt@v8@@SAPEAV12@PEAVData@2@@Z
	 

	 Name : ?Cast@BigIntObject@v8@@SAPEAV12@PEAVValue@2@@Z
	 

	 Name : ?Cast@BigUint64Array@v8@@SAPEAV12@PEAVValue@2@@Z
	 

	 Name : ?Cast@Boolean@v8@@SAPEAV12@PEAVData@2@@Z
	 

	 Name : ?Cast@BooleanObject@v8@@SAPEAV12@PEAVValue@2@@Z
	 

	 Name : ?Cast@Context@v8@@SAPEAV12@PEAVData@2@@Z
	 

	 Name : ?Cast@DataView@v8@@SAPEAV12@PEAVValue@2@@Z
	 

	 Name : ?Cast@Date@v8@@SAPEAV12@PEAVValue@2@@Z
	 

	 Name : ?Cast@DictionaryTemplate@v8@@SAPEAV12@PEAVData@2@@Z
	 

	 Name : ?Cast@External@v8@@SAPEAV12@PEAVValue@2@@Z
	 

	 Name : ?Cast@FixedArray@v8@@SAPEAV12@PEAVData@2@@Z
	 

	 Name : ?Cast@Float16Array@v8@@SAPEAV12@PEAVValue@2@@Z
	 

	 Name : ?Cast@Float32Array@v8@@SAPEAV12@PEAVValue@2@@Z
	 

	 Name : ?Cast@Float64Array@v8@@SAPEAV12@PEAVValue@2@@Z
	 

	 Name : ?Cast@Function@v8@@SAPEAV12@PEAVValue@2@@Z
	 

	 Name : ?Cast@FunctionTemplate@v8@@SAPEAV12@PEAVData@2@@Z
	 

	 Name : ?Cast@Int16Array@v8@@SAPEAV12@PEAVValue@2@@Z
	 

	 Name : ?Cast@Int32@v8@@SAPEAV12@PEAVData@2@@Z
	 

	 Name : ?Cast@Int32Array@v8@@SAPEAV12@PEAVValue@2@@Z
	 

	 Name : ?Cast@Int8Array@v8@@SAPEAV12@PEAVValue@2@@Z
	 

	 Name : ?Cast@Integer@v8@@SAPEAV12@PEAVData@2@@Z
	 

	 Name : ?Cast@Map@v8@@SAPEAV12@PEAVValue@2@@Z
	 

	 Name : ?Cast@Module@v8@@SAPEAV12@PEAVData@2@@Z
	 

	 Name : ?Cast@ModuleRequest@v8@@SAPEAV12@PEAVData@2@@Z
	 

	 Name : ?Cast@Name@v8@@SAPEAV12@PEAVData@2@@Z
	 

	 Name : ?Cast@Number@v8@@SAPEAV12@PEAVData@2@@Z
	 

	 Name : ?Cast@NumberObject@v8@@SAPEAV12@PEAVValue@2@@Z
	 

	 Name : ?Cast@Object@v8@@SAPEAV12@PEAVValue@2@@Z
	 

	 Name : ?Cast@ObjectTemplate@v8@@SAPEAV12@PEAVData@2@@Z
	 

	 Name : ?Cast@PrimitiveArray@v8@@SAPEAV12@PEAVData@2@@Z
	 

	 Name : ?Cast@Private@v8@@SAPEAV12@PEAVData@2@@Z
	 

	 Name : ?Cast@Promise@v8@@SAPEAV12@PEAVValue@2@@Z
	 

	 Name : ?Cast@Proxy@v8@@SAPEAV12@PEAVValue@2@@Z
	 

	 Name : ?Cast@RegExp@v8@@SAPEAV12@PEAVValue@2@@Z
	 

	 Name : ?Cast@Resolver@Promise@v8@@SAPEAV123@PEAVValue@3@@Z
	 

	 Name : ?Cast@Set@v8@@SAPEAV12@PEAVValue@2@@Z
	 

	 Name : ?Cast@SharedArrayBuffer@v8@@SAPEAV12@PEAVValue@2@@Z
	 

	 Name : ?Cast@Signature@v8@@SAPEAV12@PEAVData@2@@Z
	 

	 Name : ?Cast@String@v8@@SAPEAV12@PEAVData@2@@Z
	 

	 Name : ?Cast@StringObject@v8@@SAPEAV12@PEAVValue@2@@Z
	 

	 Name : ?Cast@Symbol@v8@@SAPEAV12@PEAVData@2@@Z
	 

	 Name : ?Cast@SymbolObject@v8@@SAPEAV12@PEAVValue@2@@Z
	 

	 Name : ?Cast@TypedArray@v8@@SAPEAV12@PEAVValue@2@@Z
	 

	 Name : ?Cast@Uint16Array@v8@@SAPEAV12@PEAVValue@2@@Z
	 

	 Name : ?Cast@Uint32@v8@@SAPEAV12@PEAVData@2@@Z
	 

	 Name : ?Cast@Uint32Array@v8@@SAPEAV12@PEAVValue@2@@Z
	 

	 Name : ?Cast@Uint8Array@v8@@SAPEAV12@PEAVValue@2@@Z
	 

	 Name : ?Cast@Uint8ClampedArray@v8@@SAPEAV12@PEAVValue@2@@Z
	 

	 Name : ?Cast@WasmMemoryObject@v8@@SAPEAV12@PEAVValue@2@@Z
	 

	 Name : ?Cast@WasmModuleObject@v8@@SAPEAV12@PEAVValue@2@@Z
	 

	 Name : ?Catch@Promise@v8@@QEAA?AV?$MaybeLocal@VPromise@v8@@@2@V?$Local@VContext@v8@@@2@V?$Local@VFunction@v8@@@2@@Z
	 

	 Name : ?CheckCachedDataInvariants@ExternalOneByteStringResource@String@v8@@AEBAXXZ
	 

	 Name : ?CheckCachedDataInvariants@ExternalStringResource@String@v8@@AEBAXXZ
	 

	 Name : ?CheckCast@Array@v8@@CAXPEAVValue@2@@Z
	 

	 Name : ?CheckCast@ArrayBuffer@v8@@CAXPEAVValue@2@@Z
	 

	 Name : ?CheckCast@ArrayBufferView@v8@@CAXPEAVValue@2@@Z
	 

	 Name : ?CheckCast@BigInt64Array@v8@@CAXPEAVValue@2@@Z
	 

	 Name : ?CheckCast@BigInt@v8@@CAXPEAVData@2@@Z
	 

	 Name : ?CheckCast@BigIntObject@v8@@CAXPEAVValue@2@@Z
	 

	 Name : ?CheckCast@BigUint64Array@v8@@CAXPEAVValue@2@@Z
	 

	 Name : ?CheckCast@Boolean@v8@@CAXPEAVData@2@@Z
	 

	 Name : ?CheckCast@BooleanObject@v8@@CAXPEAVValue@2@@Z
	 

	 Name : ?CheckCast@Context@v8@@CAXPEAVData@2@@Z
	 

	 Name : ?CheckCast@DataView@v8@@CAXPEAVValue@2@@Z
	 

	 Name : ?CheckCast@Date@v8@@CAXPEAVValue@2@@Z
	 

	 Name : ?CheckCast@DictionaryTemplate@v8@@CAXPEAVData@2@@Z
	 

	 Name : ?CheckCast@External@v8@@CAXPEAVValue@2@@Z
	 

	 Name : ?CheckCast@FixedArray@v8@@CAXPEAVData@2@@Z
	 

	 Name : ?CheckCast@Float16Array@v8@@CAXPEAVValue@2@@Z
	 

	 Name : ?CheckCast@Float32Array@v8@@CAXPEAVValue@2@@Z
	 

	 Name : ?CheckCast@Float64Array@v8@@CAXPEAVValue@2@@Z
	 

	 Name : ?CheckCast@Function@v8@@CAXPEAVValue@2@@Z
	 

	 Name : ?CheckCast@FunctionTemplate@v8@@CAXPEAVData@2@@Z
	 

	 Name : ?CheckCast@Int16Array@v8@@CAXPEAVValue@2@@Z
	 

	 Name : ?CheckCast@Int32@v8@@CAXPEAVData@2@@Z
	 

	 Name : ?CheckCast@Int32Array@v8@@CAXPEAVValue@2@@Z
	 

	 Name : ?CheckCast@Int8Array@v8@@CAXPEAVValue@2@@Z
	 

	 Name : ?CheckCast@Integer@v8@@CAXPEAVData@2@@Z
	 

	 Name : ?CheckCast@Map@v8@@CAXPEAVValue@2@@Z
	 

	 Name : ?CheckCast@Module@v8@@CAXPEAVData@2@@Z
	 

	 Name : ?CheckCast@ModuleRequest@v8@@CAXPEAVData@2@@Z
	 

	 Name : ?CheckCast@Name@v8@@CAXPEAVData@2@@Z
	 

	 Name : ?CheckCast@Number@v8@@CAXPEAVData@2@@Z
	 

	 Name : ?CheckCast@NumberObject@v8@@CAXPEAVValue@2@@Z
	 

	 Name : ?CheckCast@Numeric@v8@@CAXPEAVData@2@@Z
	 

	 Name : ?CheckCast@Object@v8@@CAXPEAVValue@2@@Z
	 

	 Name : ?CheckCast@ObjectTemplate@v8@@CAXPEAVData@2@@Z
	 

	 Name : ?CheckCast@PrimitiveArray@v8@@CAXPEAVData@2@@Z
	 

	 Name : ?CheckCast@Private@v8@@CAXPEAVData@2@@Z
	 

	 Name : ?CheckCast@Promise@v8@@CAXPEAVValue@2@@Z
	 

	 Name : ?CheckCast@Proxy@v8@@CAXPEAVValue@2@@Z
	 

	 Name : ?CheckCast@RegExp@v8@@CAXPEAVValue@2@@Z
	 

	 Name : ?CheckCast@Resolver@Promise@v8@@CAXPEAVValue@3@@Z
	 

	 Name : ?CheckCast@Set@v8@@CAXPEAVValue@2@@Z
	 

	 Name : ?CheckCast@SharedArrayBuffer@v8@@CAXPEAVValue@2@@Z
	 

	 Name : ?CheckCast@Signature@v8@@CAXPEAVData@2@@Z
	 

	 Name : ?CheckCast@String@v8@@CAXPEAVData@2@@Z
	 

	 Name : ?CheckCast@StringObject@v8@@CAXPEAVValue@2@@Z
	 

	 Name : ?CheckCast@Symbol@v8@@CAXPEAVData@2@@Z
	 

	 Name : ?CheckCast@SymbolObject@v8@@CAXPEAVValue@2@@Z
	 

	 Name : ?CheckCast@TypedArray@v8@@CAXPEAVValue@2@@Z
	 

	 Name : ?CheckCast@Uint16Array@v8@@CAXPEAVValue@2@@Z
	 

	 Name : ?CheckCast@Uint32@v8@@CAXPEAVData@2@@Z
	 

	 Name : ?CheckCast@Uint32Array@v8@@CAXPEAVValue@2@@Z
	 

	 Name : ?CheckCast@Uint8Array@v8@@CAXPEAVValue@2@@Z
	 

	 Name : ?CheckCast@Uint8ClampedArray@v8@@CAXPEAVValue@2@@Z
	 

	 Name : ?CheckCast@Value@v8@@CAXPEAVData@2@@Z
	 

	 Name : ?CheckCast@WasmMemoryObject@v8@@CAXPEAVValue@2@@Z
	 

	 Name : ?CheckCast@WasmModuleObject@v8@@CAXPEAVValue@2@@Z
	 

	 Name : ?CheckInitializedImpl@Internals@internal@v8@@SAXPEAVIsolate@3@@Z
	 

	 Name : ?CheckMemoryIsZeroed@GCInfoTable@internal@cppgc@@AEAAXPEA_K_K@Z
	 

	 Name : ?CheckOneByte@ValueView@String@v8@@AEBAX_N@Z
	 

	 Name : ?CheckParams@WriteBarrier@internal@cppgc@@SAXW4Type@123@AEBUParams@123@@Z
	 

	 Name : ?CheckPointerImpl@SameThreadEnabledCheckingPolicyBase@internal@cppgc@@IEAAXPEBX_N1@Z
	 

	 Name : ?CheckValue@TracedReferenceBase@v8@@IEBAXXZ
	 

	 Name : ?CheckYoungGenerationConsistency@HeapLayout@internal@v8@@CAXPEBVMemoryChunk@23@@Z
	 

	 Name : ?Clear@Map@v8@@QEAAXXZ
	 

	 Name : ?Clear@Set@v8@@QEAAXXZ
	 

	 Name : ?ClearAllUsedNodes@CrossThreadPersistentRegion@internal@cppgc@@QEAAXXZ
	 

	 Name : ?ClearAllUsedNodes@PersistentRegionBase@internal@cppgc@@QEAAXXZ
	 

	 Name : ?ClearCachesForTesting@Isolate@v8@@QEAAXXZ
	 

	 Name : ?ClearKeptObjects@Isolate@v8@@QEAAXXZ
	 

	 Name : ?ClearObjectIds@HeapProfiler@v8@@QEAAXXZ
	 

	 Name : ?ClearWeak@api_internal@v8@@YAPEAXPEA_K@Z
	 

	 Name : ?Clone@Object@v8@@QEAA?AV?$Local@VObject@v8@@@2@PEAVIsolate@2@@Z
	 

	 Name : ?Clone@Object@v8@@QEAA?AV?$Local@VObject@v8@@@2@XZ
	 

	 Name : ?CollectCustomSpaceStatisticsAtLastGC@CppHeap@v8@@QEAAXV?$vector@UCustomSpaceIndex@cppgc@@V?$allocator@UCustomSpaceIndex@cppgc@@@__Cr@std@@@__Cr@std@@V?$unique_ptr@VCustomSpaceStatisticsReceiver@v8@@U?$default_delete@VCustomSpaceStatisticsReceiver@v8@@@__Cr@std@@@45@@Z
	 

	 Name : ?CollectGarbageForTesting@CppHeap@v8@@QEAAXW4EmbedderStackState@cppgc@@@Z
	 

	 Name : ?CollectGarbageInYoungGenerationForTesting@CppHeap@v8@@QEAAXW4EmbedderStackState@cppgc@@@Z
	 

	 Name : ?CollectSample@CpuProfiler@v8@@SAXPEAVIsolate@2@@Z
	 

	 Name : ?CollectStatistics@CppHeap@v8@@QEAA?AUHeapStatistics@cppgc@@W4DetailLevel@34@@Z
	 

	 Name : ?ColumnOffset@ScriptOrigin@v8@@QEBAHXZ
	 

	 Name : ?Commit@CompilationDependencies@compiler@internal@v8@@QEAA_NV?$Handle@VCode@internal@v8@@@34@@Z
	 

	 Name : ?CompatibilityCheck@CachedData@ScriptCompiler@v8@@QEAA?AW4CompatibilityCheckResult@123@PEAVIsolate@3@@Z
	 

	 Name : ?Compile@Script@v8@@SA?AV?$MaybeLocal@VScript@v8@@@2@V?$Local@VContext@v8@@@2@V?$Local@VString@v8@@@2@PEAVScriptOrigin@2@@Z
	 

	 Name : ?Compile@ScriptCompiler@v8@@SA?AV?$MaybeLocal@VScript@v8@@@2@V?$Local@VContext@v8@@@2@PEAVSource@12@W4CompileOptions@12@W4NoCacheReason@12@@Z
	 

	 Name : ?Compile@ScriptCompiler@v8@@SA?AV?$MaybeLocal@VScript@v8@@@2@V?$Local@VContext@v8@@@2@PEAVStreamedSource@12@V?$Local@VString@v8@@@2@AEBVScriptOrigin@2@@Z
	 

	 Name : ?Compile@WasmModuleObject@v8@@SA?AV?$MaybeLocal@VWasmModuleObject@v8@@@2@PEAVIsolate@2@V?$MemorySpan@$$CBE@2@@Z
	 

	 Name : ?CompileFunction@ScriptCompiler@v8@@SA?AV?$MaybeLocal@VFunction@v8@@@2@V?$Local@VContext@v8@@@2@PEAVSource@12@_KQEAV?$Local@VString@v8@@@2@2QEAV?$Local@VObject@v8@@@2@W4CompileOptions@12@W4NoCacheReason@12@@Z
	 

	 Name : ?CompileModule@ScriptCompiler@v8@@SA?AV?$MaybeLocal@VModule@v8@@@2@PEAVIsolate@2@PEAVSource@12@W4CompileOptions@12@W4NoCacheReason@12@@Z
	 

	 Name : ?CompileModule@ScriptCompiler@v8@@SA?AV?$MaybeLocal@VModule@v8@@@2@V?$Local@VContext@v8@@@2@PEAVStreamedSource@12@V?$Local@VString@v8@@@2@AEBVScriptOrigin@2@@Z
	 

	 Name : ?CompileOptionsIsValid@ScriptCompiler@v8@@SA_NW4CompileOptions@12@@Z
	 

	 Name : ?CompileUnboundInternal@ScriptCompiler@v8@@CA?AV?$MaybeLocal@VUnboundScript@v8@@@2@PEAVIsolate@2@PEAVSource@12@W4CompileOptions@12@W4NoCacheReason@12@@Z
	 

	 Name : ?CompileUnboundScript@ScriptCompiler@v8@@SA?AV?$MaybeLocal@VUnboundScript@v8@@@2@PEAVIsolate@2@PEAVSource@12@W4CompileOptions@12@W4NoCacheReason@12@@Z
	 

	 Name : ?Concat@String@v8@@SA?AV?$Local@VString@v8@@@2@PEAVIsolate@2@V32@1@Z
	 

	 Name : ?ConfigureDefaults@ResourceConstraints@v8@@QEAAX_K0@Z
	 

	 Name : ?ConfigureDefaultsFromHeapSize@ResourceConstraints@v8@@QEAAX_K0@Z
	 

	 Name : ?ContainsOnlyOneByte@String@v8@@QEBA_NXZ
	 

	 Name : ?ContextDisposedNotification@Isolate@v8@@QEAAH_N@Z
	 

	 Name : ?ConvertToJSGlobalProxyIfNecessary@api_internal@v8@@YA_K_K@Z
	 

	 Name : ?Copy@Buffer@node@@YA?AV?$MaybeLocal@VObject@v8@@@v8@@PEAVIsolate@4@PEBD_K@Z
	 

	 Name : ?CopyCodePages@Isolate@v8@@QEAA_K_KPEAUMemoryRange@2@@Z
	 

	 Name : ?CopyContents@ArrayBufferView@v8@@QEAA_KPEAX_K@Z
	 

	 Name : ?CopyGlobalReference@api_internal@v8@@YAPEA_KPEA_K@Z
	 

	 Name : ?CopyNameForHeapSnapshot@HeapProfiler@v8@@QEAAPEBDPEBD@Z
	 

	 Name : ?CopyTracedReference@internal@v8@@YAXPEBQEB_KPEAPEA_K@Z
	 

	 Name : ?Create@ArrayBufferAllocator@node@@SA?AV?$unique_ptr@VArrayBufferAllocator@node@@U?$default_delete@VArrayBufferAllocator@node@@@__Cr@std@@@__Cr@std@@_N@Z
	 

	 Name : ?Create@CppHeap@v8@@SA?AV?$unique_ptr@VCppHeap@v8@@U?$default_delete@VCppHeap@v8@@@__Cr@std@@@__Cr@std@@PEAVPlatform@2@AEBUCppHeapCreateParams@2@@Z
	 

	 Name : ?Create@Heap@cppgc@@SA?AV?$unique_ptr@VHeap@cppgc@@U?$default_delete@VHeap@cppgc@@@__Cr@std@@@__Cr@std@@V?$shared_ptr@VPlatform@cppgc@@@45@UHeapOptions@12@@Z
	 

	 Name : ?Create@MultiIsolatePlatform@node@@SA?AV?$unique_ptr@VMultiIsolatePlatform@node@@U?$default_delete@VMultiIsolatePlatform@node@@@__Cr@std@@@__Cr@std@@HPEAVTracingController@v8@@PEAVPageAllocator@7@@Z
	 

	 Name : ?CreateAgent@node@@YAPEAVAgent@tracing@1@XZ
	 

	 Name : ?CreateArrayBufferAllocator@node@@YAPEAVArrayBufferAllocator@1@XZ
	 

	 Name : ?CreateBlob@SnapshotCreator@v8@@QEAA?AVStartupData@2@W4FunctionCodeHandling@12@@Z
	 

	 Name : ?CreateCachedData@ModuleWrap@loader@node@@CAXAEBV?$FunctionCallbackInfo@VValue@v8@@@v8@@@Z
	 

	 Name : ?CreateCodeCache@ScriptCompiler@v8@@SAPEAUCachedData@12@V?$Local@VUnboundModuleScript@v8@@@2@@Z
	 

	 Name : ?CreateCodeCache@ScriptCompiler@v8@@SAPEAUCachedData@12@V?$Local@VUnboundScript@v8@@@2@@Z
	 

	 Name : ?CreateCodeCacheForFunction@ScriptCompiler@v8@@SAPEAUCachedData@12@V?$Local@VFunction@v8@@@2@@Z
	 

	 Name : ?CreateDataProperty@Object@v8@@QEAA?AV?$Maybe@_N@2@V?$Local@VContext@v8@@@2@IV?$Local@VValue@v8@@@2@@Z
	 

	 Name : ?CreateDataProperty@Object@v8@@QEAA?AV?$Maybe@_N@2@V?$Local@VContext@v8@@@2@V?$Local@VName@v8@@@2@V?$Local@VValue@v8@@@2@@Z
	 

	 Name : ?CreateEnvironment@node@@YAPEAVEnvironment@1@PEAVIsolateData@1@V?$Local@VContext@v8@@@v8@@AEBV?$vector@V?$basic_string@DU?$char_traits@D@__Cr@std@@V?$allocator@D@23@@__Cr@std@@V?$allocator@V?$basic_string@DU?$char_traits@D@__Cr@std@@V?$allocator@D@23@@__Cr@std@@@23@@__Cr@std@@2W4Flags@EnvironmentFlags@1@UThreadId@1@V?$unique_ptr@UInspectorParentHandle@node@@U?$default_delete@UInspectorParentHandle@node@@@__Cr@std@@@78@@Z
	 

	 Name : ?CreateForSnapshotting@CommonEnvironmentSetup@node@@SA?AV?$unique_ptr@VCommonEnvironmentSetup@node@@U?$default_delete@VCommonEnvironmentSetup@node@@@__Cr@std@@@__Cr@std@@PEAVMultiIsolatePlatform@2@PEAV?$vector@V?$basic_string@DU?$char_traits@D@__Cr@std@@V?$allocator@D@23@@__Cr@std@@V?$allocator@V?$basic_string@DU?$char_traits@D@__Cr@std@@V?$allocator@D@23@@__Cr@std@@@23@@45@AEBV745@2AEBUSnapshotConfig@2@@Z
	 

	 Name : ?CreateHandle@HandleScope@v8@@KAPEA_KPEAVIsolate@internal@2@_K@Z
	 

	 Name : ?CreateIsolateData@node@@YAPEAVIsolateData@1@PEAVIsolate@v8@@PEAUuv_loop_s@@PEAVMultiIsolatePlatform@1@PEAVArrayBufferAllocator@1@PEBVEmbedderSnapshotData@1@@Z
	 

	 Name : ?CreateMessage@Exception@v8@@SA?AV?$Local@VMessage@v8@@@2@PEAVIsolate@2@V?$Local@VValue@v8@@@2@@Z
	 

	 Name : ?CreatePerContextProperties@ModuleWrap@loader@node@@SAXV?$Local@VObject@v8@@@v8@@V?$Local@VValue@v8@@@5@V?$Local@VContext@v8@@@5@PEAX@Z
	 

	 Name : ?CreatePerIsolateProperties@ModuleWrap@loader@node@@SAXPEAVIsolateData@3@V?$Local@VObjectTemplate@v8@@@v8@@@Z
	 

	 Name : ?CreatePlatform@node@@YAPEAVMultiIsolatePlatform@1@HPEAVTracingController@v8@@@Z
	 

	 Name : ?CreateSnapshot@CommonEnvironmentSetup@node@@QEAA?AV?$unique_ptr@$$CBVEmbedderSnapshotData@node@@UDeleteSnapshotData@12@@__Cr@std@@XZ
	 

	 Name : ?CreateSyntheticModule@Module@v8@@SA?AV?$Local@VModule@v8@@@2@PEAVIsolate@2@V?$Local@VString@v8@@@2@AEBV?$MemorySpan@$$CBV?$Local@VString@v8@@@v8@@@2@P6A?AV?$MaybeLocal@VValue@v8@@@2@V?$Local@VContext@v8@@@2@V32@@Z@Z
	 

	 Name : ?Current@SourceLocation@v8@@SA?AV12@PEBD0_K@Z
	 

	 Name : ?CurrentScriptNameOrSourceURL@StackTrace@v8@@SA?AV?$Local@VString@v8@@@2@PEAVIsolate@2@@Z
	 

	 Name : ?CurrentStackTrace@StackTrace@v8@@SA?AV?$Local@VStackTrace@v8@@@2@PEAVIsolate@2@HW4StackTraceOptions@12@@Z
	 

	 Name : ?DCheckImpl@internal@cppgc@@YAXPEBDAEBVSourceLocation@v8@@@Z
	 

	 Name : ?DOM@ReasonEnum@Paused@API@Debugger@protocol@v8_inspector@@3PEBDEB
	 

	 Name : ?Data@ArrayBuffer@v8@@QEBAPEAXXZ
	 

	 Name : ?Data@BackingStore@v8@@QEBAPEAXXZ
	 

	 Name : ?Data@Buffer@node@@YAPEADV?$Local@VObject@v8@@@v8@@@Z
	 

	 Name : ?Data@Buffer@node@@YAPEADV?$Local@VValue@v8@@@v8@@@Z
	 

	 Name : ?Data@SharedArrayBuffer@v8@@QEBAPEAXXZ
	 

	 Name : ?DateTimeConfigurationChangeNotification@Isolate@v8@@QEAAXW4TimeZoneDetection@12@@Z
	 

	 Name : ?DebugCommand@ReasonEnum@Paused@API@Debugger@protocol@v8_inspector@@3PEBDEB
	 

	 Name : ?DecodeBytes@node@@YA_JPEAVIsolate@v8@@V?$Local@VValue@v8@@@3@W4encoding@1@@Z
	 

	 Name : ?DecodeWrite@node@@YA_JPEAVIsolate@v8@@PEAD_KV?$Local@VValue@v8@@@3@W4encoding@1@@Z
	 

	 Name : ?DeepFreeze@Context@v8@@QEAA?AV?$Maybe@X@2@PEAVDeepFreezeDelegate@12@@Z
	 

	 Name : ?Default@MeasureMemoryDelegate@v8@@SA?AV?$unique_ptr@VMeasureMemoryDelegate@v8@@U?$default_delete@VMeasureMemoryDelegate@v8@@@__Cr@std@@@__Cr@std@@PEAVIsolate@2@V?$Local@VContext@v8@@@2@V?$Local@VResolver@Promise@v8@@@2@W4MeasureMemoryMode@2@@Z
	 

	 Name : ?DefaultProcessExitHandler@node@@YAXPEAVEnvironment@1@H@Z
	 

	 Name : ?DeferTraceToMutatorThreadIfConcurrent@Visitor@cppgc@@UEAA_NPEBXP6AXPEAV12@0@Z_K@Z
	 

	 Name : ?DefineOwnProperty@Object@v8@@QEAA?AV?$Maybe@_N@2@V?$Local@VContext@v8@@@2@V?$Local@VName@v8@@@2@V?$Local@VValue@v8@@@2@W4PropertyAttribute@2@@Z
	 

	 Name : ?DefineProperty@Object@v8@@QEAA?AV?$Maybe@_N@2@V?$Local@VContext@v8@@@2@V?$Local@VName@v8@@@2@AEAVPropertyDescriptor@2@@Z
	 

	 Name : ?Delete@CpuProfile@v8@@QEAAXXZ
	 

	 Name : ?Delete@HeapSnapshot@v8@@QEAAXXZ
	 

	 Name : ?Delete@Map@v8@@QEAA?AV?$Maybe@_N@2@V?$Local@VContext@v8@@@2@V?$Local@VValue@v8@@@2@@Z
	 

	 Name : ?Delete@Object@v8@@QEAA?AV?$Maybe@_N@2@V?$Local@VContext@v8@@@2@I@Z
	 

	 Name : ?Delete@Object@v8@@QEAA?AV?$Maybe@_N@2@V?$Local@VContext@v8@@@2@V?$Local@VValue@v8@@@2@@Z
	 

	 Name : ?Delete@Set@v8@@QEAA?AV?$Maybe@_N@2@V?$Local@VContext@v8@@@2@V?$Local@VValue@v8@@@2@@Z
	 

	 Name : ?DeleteAllHeapSnapshots@HeapProfiler@v8@@QEAAXXZ
	 

	 Name : ?DeletePrivate@Object@v8@@QEAA?AV?$Maybe@_N@2@V?$Local@VContext@v8@@@2@V?$Local@VPrivate@v8@@@2@@Z
	 

	 Name : ?DependOnArrayBufferDetachingProtector@CompilationDependencies@compiler@internal@v8@@QEAA_NXZ
	 

	 Name : ?DependOnArrayIteratorProtector@CompilationDependencies@compiler@internal@v8@@QEAA_NXZ
	 

	 Name : ?DependOnArraySpeciesProtector@CompilationDependencies@compiler@internal@v8@@QEAA_NXZ
	 

	 Name : ?DependOnConsistentJSFunctionView@CompilationDependencies@compiler@internal@v8@@QEAAXVJSFunctionRef@234@@Z
	 

	 Name : ?DependOnConstantInDictionaryPrototypeChain@CompilationDependencies@compiler@internal@v8@@QEAAXVMapRef@234@VNameRef@234@VObjectRef@234@W4PropertyKind@34@@Z
	 

	 Name : ?DependOnElementsKind@CompilationDependencies@compiler@internal@v8@@QEAAXVAllocationSiteRef@234@@Z
	 

	 Name : ?DependOnElementsKinds@CompilationDependencies@compiler@internal@v8@@QEAAXVAllocationSiteRef@234@@Z
	 

	 Name : ?DependOnFieldConstness@CompilationDependencies@compiler@internal@v8@@QEAA?AW4PropertyConstness@34@VMapRef@234@0VInternalIndex@34@@Z
	 

	 Name : ?DependOnGlobalProperty@CompilationDependencies@compiler@internal@v8@@QEAAXVPropertyCellRef@234@@Z
	 

	 Name : ?DependOnInitialMap@CompilationDependencies@compiler@internal@v8@@QEAA?AVMapRef@234@VJSFunctionRef@234@@Z
	 

	 Name : ?DependOnInitialMapInstanceSizePrediction@CompilationDependencies@compiler@internal@v8@@QEAA?AVSlackTrackingPrediction@234@VJSFunctionRef@234@@Z
	 

	 Name : ?DependOnMegaDOMProtector@CompilationDependencies@compiler@internal@v8@@QEAA_NXZ
	 

	 Name : ?DependOnNoElementsProtector@CompilationDependencies@compiler@internal@v8@@QEAA_NXZ
	 

	 Name : ?DependOnNoProfilingProtector@CompilationDependencies@compiler@internal@v8@@QEAA_NXZ
	 

	 Name : ?DependOnNoSlackTrackingChange@CompilationDependencies@compiler@internal@v8@@QEAAXVMapRef@234@@Z
	 

	 Name : ?DependOnNoUndetectableObjectsProtector@CompilationDependencies@compiler@internal@v8@@QEAA_NXZ
	 

	 Name : ?DependOnObjectSlotValue@CompilationDependencies@compiler@internal@v8@@QEAAXVHeapObjectRef@234@HVObjectRef@234@@Z
	 

	 Name : ?DependOnOwnConstantDataProperty@CompilationDependencies@compiler@internal@v8@@QEAAXVJSObjectRef@234@VMapRef@234@VFieldIndex@34@VObjectRef@234@@Z
	 

	 Name : ?DependOnOwnConstantDictionaryProperty@CompilationDependencies@compiler@internal@v8@@QEAAXVJSObjectRef@234@VInternalIndex@34@VObjectRef@234@@Z
	 

	 Name : ?DependOnOwnConstantDoubleProperty@CompilationDependencies@compiler@internal@v8@@QEAAXVJSObjectRef@234@VMapRef@234@VFieldIndex@34@VFloat64@34@@Z
	 

	 Name : ?DependOnOwnConstantElement@CompilationDependencies@compiler@internal@v8@@QEAAXVJSObjectRef@234@IVObjectRef@234@@Z
	 

	 Name : ?DependOnPretenureMode@CompilationDependencies@compiler@internal@v8@@QEAA?AW4AllocationType@34@VAllocationSiteRef@234@@Z
	 

	 Name : ?DependOnPromiseHookProtector@CompilationDependencies@compiler@internal@v8@@QEAA_NXZ
	 

	 Name : ?DependOnPromiseSpeciesProtector@CompilationDependencies@compiler@internal@v8@@QEAA_NXZ
	 

	 Name : ?DependOnPromiseThenProtector@CompilationDependencies@compiler@internal@v8@@QEAA_NXZ
	 

	 Name : ?DependOnProtector@CompilationDependencies@compiler@internal@v8@@QEAA_NVPropertyCellRef@234@@Z
	 

	 Name : ?DependOnPrototypeProperty@CompilationDependencies@compiler@internal@v8@@QEAA?AVHeapObjectRef@234@VJSFunctionRef@234@@Z
	 

	 Name : ?DependOnScriptContextSlotProperty@CompilationDependencies@compiler@internal@v8@@QEAA_NVContextRef@234@_KW4Property@ContextSidePropertyCell@34@PEAVJSHeapBroker@234@@Z
	 

	 Name : ?DependOnStableMap@CompilationDependencies@compiler@internal@v8@@QEAAXVMapRef@234@@Z
	 

	 Name : ?DependOnStablePrototypeChain@CompilationDependencies@compiler@internal@v8@@QEAAXVMapRef@234@W4WhereToStart@34@V?$OptionalRef@VJSObjectRef@compiler@internal@v8@@@234@@Z
	 

	 Name : ?DependOnStablePrototypeChains@CompilationDependencies@compiler@internal@v8@@QEAAXAEBV?$ZoneVector@VMapRef@compiler@internal@v8@@@34@W4WhereToStart@34@V?$OptionalRef@VJSObjectRef@compiler@internal@v8@@@234@@Z
	 

	 Name : ?DependOnStringWrapperToPrimitiveProtector@CompilationDependencies@compiler@internal@v8@@QEAA_NXZ
	 

	 Name : ?Dequeue@OptimizingCompileDispatcherQueue@internal@v8@@QEAAPEAVTurbofanCompilationJob@23@XZ
	 

	 Name : ?Description@Symbol@v8@@QEBA?AV?$Local@VValue@v8@@@2@PEAVIsolate@2@@Z
	 

	 Name : ?Detach@ArrayBuffer@v8@@QEAA?AV?$Maybe@_N@2@V?$Local@VValue@v8@@@2@@Z
	 

	 Name : ?Detach@ArrayBuffer@v8@@QEAAXXZ
	 

	 Name : ?DetachCppHeap@Isolate@v8@@QEAAXXZ
	 

	 Name : ?DetachGlobal@Context@v8@@QEAAXXZ
	 

	 Name : ?DijkstraMarkingBarrier@WriteBarrier@internal@cppgc@@SAXAEBUParams@123@PEBX@Z
	 

	 Name : ?DijkstraMarkingBarrierRange@WriteBarrier@internal@cppgc@@SAXAEBUParams@123@PEBX_K2P6AXPEAVVisitor@3@1@Z@Z
	 

	 Name : ?DijkstraMarkingBarrierRangeSlow@WriteBarrier@internal@cppgc@@CAXAEAVHeapHandle@3@PEBX_K2P6AXPEAVVisitor@3@1@Z@Z
	 

	 Name : ?DijkstraMarkingBarrierSlow@WriteBarrier@internal@cppgc@@CAXPEBX@Z
	 

	 Name : ?DijkstraMarkingBarrierSlowWithSentinelCheck@WriteBarrier@internal@cppgc@@CAXPEBX@Z
	 

	 Name : ?Disable@CodeEventHandler@v8@@QEAAXXZ
	 

	 Name : ?DiscardThreadSpecificMetadata@Isolate@v8@@QEAAXXZ
	 

	 Name : ?Dispose@CpuProfiler@v8@@QEAAXXZ
	 

	 Name : ?Dispose@ExternalStringResourceBase@String@v8@@MEAAXXZ
	 

	 Name : ?Dispose@Isolate@v8@@QEAAXXZ
	 

	 Name : ?Dispose@V8@v8@@SA_NXZ
	 

	 Name : ?DisposeGlobal@api_internal@v8@@YAXPEA_K@Z
	 

	 Name : ?DisposePlatform@V8@v8@@SAXXZ
	 

	 Name : ?DisposeTracedReference@internal@v8@@YAXPEA_K@Z
	 

	 Name : ?DumpAndResetStats@Isolate@v8@@QEAAXXZ
	 

	 Name : ?DumpAsyncTaskStacksStateForTest@v8_inspector@@YAXPEAVV8Inspector@1@@Z
	 

	 Name : ?EmitAsyncDestroy@node@@YAXPEAVEnvironment@1@Uasync_context@1@@Z
	 

	 Name : ?EmitAsyncDestroy@node@@YAXPEAVIsolate@v8@@Uasync_context@1@@Z
	 

	 Name : ?EmitAsyncInit@node@@YA?AUasync_context@1@PEAVIsolate@v8@@V?$Local@VObject@v8@@@4@PEBDN@Z
	 

	 Name : ?EmitAsyncInit@node@@YA?AUasync_context@1@PEAVIsolate@v8@@V?$Local@VObject@v8@@@4@V?$Local@VString@v8@@@4@N@Z
	 

	 Name : ?EmitBeforeExit@node@@YAXPEAVEnvironment@1@@Z
	 

	 Name : ?EmitExit@node@@YAHPEAVEnvironment@1@@Z
	 

	 Name : ?EmitProcessBeforeExit@node@@YA?AV?$Maybe@_N@v8@@PEAVEnvironment@1@@Z
	 

	 Name : ?EmitProcessExit@node@@YA?AV?$Maybe@H@v8@@PEAVEnvironment@1@@Z
	 

	 Name : ?Empty@JitPageReference@ThreadIsolation@internal@v8@@QEBA_NXZ
	 

	 Name : ?Empty@String@v8@@SA?AV?$Local@VString@v8@@@2@PEAVIsolate@2@@Z
	 

	 Name : ?EmptyDeleter@BackingStore@v8@@SAXPEAX_K0@Z
	 

	 Name : ?Enable@CodeEventHandler@v8@@QEAAXXZ
	 

	 Name : ?EnableDetachedGarbageCollectionsForTesting@CppHeap@v8@@QEAAXXZ
	 

	 Name : ?EnableWebAssemblyTrapHandler@V8@v8@@SA_N_N@Z
	 

	 Name : ?Enabled@ThreadIsolation@internal@v8@@SA_NXZ
	 

	 Name : ?Encode@node@@YA?AV?$Local@VValue@v8@@@v8@@PEAVIsolate@3@PEBD_KW4encoding@1@@Z
	 

	 Name : ?Encode@node@@YA?AV?$Local@VValue@v8@@@v8@@PEAVIsolate@3@PEBG_K@Z
	 

	 Name : ?End@JitPageReference@ThreadIsolation@internal@v8@@QEBA_KXZ
	 

	 Name : ?Enqueue@OptimizingCompileDispatcherQueue@internal@v8@@QEAAXPEAVTurbofanCompilationJob@23@@Z
	 

	 Name : ?EnqueueMicrotask@Isolate@v8@@QEAAXP6AXPEAX@Z0@Z
	 

	 Name : ?EnqueueMicrotask@Isolate@v8@@QEAAXV?$Local@VFunction@v8@@@2@@Z
	 

	 Name : ?EnsureGCInfoIndex@EnsureGCInfoIndexTrait@internal@cppgc@@CUGAEAU?$atomic@G@__Cr@std@@P6AXPEAVVisitor@3@PEBX@Z@Z
	 

	 Name : ?EnsureGCInfoIndex@EnsureGCInfoIndexTrait@internal@cppgc@@CUGAEAU?$atomic@G@__Cr@std@@P6AXPEAVVisitor@3@PEBX@ZP6A?AUHeapObjectName@23@2W4HeapObjectNameForUnnamedObject@23@@Z@Z
	 

	 Name : ?EnsureGCInfoIndex@EnsureGCInfoIndexTrait@internal@cppgc@@CUGAEAU?$atomic@G@__Cr@std@@P6AXPEAVVisitor@3@PEBX@ZP6AXPEAX@Z@Z
	 

	 Name : ?EnsureGCInfoIndex@EnsureGCInfoIndexTrait@internal@cppgc@@CUGAEAU?$atomic@G@__Cr@std@@P6AXPEAVVisitor@3@PEBX@ZP6AXPEAX@ZP6A?AUHeapObjectName@23@2W4HeapObjectNameForUnnamedObject@23@@Z@Z
	 

	 Name : ?Enter@Context@v8@@QEAAXXZ
	 

	 Name : ?Enter@DisallowGarbageCollectionScope@subtle@cppgc@@SAXAEAVHeapHandle@3@@Z
	 

	 Name : ?Enter@Isolate@v8@@QEAAXXZ
	 

	 Name : ?Enter@NoGarbageCollectionScope@subtle@cppgc@@SAXAEAVHeapHandle@3@@Z
	 

	 Name : ?Equals@Value@v8@@QEBA?AV?$Maybe@_N@2@V?$Local@VContext@v8@@@2@V?$Local@VValue@v8@@@2@@Z
	 

	 Name : ?ErrnoException@node@@YA?AV?$Local@VValue@v8@@@v8@@PEAVIsolate@3@HPEBD11@Z
	 

	 Name : ?Error@Exception@v8@@SA?AV?$Local@VValue@v8@@@2@V?$Local@VString@v8@@@2@V32@@Z
	 

	 Name : ?ErrorLevel@Message@v8@@QEBAHXZ
	 

	 Name : ?EscapeSlot@EscapableHandleScopeBase@v8@@IEAAPEA_KPEA_K@Z
	 

	 Name : ?Eternalize@api_internal@v8@@YAPEA_KPEAVIsolate@2@PEAVValue@2@@Z
	 

	 Name : ?Evaluate@Module@v8@@QEAA?AV?$MaybeLocal@VValue@v8@@@2@V?$Local@VContext@v8@@@2@@Z
	 

	 Name : ?Evaluate@ModuleWrap@loader@node@@CAXAEBV?$FunctionCallbackInfo@VValue@v8@@@v8@@@Z
	 

	 Name : ?EvaluateSync@ModuleWrap@loader@node@@CAXAEBV?$FunctionCallbackInfo@VValue@v8@@@v8@@@Z
	 

	 Name : ?EventListener@ReasonEnum@Paused@API@Debugger@protocol@v8_inspector@@3PEBDEB
	 

	 Name : ?Exception@ReasonEnum@Paused@API@Debugger@protocol@v8_inspector@@3PEBDEB
	 

	 Name : ?Exception@TryCatch@v8@@QEBA?AV?$Local@VValue@v8@@@2@XZ
	 

	 Name : ?Exec@RegExp@v8@@QEAA?AV?$MaybeLocal@VObject@v8@@@2@V?$Local@VContext@v8@@@2@V?$Local@VString@v8@@@2@@Z
	 

	 Name : ?Exit@Context@v8@@QEAAXXZ
	 

	 Name : ?Exit@Isolate@v8@@QEAAXXZ
	 

	 Name : ?Expand@JitPageReference@ThreadIsolation@internal@v8@@QEAAX_K@Z
	 

	 Name : ?Experimental_IsNopFunction@Function@v8@@QEBA_NXZ
	 

	 Name : ?Fatal@internal@cppgc@@YAXAEBV?$basic_string@DU?$char_traits@D@__Cr@std@@V?$allocator@D@23@@__Cr@std@@AEBVSourceLocation@v8@@@Z
	 

	 Name : ?FatalException@node@@YAXPEAVIsolate@v8@@AEBVTryCatch@3@@Z
	 

	 Name : ?FatalImpl@internal@cppgc@@YAXPEBDAEBVSourceLocation@v8@@@Z
	 

	 Name : ?FieldRepresentationDependencyOffTheRecord@CompilationDependencies@compiler@internal@v8@@QEBAPEBVCompilationDependency@234@VMapRef@234@0VInternalIndex@34@VRepresentation@34@@Z
	 

	 Name : ?FieldTypeDependencyOffTheRecord@CompilationDependencies@compiler@internal@v8@@QEBAPEBVCompilationDependency@234@VMapRef@234@0VInternalIndex@34@VObjectRef@234@@Z
	 

	 Name : ?FileName@SourceLocation@v8@@QEBAPEBDXZ
	 

	 Name : ?FinalizeGarbageCollection@StandaloneTestingHeap@testing@cppgc@@QEAAXW4EmbedderStackState@3@@Z
	 

	 Name : ?FindInstanceInPrototypeChain@Object@v8@@QEAA?AV?$Local@VObject@v8@@@2@V?$Local@VFunctionTemplate@v8@@@2@@Z
	 

	 Name : ?FindKnownSerializedValue@V8SerializationDuplicateTracker@v8_inspector@@AEAAPEAVDictionaryValue@protocol@2@V?$Local@VValue@v8@@@v8@@@Z
	 

	 Name : ?FindObjectById@HeapProfiler@v8@@QEAA?AV?$Local@VValue@v8@@@2@I@Z
	 

	 Name : ?Finish@WasmStreaming@v8@@QEAAX_N@Z
	 

	 Name : ?Flush@OptimizingCompileDispatcherQueue@internal@v8@@QEAAXPEAVIsolate@23@@Z
	 

	 Name : ?For@Symbol@v8@@SA?AV?$Local@VSymbol@v8@@@2@PEAVIsolate@2@V?$Local@VString@v8@@@2@@Z
	 

	 Name : ?ForApi@Private@v8@@SA?AV?$Local@VPrivate@v8@@@2@PEAVIsolate@2@V?$Local@VString@v8@@@2@@Z
	 

	 Name : ?ForApi@Symbol@v8@@SA?AV?$Local@VSymbol@v8@@@2@PEAVIsolate@2@V?$Local@VString@v8@@@2@@Z
	 

	 Name : ?ForceCompactionForNextGarbageCollection@StandaloneTestingHeap@testing@cppgc@@QEAAXXZ
	 

	 Name : ?ForceGarbageCollectionSlow@Heap@cppgc@@QEAAXPEBD0W4EmbedderStackState@2@@Z
	 

	 Name : ?FreeArrayBufferAllocator@node@@YAXPEAVArrayBufferAllocator@1@@Z
	 

	 Name : ?FreeBufferMemory@Delegate@ValueSerializer@v8@@UEAAXPEAX@Z
	 

	 Name : ?FreeEnvironment@node@@YAXPEAVEnvironment@1@@Z
	 

	 Name : ?FreeIsolateData@node@@YAXPEAVIsolateData@1@@Z
	 

	 Name : ?FreeNode@CrossThreadPersistentRegion@internal@cppgc@@QEAAXPEAVPersistentNode@23@@Z
	 

	 Name : ?FreeNode@PersistentRegion@internal@cppgc@@QEAAXPEAVPersistentNode@23@@Z
	 

	 Name : ?FreeNode@PersistentRegionBase@internal@cppgc@@IEAAXPEAVPersistentNode@23@@Z
	 

	 Name : ?FreePlatform@node@@YAXPEAVMultiIsolatePlatform@1@@Z
	 

	 Name : ?FreeUnreferencedObject@ExplicitManagementImpl@internal@cppgc@@CAXAEAVHeapHandle@3@PEAX@Z
	 

	 Name : ?FromCompiledModule@WasmModuleObject@v8@@SA?AV?$MaybeLocal@VWasmModuleObject@v8@@@2@PEAVIsolate@2@AEBVCompiledWasmModule@2@@Z
	 

	 Name : ?FromJustIsNothing@api_internal@v8@@YAXXZ
	 

	 Name : ?FromSnapshot@Context@v8@@SA?AV?$MaybeLocal@VContext@v8@@@2@PEAVIsolate@2@_KUDeserializeInternalFieldsCallback@2@PEAVExtensionConfiguration@2@V?$MaybeLocal@VValue@v8@@@2@PEAVMicrotaskQueue@2@UDeserializeContextDataCallback@2@UDeserializeAPIWrapperCallback@2@@Z
	 

	 Name : ?FullIsFalse@Value@v8@@AEBA_NXZ
	 

	 Name : ?FullIsNull@Value@v8@@AEBA_NXZ
	 

	 Name : ?FullIsString@Value@v8@@AEBA_NXZ
	 

	 Name : ?FullIsTrue@Value@v8@@AEBA_NXZ
	 

	 Name : ?FullIsUndefined@Value@v8@@AEBA_NXZ
	 

	 Name : ?Function@SourceLocation@v8@@QEBAPEBDXZ
	 

	 Name : ?FunctionProtoToString@Function@v8@@QEAA?AV?$MaybeLocal@VString@v8@@@2@V?$Local@VContext@v8@@@2@@Z
	 

	 Name : ?GCInfoFromIndex@GCInfoTable@internal@cppgc@@QEBAAEBUGCInfo@23@G@Z
	 

	 Name : ?GCInfoFromIndex@GlobalGCInfoTable@internal@cppgc@@SAAEBUGCInfo@23@G@Z
	 

	 Name : ?GenerationalBarrierForSourceObjectSlow@WriteBarrier@internal@cppgc@@CAXAEBUCagedHeapLocalData@23@PEBXPEAVHeapHandle@3@@Z
	 

	 Name : ?GenerationalBarrierForUncompressedSlotSlow@WriteBarrier@internal@cppgc@@CAXAEBUCagedHeapLocalData@23@AEBVAgeTable@23@PEBX_KPEAVHeapHandle@3@@Z
	 

	 Name : ?GenerationalBarrierSlow@WriteBarrier@internal@cppgc@@CAXAEBUCagedHeapLocalData@23@AEBVAgeTable@23@PEBX_KPEAVHeapHandle@3@@Z
	 

	 Name : ?Get@CageBaseGlobal@internal@cppgc@@SA_KXZ
	 

	 Name : ?Get@FixedArray@v8@@QEBA?AV?$Local@VData@v8@@@2@V?$Local@VContext@v8@@@2@H@Z
	 

	 Name : ?Get@GlobalGCInfoTable@internal@cppgc@@SAAEBVGCInfoTable@23@XZ
	 

	 Name : ?Get@LongTaskStats@metrics@v8@@SA?AU123@PEAVIsolate@3@@Z
	 

	 Name : ?Get@Map@v8@@QEAA?AV?$MaybeLocal@VValue@v8@@@2@V?$Local@VContext@v8@@@2@V?$Local@VValue@v8@@@2@@Z
	 

	 Name : ?Get@Message@v8@@QEBA?AV?$Local@VString@v8@@@2@XZ
	 

	 Name : ?Get@Object@v8@@QEAA?AV?$MaybeLocal@VValue@v8@@@2@V?$Local@VContext@v8@@@2@I@Z
	 

	 Name : ?Get@Object@v8@@QEAA?AV?$MaybeLocal@VValue@v8@@@2@V?$Local@VContext@v8@@@2@V?$Local@VValue@v8@@@2@@Z
	 

	 Name : ?Get@Object@v8@@QEAA?AV?$MaybeLocal@VValue@v8@@@2@V?$Local@VContext@v8@@@2@V?$Local@VValue@v8@@@2@V?$MaybeLocal@VObject@v8@@@2@@Z
	 

	 Name : ?Get@PrimitiveArray@v8@@QEAA?AV?$Local@VPrimitive@v8@@@2@PEAVIsolate@2@H@Z
	 

	 Name : ?GetAddress@CFunction@v8@@QEBAPEBXXZ
	 

	 Name : ?GetAge@AgeTable@internal@cppgc@@QEBA?AW4Age@123@_K@Z
	 

	 Name : ?GetAgeForRange@AgeTable@internal@cppgc@@QEBA?AW4Age@123@_K0@Z
	 

	 Name : ?GetAgeTableSize@CagedHeapBase@internal@cppgc@@SA_KXZ
	 

	 Name : ?GetAlignedPointerFromEmbedderData@Context@v8@@QEAAPEAXH@Z
	 

	 Name : ?GetAlignedPointerFromEmbedderData@Context@v8@@QEAAPEAXPEAVIsolate@2@H@Z
	 

	 Name : ?GetAlignedPointerFromEmbedderDataInCreationContext@Object@v8@@QEAAPEAXH@Z
	 

	 Name : ?GetAlignedPointerFromEmbedderDataInCreationContext@Object@v8@@QEAAPEAXPEAVIsolate@2@H@Z
	 

	 Name : ?GetAlignedPointerFromInternalField@Object@v8@@QEAAPEAXH@Z
	 

	 Name : ?GetAlignedPointerFromInternalField@Object@v8@@QEAAPEAXPEAVIsolate@2@H@Z
	 

	 Name : ?GetAlignedPointerFromInternalField@Object@v8@@SAPEAXAEBV?$BasicTracedReference@VObject@v8@@@2@H@Z
	 

	 Name : ?GetAlignedPointerFromInternalField@Object@v8@@SAPEAXAEBV?$PersistentBase@VObject@v8@@@2@H@Z
	 

	 Name : ?GetAllocationHandle@CppHeap@v8@@QEAAAEAVAllocationHandle@cppgc@@XZ
	 

	 Name : ?GetAllocationHandle@Heap@cppgc@@QEAAAEAVAllocationHandle@2@XZ
	 

	 Name : ?GetAllocationProfile@HeapProfiler@v8@@QEAAPEAVAllocationProfile@2@XZ
	 

	 Name : ?GetAnonymousMainPath@node@@YA?AV?$basic_string@DU?$char_traits@D@__Cr@std@@V?$allocator@D@23@@__Cr@std@@XZ
	 

	 Name : ?GetArrayBufferAllocator@Isolate@v8@@QEAAPEAVAllocator@ArrayBuffer@2@XZ
	 

	 Name : ?GetArrayBufferAllocator@node@@YAPEAVArrayBufferAllocator@1@PEAVIsolateData@1@@Z
	 

	 Name : ?GetAsyncIterator@Symbol@v8@@SA?AV?$Local@VSymbol@v8@@@2@PEAVIsolate@2@@Z
	 

	 Name : ?GetBackingStore@ArrayBuffer@v8@@QEAA?AV?$shared_ptr@VBackingStore@v8@@@__Cr@std@@XZ
	 

	 Name : ?GetBackingStore@SharedArrayBuffer@v8@@QEAA?AV?$shared_ptr@VBackingStore@v8@@@__Cr@std@@XZ
	 

	 Name : ?GetBailoutReason@CpuProfileNode@v8@@QEBAPEBDXZ
	 

	 Name : ?GetBase@CagedHeapBase@internal@cppgc@@SA_KXZ
	 

	 Name : ?GetBoundFunction@Function@v8@@QEBA?AV?$Local@VValue@v8@@@2@XZ
	 

	 Name : ?GetBuild@Version@internal@v8@@SAHXZ
	 

	 Name : ?GetChild@CpuProfileNode@v8@@QEBAPEBV12@H@Z
	 

	 Name : ?GetChild@HeapGraphNode@v8@@QEBAPEBVHeapGraphEdge@2@H@Z
	 

	 Name : ?GetChildrenCount@CpuProfileNode@v8@@QEBAHXZ
	 

	 Name : ?GetChildrenCount@HeapGraphNode@v8@@QEBAHXZ
	 

	 Name : ?GetChunkSize@OutputStream@v8@@UEAAHXZ
	 

	 Name : ?GetCodeEventTypeName@CodeEvent@v8@@SAPEBDW4CodeEventType@2@@Z
	 

	 Name : ?GetCodeRange@Isolate@v8@@QEAAXPEAPEAXPEA_K@Z
	 

	 Name : ?GetCodeSize@CodeEvent@v8@@QEAA_KXZ
	 

	 Name : ?GetCodeStartAddress@CodeEvent@v8@@QEAA_KXZ
	 

	 Name : ?GetCodeType@CodeEvent@v8@@QEAA?AW4CodeEventType@2@XZ
	 

	 Name : ?GetColumn@StackFrame@v8@@QEBAHXZ
	 

	 Name : ?GetColumnNumber@CpuProfileNode@v8@@QEBAHXZ
	 

	 Name : ?GetColumnNumber@Location@v8@@QEAAHXZ
	 

	 Name : ?GetColumnNumber@UnboundScript@v8@@QEAAHH@Z
	 

	 Name : ?GetComment@CodeEvent@v8@@QEAAPEBDXZ
	 

	 Name : ?GetCompileHints@CompileHintsCollector@v8@@QEBA?AV?$vector@HV?$allocator@H@__Cr@std@@@__Cr@std@@PEAVIsolate@2@@Z
	 

	 Name : ?GetCompileHintsCollector@Script@v8@@QEBA?AV?$Local@VCompileHintsCollector@v8@@@2@XZ
	 

	 Name : ?GetCompiledModule@WasmModuleObject@v8@@QEAA?AVCompiledWasmModule@2@XZ
	 

	 Name : ?GetConstructorName@Object@v8@@QEAA?AV?$Local@VString@v8@@@2@XZ
	 

	 Name : ?GetContents@ArrayBufferView@v8@@QEAA?AV?$MemorySpan@E@2@V32@@Z
	 

	 Name : ?GetContext@Recorder@metrics@v8@@SA?AV?$MaybeLocal@VContext@v8@@@3@PEAVIsolate@3@VContextId@123@@Z
	 

	 Name : ?GetContextId@Recorder@metrics@v8@@SA?AVContextId@123@V?$Local@VContext@v8@@@3@@Z
	 

	 Name : ?GetContinuationPreservedEmbedderData@Isolate@v8@@QEAA?AV?$Local@VValue@v8@@@2@XZ
	 

	 Name : ?GetCppHeap@Isolate@v8@@QEBAPEAVCppHeap@2@XZ
	 

	 Name : ?GetCreationContext@Object@v8@@QEAA?AV?$MaybeLocal@VContext@v8@@@2@PEAVIsolate@2@@Z
	 

	 Name : ?GetCreationContext@Object@v8@@QEAA?AV?$MaybeLocal@VContext@v8@@@2@XZ
	 

	 Name : ?GetCreationContext@Object@v8@@SA?AV?$MaybeLocal@VContext@v8@@@2@AEBV?$PersistentBase@VObject@v8@@@2@@Z
	 

	 Name : ?GetCreationContext@Object@v8@@SA?AV?$MaybeLocal@VContext@v8@@@2@PEAVIsolate@2@AEBV?$PersistentBase@VObject@v8@@@2@@Z
	 

	 Name : ?GetCreationContextChecked@Object@v8@@QEAA?AV?$Local@VContext@v8@@@2@PEAVIsolate@2@@Z
	 

	 Name : ?GetCreationContextChecked@Object@v8@@QEAA?AV?$Local@VContext@v8@@@2@XZ
	 

	 Name : ?GetCurrent@Isolate@v8@@SAPEAV12@XZ
	 

	 Name : ?GetCurrentContext@Isolate@v8@@QEAA?AV?$Local@VContext@v8@@@2@XZ
	 

	 Name : ?GetCurrentDepth@MicrotasksScope@v8@@SAHPEAVIsolate@2@@Z
	 

	 Name : ?GetCurrentEnvironment@node@@YAPEAVEnvironment@1@V?$Local@VContext@v8@@@v8@@@Z
	 

	 Name : ?GetCurrentEventLoop@node@@YAPEAUuv_loop_s@@PEAVIsolate@v8@@@Z
	 

	 Name : ?GetCurrentHostDefinedOptions@Isolate@v8@@QEAA?AV?$MaybeLocal@VData@v8@@@2@XZ
	 

	 Name : ?GetData@Isolate@v8@@QEAAPEAXI@Z
	 

	 Name : ?GetDataFromSnapshotOnce@Context@v8@@AEAAPEA_K_K@Z
	 

	 Name : ?GetDataFromSnapshotOnce@Isolate@v8@@AEAAPEA_K_K@Z
	 

	 Name : ?GetDebugName@Function@v8@@QEBA?AV?$Local@VValue@v8@@@2@XZ
	 

	 Name : ?GetDefaultLocale@Isolate@v8@@QEAA?AV?$basic_string@DU?$char_traits@D@__Cr@std@@V?$allocator@D@23@@__Cr@std@@XZ
	 

	 Name : ?GetDeoptInfos@CpuProfileNode@v8@@QEBAAEBV?$vector@UCpuProfileDeoptInfo@v8@@V?$allocator@UCpuProfileDeoptInfo@v8@@@__Cr@std@@@__Cr@std@@XZ
	 

	 Name : ?GetDetachedJSWrapperObjects@HeapProfiler@v8@@QEAA?AV?$vector@V?$Local@VValue@v8@@@v8@@V?$allocator@V?$Local@VValue@v8@@@v8@@@__Cr@std@@@__Cr@std@@XZ
	 

	 Name : ?GetEmbeddedCodeRange@Isolate@v8@@QEAAXPEAPEBXPEA_K@Z
	 

	 Name : ?GetEmbedder@Version@internal@v8@@SAPEBDXZ
	 

	 Name : ?GetEmbedderData@Context@v8@@QEAA?AV?$Local@VValue@v8@@@2@H@Z
	 

	 Name : ?GetEndColumn@Message@v8@@QEBA?AV?$Maybe@H@2@V?$Local@VContext@v8@@@2@@Z
	 

	 Name : ?GetEndColumn@Message@v8@@QEBAHXZ
	 

	 Name : ?GetEndPosition@Message@v8@@QEBAHXZ
	 

	 Name : ?GetEndTime@CpuProfile@v8@@QEBA_JXZ
	 

	 Name : ?GetEnteredOrMicrotaskContext@Isolate@v8@@QEAA?AV?$Local@VContext@v8@@@2@XZ
	 

	 Name : ?GetEnvironmentIsolateData@node@@YAPEAVIsolateData@1@PEAVEnvironment@1@@Z
	 

	 Name : ?GetError@ModuleWrap@loader@node@@CAXAEBV?$FunctionCallbackInfo@VValue@v8@@@v8@@@Z
	 

	 Name : ?GetException@Module@v8@@QEBA?AV?$Local@VValue@v8@@@2@XZ
	 

	 Name : ?GetExternalOneByteStringResource@String@v8@@QEBAPEBVExternalOneByteStringResource@12@XZ
	 

	 Name : ?GetExternalStringResource@String@v8@@QEBAPEAVExternalStringResource@12@XZ
	 

	 Name : ?GetExternalStringResourceBase@String@v8@@QEBAPEAVExternalStringResourceBase@12@PEAVIsolate@2@PEAW4Encoding@12@@Z
	 

	 Name : ?GetExternalStringResourceBase@String@v8@@QEBAPEAVExternalStringResourceBase@12@PEAW4Encoding@12@@Z
	 

	 Name : ?GetExternalStringResourceBaseSlow@String@v8@@AEBAPEAVExternalStringResourceBase@12@PEAW4Encoding@12@@Z
	 

	 Name : ?GetExternalStringResourceSlow@String@v8@@AEBAPEAVExternalStringResource@12@XZ
	 

	 Name : ?GetExtrasBindingObject@Context@v8@@QEAA?AV?$Local@VObject@v8@@@2@XZ
	 

	 Name : ?GetFlags@RegExp@v8@@QEBA?AW4Flags@12@XZ
	 

	 Name : ?GetForegroundTaskRunner@Platform@cppgc@@UEAA?AV?$shared_ptr@VTaskRunner@v8@@@__Cr@std@@W4TaskPriority@v8@@@Z
	 

	 Name : ?GetForegroundTaskRunner@Platform@cppgc@@UEAA?AV?$shared_ptr@VTaskRunner@v8@@@__Cr@std@@XZ
	 

	 Name : ?GetFrame@StackTrace@v8@@QEBA?AV?$Local@VStackFrame@v8@@@2@PEAVIsolate@2@I@Z
	 

	 Name : ?GetFrameCount@StackTrace@v8@@QEBAHXZ
	 

	 Name : ?GetFromModule@ModuleWrap@loader@node@@SAPEAV123@PEAVEnvironment@3@V?$Local@VModule@v8@@@v8@@@Z
	 

	 Name : ?GetFromNode@HeapGraphEdge@v8@@QEBAPEBVHeapGraphNode@2@XZ
	 

	 Name : ?GetFunction@FunctionTemplate@v8@@QEAA?AV?$MaybeLocal@VFunction@v8@@@2@V?$Local@VContext@v8@@@2@@Z
	 

	 Name : ?GetFunctionName@CodeEvent@v8@@QEAA?AV?$Local@VString@v8@@@2@XZ
	 

	 Name : ?GetFunctionName@CpuProfileNode@v8@@QEBA?AV?$Local@VString@v8@@@2@XZ
	 

	 Name : ?GetFunctionName@StackFrame@v8@@QEBA?AV?$Local@VString@v8@@@2@XZ
	 

	 Name : ?GetFunctionNameStr@CpuProfileNode@v8@@QEBAPEBDXZ
	 

	 Name : ?GetFunctionTemplateData@api_internal@v8@@YA?AV?$Local@VValue@v8@@@2@PEAVIsolate@2@V?$Local@VData@v8@@@2@@Z
	 

	 Name : ?GetHandler@Proxy@v8@@QEAA?AV?$Local@VValue@v8@@@2@XZ
	 

	 Name : ?GetHasInstance@Symbol@v8@@SA?AV?$Local@VSymbol@v8@@@2@PEAVIsolate@2@@Z
	 

	 Name : ?GetHeapCodeAndMetadataStatistics@Isolate@v8@@QEAA_NPEAVHeapCodeStatistics@2@@Z
	 

	 Name : ?GetHeapHandle@CppHeap@v8@@QEAAAEAVHeapHandle@cppgc@@XZ
	 

	 Name : ?GetHeapHandle@Heap@cppgc@@QEAAAEAVHeapHandle@2@XZ
	 

	 Name : ?GetHeapObjectStatisticsAtLastGC@Isolate@v8@@QEAA_NPEAVHeapObjectStatistics@2@_K@Z
	 

	 Name : ?GetHeapProfiler@Isolate@v8@@QEAAPEAVHeapProfiler@2@XZ
	 

	 Name : ?GetHeapSnapshot@HeapProfiler@v8@@QEAAPEBVHeapSnapshot@2@H@Z
	 

	 Name : ?GetHeapSpaceStatistics@Isolate@v8@@QEAA_NPEAVHeapSpaceStatistics@2@_K@Z
	 

	 Name : ?GetHeapStatistics@Isolate@v8@@QEAAXPEAVHeapStatistics@2@@Z
	 

	 Name : ?GetHeapStats@HeapProfiler@v8@@QEAAIPEAVOutputStream@2@PEA_J@Z
	 

	 Name : ?GetHitCount@CpuProfileNode@v8@@QEBAIXZ
	 

	 Name : ?GetHitLineCount@CpuProfileNode@v8@@QEBAIXZ
	 

	 Name : ?GetHostDefinedOptions@ScriptOrigin@v8@@QEBA?AV?$Local@VData@v8@@@2@XZ
	 

	 Name : ?GetID@StackTrace@v8@@QEBAHXZ
	 

	 Name : ?GetId@DiscardedSamplesDelegate@v8@@QEBAIXZ
	 

	 Name : ?GetId@HeapGraphNode@v8@@QEBAIXZ
	 

	 Name : ?GetId@UnboundScript@v8@@QEBAHXZ
	 

	 Name : ?GetIdentityHash@Module@v8@@QEBAHXZ
	 

	 Name : ?GetIdentityHash@Name@v8@@QEAAHXZ
	 

	 Name : ?GetIdentityHash@Object@v8@@QEAAHXZ
	 

	 Name : ?GetImportAssertions@ModuleRequest@v8@@QEBA?AV?$Local@VFixedArray@v8@@@2@XZ
	 

	 Name : ?GetImportAttributes@ModuleRequest@v8@@QEBA?AV?$Local@VFixedArray@v8@@@2@XZ
	 

	 Name : ?GetIncumbentContext@Isolate@v8@@QEAA?AV?$Local@VContext@v8@@@2@XZ
	 

	 Name : ?GetInferredName@Function@v8@@QEBA?AV?$Local@VValue@v8@@@2@XZ
	 

	 Name : ?GetInspectorParentHandle@node@@YA?AV?$unique_ptr@UInspectorParentHandle@node@@U?$default_delete@UInspectorParentHandle@node@@@__Cr@std@@@__Cr@std@@PEAVEnvironment@1@UThreadId@1@PEBD2@Z
	 

	 Name : ?GetInspectorParentHandle@node@@YA?AV?$unique_ptr@UInspectorParentHandle@node@@U?$default_delete@UInspectorParentHandle@node@@@__Cr@std@@@__Cr@std@@PEAVEnvironment@1@UThreadId@1@PEBD@Z
	 

	 Name : ?GetInt64Representation@CFunction@v8@@QEBA?AW4Int64Representation@CFunctionInfo@2@XZ
	 

	 Name : ?GetInt64Representation@CFunctionInfo@v8@@QEBA?AW4Int64Representation@12@XZ
	 

	 Name : ?GetInternalField@Object@v8@@QEAA?AV?$Local@VData@v8@@@2@H@Z
	 

	 Name : ?GetIsConcatSpreadable@Symbol@v8@@SA?AV?$Local@VSymbol@v8@@@2@PEAVIsolate@2@@Z
	 

	 Name : ?GetIsolate@Context@v8@@QEAAPEAVIsolate@2@XZ
	 

	 Name : ?GetIsolate@HandleScope@v8@@QEBAPEAVIsolate@2@XZ
	 

	 Name : ?GetIsolate@Message@v8@@QEBAPEAVIsolate@2@XZ
	 

	 Name : ?GetIsolate@Object@v8@@QEAAPEAVIsolate@2@XZ
	 

	 Name : ?GetIsolate@Object@v8@@SAPEAVIsolate@2@AEBV?$TracedReference@VObject@v8@@@2@@Z
	 

	 Name : ?GetIsolate@SnapshotCreator@v8@@QEAAPEAVIsolate@2@XZ
	 

	 Name : ?GetIterator@Symbol@v8@@SA?AV?$Local@VSymbol@v8@@@2@PEAVIsolate@2@@Z
	 

	 Name : ?GetJSEntryStubs@Isolate@v8@@QEAA?AUJSEntryStubs@2@XZ
	 

	 Name : ?GetLineNumber@CpuProfileNode@v8@@QEBAHXZ
	 

	 Name : ?GetLineNumber@Location@v8@@QEAAHXZ
	 

	 Name : ?GetLineNumber@Message@v8@@QEBA?AV?$Maybe@H@2@V?$Local@VContext@v8@@@2@@Z
	 

	 Name : ?GetLineNumber@StackFrame@v8@@QEBAHXZ
	 

	 Name : ?GetLineNumber@UnboundScript@v8@@QEAAHH@Z
	 

	 Name : ?GetLineTicks@CpuProfileNode@v8@@QEBA_NPEAULineTick@12@I@Z
	 

	 Name : ?GetLocation@StackFrame@v8@@QEBA?AVLocation@2@XZ
	 

	 Name : ?GetMainContext@node@@YA?AV?$Local@VContext@v8@@@v8@@PEAVEnvironment@1@@Z
	 

	 Name : ?GetMajor@Version@internal@v8@@SAHXZ
	 

	 Name : ?GetMatch@Symbol@v8@@SA?AV?$Local@VSymbol@v8@@@2@PEAVIsolate@2@@Z
	 

	 Name : ?GetMaxSnapshotJSObjectId@HeapSnapshot@v8@@QEBAIXZ
	 

	 Name : ?GetMicrotaskQueue@Context@v8@@QEAAPEAVMicrotaskQueue@2@XZ
	 

	 Name : ?GetMicrotasksPolicy@Isolate@v8@@QEBA?AW4MicrotasksPolicy@2@XZ
	 

	 Name : ?GetMinor@Version@internal@v8@@SAHXZ
	 

	 Name : ?GetModuleNamespace@Module@v8@@QEAA?AV?$Local@VValue@v8@@@2@XZ
	 

	 Name : ?GetModuleRequests@Module@v8@@QEBA?AV?$Local@VFixedArray@v8@@@2@XZ
	 

	 Name : ?GetModuleRequestsSync@ModuleWrap@loader@node@@CAXAEBV?$FunctionCallbackInfo@VValue@v8@@@v8@@@Z
	 

	 Name : ?GetMultiIsolatePlatform@node@@YAPEAVMultiIsolatePlatform@1@PEAVEnvironment@1@@Z
	 

	 Name : ?GetMultiIsolatePlatform@node@@YAPEAVMultiIsolatePlatform@1@PEAVIsolateData@1@@Z
	 

	 Name : ?GetMutable@GlobalGCInfoTable@internal@cppgc@@SAAEAVGCInfoTable@23@XZ
	 

	 Name : ?GetName@Function@v8@@QEBA?AV?$Local@VValue@v8@@@2@XZ
	 

	 Name : ?GetName@HeapGraphEdge@v8@@QEBA?AV?$Local@VValue@v8@@@2@XZ
	 

	 Name : ?GetName@HeapGraphNode@v8@@QEBA?AV?$Local@VString@v8@@@2@XZ
	 

	 Name : ?GetNameFromTypeSignature@NameTraitBase@internal@cppgc@@KA?AUHeapObjectName@23@PEBD@Z
	 

	 Name : ?GetNamespace@ModuleWrap@loader@node@@CAXAEBV?$FunctionCallbackInfo@VValue@v8@@@v8@@@Z
	 

	 Name : ?GetNamespaceSync@ModuleWrap@loader@node@@CAXAEBV?$FunctionCallbackInfo@VValue@v8@@@v8@@@Z
	 

	 Name : ?GetNativeFunctionTemplate@Extension@v8@@UEAA?AV?$Local@VFunctionTemplate@v8@@@2@PEAVIsolate@2@V?$Local@VString@v8@@@2@@Z
	 

	 Name : ?GetNode@HeapSnapshot@v8@@QEBAPEBVHeapGraphNode@2@H@Z
	 

	 Name : ?GetNodeById@HeapSnapshot@v8@@QEBAPEBVHeapGraphNode@2@I@Z
	 

	 Name : ?GetNodeId@CpuProfileNode@v8@@QEBAIXZ
	 

	 Name : ?GetNodeReport@node@@YAXPEAVEnvironment@1@PEBD1V?$Local@VValue@v8@@@v8@@AEAV?$basic_ostream@DU?$char_traits@D@__Cr@std@@@__Cr@std@@@Z
	 

	 Name : ?GetNodeReport@node@@YAXPEAVIsolate@v8@@PEBD1V?$Local@VValue@v8@@@3@AEAV?$basic_ostream@DU?$char_traits@D@__Cr@std@@@__Cr@std@@@Z
	 

	 Name : ?GetNodesCount@HeapSnapshot@v8@@QEBAHXZ
	 

	 Name : ?GetNumberOfDataSlots@Isolate@v8@@SAIXZ
	 

	 Name : ?GetNumberOfEmbedderDataFields@Context@v8@@QEAAIXZ
	 

	 Name : ?GetObjectId@HeapProfiler@v8@@QEAAIPEAX@Z
	 

	 Name : ?GetObjectId@HeapProfiler@v8@@QEAAIV?$Local@VValue@v8@@@2@@Z
	 

	 Name : ?GetObjectSizeForGarbageCollected@BaseObjectSizeTrait@internal@cppgc@@KA_KPEBX@Z
	 

	 Name : ?GetObjectSizeForGarbageCollectedMixin@BaseObjectSizeTrait@internal@cppgc@@KA_KPEBX@Z
	 

	 Name : ?GetOverloadResolution@CFunction@v8@@QEAA?AW4OverloadResolution@12@PEBV12@@Z
	 

	 Name : ?GetOwnPropertyDescriptor@Object@v8@@QEAA?AV?$MaybeLocal@VValue@v8@@@2@V?$Local@VContext@v8@@@2@V?$Local@VName@v8@@@2@@Z
	 

	 Name : ?GetOwnPropertyNames@Object@v8@@QEAA?AV?$MaybeLocal@VArray@v8@@@2@V?$Local@VContext@v8@@@2@@Z
	 

	 Name : ?GetOwnPropertyNames@Object@v8@@QEAA?AV?$MaybeLocal@VArray@v8@@@2@V?$Local@VContext@v8@@@2@W4PropertyFilter@2@W4KeyConversionMode@2@@Z
	 

	 Name : ?GetParent@CpuProfileNode@v8@@QEBAPEBV12@XZ
	 

	 Name : ?GetPatch@Version@internal@v8@@SAHXZ
	 

	 Name : ?GetPersistentRegion@StrongCrossThreadPersistentPolicy@internal@cppgc@@SAAEAVCrossThreadPersistentRegion@23@PEBX@Z
	 

	 Name : ?GetPersistentRegion@StrongPersistentPolicy@internal@cppgc@@SAAEAVPersistentRegion@23@PEBX@Z
	 

	 Name : ?GetPersistentRegion@WeakCrossThreadPersistentPolicy@internal@cppgc@@SAAEAVCrossThreadPersistentRegion@23@PEBX@Z
	 

	 Name : ?GetPersistentRegion@WeakPersistentPolicy@internal@cppgc@@SAAEAVPersistentRegion@23@PEBX@Z
	 

	 Name : ?GetPhase@ModuleRequest@v8@@QEBA?AW4ModuleImportPhase@2@XZ
	 

	 Name : ?GetPreviousCodeStartAddress@CodeEvent@v8@@QEAA_KXZ
	 

	 Name : ?GetPrivate@Object@v8@@QEAA?AV?$MaybeLocal@VValue@v8@@@2@V?$Local@VContext@v8@@@2@V?$Local@VPrivate@v8@@@2@@Z
	 

	 Name : ?GetProducedCompileHints@Script@v8@@QEBA?AV?$vector@HV?$allocator@H@__Cr@std@@@__Cr@std@@XZ
	 

	 Name : ?GetPromise@Resolver@Promise@v8@@QEAA?AV?$Local@VPromise@v8@@@3@XZ
	 

	 Name : ?GetPropertyAttributes@Object@v8@@QEAA?AV?$Maybe@W4PropertyAttribute@v8@@@2@V?$Local@VContext@v8@@@2@V?$Local@VValue@v8@@@2@@Z
	 

	 Name : ?GetPropertyNames@Object@v8@@QEAA?AV?$MaybeLocal@VArray@v8@@@2@V?$Local@VContext@v8@@@2@@Z
	 

	 Name : ?GetPropertyNames@Object@v8@@QEAA?AV?$MaybeLocal@VArray@v8@@@2@V?$Local@VContext@v8@@@2@W4KeyCollectionMode@2@W4PropertyFilter@2@W4IndexFilter@2@W4KeyConversionMode@2@@Z
	 

	 Name : ?GetPrototype@Object@v8@@QEAA?AV?$Local@VValue@v8@@@2@XZ
	 

	 Name : ?GetPrototypeV2@Object@v8@@QEAA?AV?$Local@VValue@v8@@@2@XZ
	 

	 Name : ?GetRealNamedProperty@Object@v8@@QEAA?AV?$MaybeLocal@VValue@v8@@@2@V?$Local@VContext@v8@@@2@V?$Local@VName@v8@@@2@@Z
	 

	 Name : ?GetRealNamedPropertyAttributes@Object@v8@@QEAA?AV?$Maybe@W4PropertyAttribute@v8@@@2@V?$Local@VContext@v8@@@2@V?$Local@VName@v8@@@2@@Z
	 

	 Name : ?GetRealNamedPropertyAttributesInPrototypeChain@Object@v8@@QEAA?AV?$Maybe@W4PropertyAttribute@v8@@@2@V?$Local@VContext@v8@@@2@V?$Local@VName@v8@@@2@@Z
	 

	 Name : ?GetRealNamedPropertyInPrototypeChain@Object@v8@@QEAA?AV?$MaybeLocal@VValue@v8@@@2@V?$Local@VContext@v8@@@2@V?$Local@VName@v8@@@2@@Z
	 

	 Name : ?GetReplace@Symbol@v8@@SA?AV?$Local@VSymbol@v8@@@2@PEAVIsolate@2@@Z
	 

	 Name : ?GetResourceName@Script@v8@@QEAA?AV?$Local@VValue@v8@@@2@XZ
	 

	 Name : ?GetResourceName@ScriptOrModule@v8@@QEAA?AV?$Local@VValue@v8@@@2@XZ
	 

	 Name : ?GetRoot@HeapSnapshot@v8@@QEBAPEBVHeapGraphNode@2@XZ
	 

	 Name : ?GetSONAME@Version@internal@v8@@SAXV?$Vector@D@base@3@@Z
	 

	 Name : ?GetSample@CpuProfile@v8@@QEBAPEBVCpuProfileNode@2@H@Z
	 

	 Name : ?GetSampleEmbedderState@CpuProfile@v8@@QEBA?AW4EmbedderStateTag@2@H@Z
	 

	 Name : ?GetSampleState@CpuProfile@v8@@QEBA?AW4StateTag@2@H@Z
	 

	 Name : ?GetSampleTimestamp@CpuProfile@v8@@QEBA_JH@Z
	 

	 Name : ?GetSamplesCount@CpuProfile@v8@@QEBAHXZ
	 

	 Name : ?GetSandboxAddressSpace@V8@v8@@SAPEAVVirtualAddressSpace@2@XZ
	 

	 Name : ?GetSandboxReservationSizeInBytes@V8@v8@@SA_KXZ
	 

	 Name : ?GetSandboxSizeInBytes@V8@v8@@SA_KXZ
	 

	 Name : ?GetScriptColumn@CodeEvent@v8@@QEAAHXZ
	 

	 Name : ?GetScriptColumnNumber@Function@v8@@QEBAHXZ
	 

	 Name : ?GetScriptId@CpuProfileNode@v8@@QEBAHXZ
	 

	 Name : ?GetScriptId@StackFrame@v8@@QEBAHXZ
	 

	 Name : ?GetScriptLine@CodeEvent@v8@@QEAAHXZ
	 

	 Name : ?GetScriptLineNumber@Function@v8@@QEBAHXZ
	 

	 Name : ?GetScriptName@CodeEvent@v8@@QEAA?AV?$Local@VString@v8@@@2@XZ
	 

	 Name : ?GetScriptName@StackFrame@v8@@QEBA?AV?$Local@VString@v8@@@2@XZ
	 

	 Name : ?GetScriptName@UnboundScript@v8@@QEAA?AV?$Local@VValue@v8@@@2@XZ
	 

	 Name : ?GetScriptNameOrSourceURL@StackFrame@v8@@QEBA?AV?$Local@VString@v8@@@2@XZ
	 

	 Name : ?GetScriptOrigin@Function@v8@@QEBA?AVScriptOrigin@2@XZ
	 

	 Name : ?GetScriptOrigin@Message@v8@@QEBA?AVScriptOrigin@2@XZ
	 

	 Name : ?GetScriptResourceName@CpuProfileNode@v8@@QEBA?AV?$Local@VString@v8@@@2@XZ
	 

	 Name : ?GetScriptResourceName@Message@v8@@QEBA?AV?$Local@VValue@v8@@@2@XZ
	 

	 Name : ?GetScriptResourceNameStr@CpuProfileNode@v8@@QEBAPEBDXZ
	 

	 Name : ?GetScriptSource@StackFrame@v8@@QEBA?AV?$Local@VString@v8@@@2@XZ
	 

	 Name : ?GetScriptSourceMappingURL@StackFrame@v8@@QEBA?AV?$Local@VString@v8@@@2@XZ
	 

	 Name : ?GetScriptStartPosition@Function@v8@@QEBAHXZ
	 

	 Name : ?GetSearch@Symbol@v8@@SA?AV?$Local@VSymbol@v8@@@2@PEAVIsolate@2@@Z
	 

	 Name : ?GetSecurityToken@Context@v8@@QEAA?AV?$Local@VValue@v8@@@2@XZ
	 

	 Name : ?GetShallowSize@HeapGraphNode@v8@@QEBA_KXZ
	 

	 Name : ?GetSharedArrayBufferFromId@Delegate@ValueDeserializer@v8@@UEAA?AV?$MaybeLocal@VSharedArrayBuffer@v8@@@3@PEAVIsolate@3@I@Z
	 

	 Name : ?GetSharedArrayBufferId@Delegate@ValueSerializer@v8@@UEAA?AV?$Maybe@I@3@PEAVIsolate@3@V?$Local@VSharedArrayBuffer@v8@@@3@@Z
	 

	 Name : ?GetSharedMemoryStatistics@V8@v8@@SAXPEAVSharedMemoryStatistics@2@@Z
	 

	 Name : ?GetSharedValueConveyor@Delegate@ValueDeserializer@v8@@UEAAPEBVSharedValueConveyor@3@PEAVIsolate@3@@Z
	 

	 Name : ?GetSnapshotCount@HeapProfiler@v8@@QEAAHXZ
	 

	 Name : ?GetSource@Message@v8@@QEBA?AV?$MaybeLocal@VString@v8@@@2@V?$Local@VContext@v8@@@2@@Z
	 

	 Name : ?GetSource@RegExp@v8@@QEBA?AV?$Local@VString@v8@@@2@XZ
	 

	 Name : ?GetSourceLine@Message@v8@@QEBA?AV?$MaybeLocal@VString@v8@@@2@V?$Local@VContext@v8@@@2@@Z
	 

	 Name : ?GetSourceMappingURL@UnboundModuleScript@v8@@QEAA?AV?$Local@VValue@v8@@@2@XZ
	 

	 Name : ?GetSourceMappingURL@UnboundScript@v8@@QEAA?AV?$Local@VValue@v8@@@2@XZ
	 

	 Name : ?GetSourceOffset@ModuleRequest@v8@@QEBAHXZ
	 

	 Name : ?GetSourceType@CpuProfileNode@v8@@QEBA?AW4SourceType@12@XZ
	 

	 Name : ?GetSourceURL@UnboundModuleScript@v8@@QEAA?AV?$Local@VValue@v8@@@2@XZ
	 

	 Name : ?GetSourceURL@UnboundScript@v8@@QEAA?AV?$Local@VValue@v8@@@2@XZ
	 

	 Name : ?GetSpecifier@ModuleRequest@v8@@QEBA?AV?$Local@VString@v8@@@2@XZ
	 

	 Name : ?GetSplit@Symbol@v8@@SA?AV?$Local@VSymbol@v8@@@2@PEAVIsolate@2@@Z
	 

	 Name : ?GetStackSample@Isolate@v8@@QEAAXAEBURegisterState@2@PEAPEAX_KPEAUSampleInfo@2@@Z
	 

	 Name : ?GetStackSample@TickSample@internal@v8@@SA_NPEAVIsolate@23@PEAURegisterState@3@W4RecordCEntryFrame@123@PEAPEAX_KPEAUSampleInfo@3@PEAW4StateTag@3@_N@Z
	 

	 Name : ?GetStackTrace@Exception@v8@@SA?AV?$Local@VStackTrace@v8@@@2@V?$Local@VValue@v8@@@2@@Z
	 

	 Name : ?GetStackTrace@Message@v8@@QEBA?AV?$Local@VStackTrace@v8@@@2@XZ
	 

	 Name : ?GetStackTraceLimit@Isolate@v8@@QEAAHXZ
	 

	 Name : ?GetStalledTopLevelAwaitMessages@Module@v8@@QEAA?AU?$pair@V?$LocalVector@VModule@v8@@@v8@@V?$LocalVector@VMessage@v8@@@2@@__Cr@std@@PEAVIsolate@2@@Z
	 

	 Name : ?GetStartColumn@Message@v8@@QEBA?AV?$Maybe@H@2@V?$Local@VContext@v8@@@2@@Z
	 

	 Name : ?GetStartColumn@Message@v8@@QEBAHXZ
	 

	 Name : ?GetStartPosition@Message@v8@@QEBAHXZ
	 

	 Name : ?GetStartTime@CpuProfile@v8@@QEBA_JXZ
	 

	 Name : ?GetStaticDependencySpecifiers@ModuleWrap@loader@node@@CAXAEBV?$FunctionCallbackInfo@VValue@v8@@@v8@@@Z
	 

	 Name : ?GetStatus@Module@v8@@QEBA?AW4Status@12@XZ
	 

	 Name : ?GetStatus@ModuleWrap@loader@node@@CAXAEBV?$FunctionCallbackInfo@VValue@v8@@@v8@@@Z
	 

	 Name : ?GetString@Version@internal@v8@@SAXV?$Vector@D@base@3@@Z
	 

	 Name : ?GetTarget@Proxy@v8@@QEAA?AV?$Local@VValue@v8@@@2@XZ
	 

	 Name : ?GetTitle@CpuProfile@v8@@QEBA?AV?$Local@VString@v8@@@2@XZ
	 

	 Name : ?GetToNode@HeapGraphEdge@v8@@QEBAPEBVHeapGraphNode@2@XZ
	 

	 Name : ?GetToPrimitive@Symbol@v8@@SA?AV?$Local@VSymbol@v8@@@2@PEAVIsolate@2@@Z
	 

	 Name : ?GetToStringTag@Symbol@v8@@SA?AV?$Local@VSymbol@v8@@@2@PEAVIsolate@2@@Z
	 

	 Name : ?GetTopDownRoot@CpuProfile@v8@@QEBAPEBVCpuProfileNode@2@XZ
	 

	 Name : ?GetTraceDescriptor@TraceTraitFromInnerAddressImpl@internal@cppgc@@SA?AUTraceDescriptor@3@PEBX@Z
	 

	 Name : ?GetTracingController@Platform@cppgc@@UEAAPEAVTracingController@v8@@XZ
	 

	 Name : ?GetTracingController@node@@YAPEAVTracingController@v8@@XZ
	 

	 Name : ?GetType@HeapGraphEdge@v8@@QEBA?AW4Type@12@XZ
	 

	 Name : ?GetType@HeapGraphNode@v8@@QEBA?AW4Type@12@XZ
	 

	 Name : ?GetTypeInfo@CFunction@v8@@QEBAPEBVCFunctionInfo@2@XZ
	 

	 Name : ?GetUnboundModuleScript@Module@v8@@QEAA?AV?$Local@VUnboundModuleScript@v8@@@2@XZ
	 

	 Name : ?GetUnboundScript@Script@v8@@QEAA?AV?$Local@VUnboundScript@v8@@@2@XZ
	 

	 Name : ?GetUnscopables@Symbol@v8@@SA?AV?$Local@VSymbol@v8@@@2@PEAVIsolate@2@@Z
	 

	 Name : ?GetVersion@V8@v8@@SAPEBDXZ
	 

	 Name : ?GetVersion@Version@internal@v8@@SAPEBDXZ
	 

	 Name : ?GetWasmFunctionIndex@Message@v8@@QEBAHXZ
	 

	 Name : ?GetWasmModuleFromId@Delegate@ValueDeserializer@v8@@UEAA?AV?$MaybeLocal@VWasmModuleObject@v8@@@3@PEAVIsolate@3@I@Z
	 

	 Name : ?GetWasmModuleTransferId@Delegate@ValueSerializer@v8@@UEAA?AV?$Maybe@I@3@PEAVIsolate@3@V?$Local@VWasmModuleObject@v8@@@3@@Z
	 

	 Name : ?GetWireBytesRef@CompiledWasmModule@v8@@QEAA?AV?$MemorySpan@$$CBE@2@XZ
	 

	 Name : ?GetWireFormatVersion@ValueDeserializer@v8@@QEBAIXZ
	 

	 Name : ?GetWriteBarrierType@WriteBarrier@internal@cppgc@@SA?AW4Type@123@PEBX0AEAUParams@123@@Z
	 

	 Name : ?GetWriteBarrierType@WriteBarrier@internal@cppgc@@SA?AW4Type@123@PEBXAEAUParams@123@@Z
	 

	 Name : ?Global@Context@v8@@QEAA?AV?$Local@VObject@v8@@@2@XZ
	 

	 Name : ?GlobalizeReference@api_internal@v8@@YAPEA_KPEAVIsolate@internal@2@_K@Z
	 

	 Name : ?GlobalizeTracedReference@internal@v8@@YAPEA_KPEAVIsolate@12@_KPEA_KW4TracedReferenceStoreMode@12@W4TracedReferenceHandling@12@@Z
	 

	 Name : ?HandleExternalMemoryInterrupt@Isolate@v8@@AEAAXXZ
	 

	 Name : ?HandleMovableReference@Visitor@cppgc@@MEAAXPEAPEBX@Z
	 

	 Name : ?Has@Map@v8@@QEAA?AV?$Maybe@_N@2@V?$Local@VContext@v8@@@2@V?$Local@VValue@v8@@@2@@Z
	 

	 Name : ?Has@Object@v8@@QEAA?AV?$Maybe@_N@2@V?$Local@VContext@v8@@@2@I@Z
	 

	 Name : ?Has@Object@v8@@QEAA?AV?$Maybe@_N@2@V?$Local@VContext@v8@@@2@V?$Local@VValue@v8@@@2@@Z
	 

	 Name : ?Has@Set@v8@@QEAA?AV?$Maybe@_N@2@V?$Local@VContext@v8@@@2@V?$Local@VValue@v8@@@2@@Z
	 

	 Name : ?HasBuffer@ArrayBufferView@v8@@QEBA_NXZ
	 

	 Name : ?HasCaught@TryCatch@v8@@QEBA_NXZ
	 

	 Name : ?HasCustomHostObject@Delegate@ValueSerializer@v8@@UEAA_NPEAVIsolate@3@@Z
	 

	 Name : ?HasHandler@Promise@v8@@QEBA_NXZ
	 

	 Name : ?HasIndexedLookupInterceptor@Object@v8@@QEBA_NXZ
	 

	 Name : ?HasInstance@Buffer@node@@YA_NV?$Local@VObject@v8@@@v8@@@Z
	 

	 Name : ?HasInstance@Buffer@node@@YA_NV?$Local@VValue@v8@@@v8@@@Z
	 

	 Name : ?HasInstance@FunctionTemplate@v8@@QEAA_NV?$Local@VValue@v8@@@2@@Z
	 

	 Name : ?HasNamedLookupInterceptor@Object@v8@@QEBA_NXZ
	 

	 Name : ?HasOptions@CFunctionInfo@v8@@QEBA_NXZ
	 

	 Name : ?HasOwnProperty@Object@v8@@QEAA?AV?$Maybe@_N@2@V?$Local@VContext@v8@@@2@I@Z
	 

	 Name : ?HasOwnProperty@Object@v8@@QEAA?AV?$Maybe@_N@2@V?$Local@VContext@v8@@@2@V?$Local@VName@v8@@@2@@Z
	 

	 Name : ?HasPendingBackgroundTasks@Isolate@v8@@QEAA_NXZ
	 

	 Name : ?HasPendingException@Isolate@v8@@QEAA_NXZ
	 

	 Name : ?HasPrivate@Object@v8@@QEAA?AV?$Maybe@_N@2@V?$Local@VContext@v8@@@2@V?$Local@VPrivate@v8@@@2@@Z
	 

	 Name : ?HasRealIndexedProperty@Object@v8@@QEAA?AV?$Maybe@_N@2@V?$Local@VContext@v8@@@2@I@Z
	 

	 Name : ?HasRealNamedCallbackProperty@Object@v8@@QEAA?AV?$Maybe@_N@2@V?$Local@VContext@v8@@@2@V?$Local@VName@v8@@@2@@Z
	 

	 Name : ?HasRealNamedProperty@Object@v8@@QEAA?AV?$Maybe@_N@2@V?$Local@VContext@v8@@@2@V?$Local@VName@v8@@@2@@Z
	 

	 Name : ?HasTemplateLiteralObject@Context@v8@@QEAA_NV?$Local@VValue@v8@@@2@@Z
	 

	 Name : ?HasTerminated@TryCatch@v8@@QEBA_NXZ
	 

	 Name : ?HasTopLevelAwait@Module@v8@@QEBA_NXZ
	 

	 Name : ?Hash@Version@internal@v8@@SAIXZ
	 

	 Name : ?HostDefinedOptions@ScriptOrModule@v8@@QEAA?AV?$Local@VData@v8@@@2@XZ
	 

	 Name : ?HostInitializeImportMetaObjectCallback@ModuleWrap@loader@node@@SAXV?$Local@VContext@v8@@@v8@@V?$Local@VModule@v8@@@5@V?$Local@VObject@v8@@@5@@Z
	 

	 Name : ?ImportModuleDynamically@loader@node@@YA?AV?$MaybeLocal@VPromise@v8@@@v8@@V?$Local@VContext@v8@@@4@V?$Local@VData@v8@@@4@V?$Local@VValue@v8@@@4@V?$Local@VString@v8@@@4@V?$Local@VFixedArray@v8@@@4@@Z
	 

	 Name : ?InContext@Isolate@v8@@QEAA_NXZ
	 

	 Name : ?InYoungGenerationForStickyMarkbits@HeapLayout@internal@v8@@CA_NPEBVMemoryChunk@23@V?$Tagged@VHeapObject@internal@v8@@@23@@Z
	 

	 Name : ?IncreaseHeapLimitForDebugging@Isolate@v8@@QEAAXXZ
	 

	 Name : ?Inherit@FunctionTemplate@v8@@QEAAXV?$Local@VFunctionTemplate@v8@@@2@@Z
	 

	 Name : ?Init@TickSample@internal@v8@@QEAAXPEAVIsolate@23@AEBURegisterState@3@W4RecordCEntryFrame@123@_N3VTimeDelta@base@3@@Z
	 

	 Name : ?InitialTableLimit@GCInfoTable@internal@cppgc@@AEBAGXZ
	 

	 Name : ?Initialize@GlobalGCInfoTable@internal@cppgc@@SAXAEAVPageAllocator@v8@@@Z
	 

	 Name : ?Initialize@HandleScope@v8@@IEAAXPEAVIsolate@2@@Z
	 

	 Name : ?Initialize@Isolate@v8@@SAXPEAV12@AEBUCreateParams@12@@Z
	 

	 Name : ?Initialize@Locker@v8@@AEAAXPEAVIsolate@2@@Z
	 

	 Name : ?Initialize@ThreadIsolation@internal@v8@@SAXPEAVThreadIsolatedAllocator@3@@Z
	 

	 Name : ?Initialize@Unlocker@v8@@AEAAXPEAVIsolate@2@@Z
	 

	 Name : ?Initialize@V8@v8@@CA_NH@Z
	 

	 Name : ?Initialize@V8@v8@@SA_NXZ
	 

	 Name : ?InitializeBeforeThreadCreation@SandboxHardwareSupport@v8@@SAXXZ
	 

	 Name : ?InitializeContext@node@@YA?AV?$Maybe@_N@v8@@V?$Local@VContext@v8@@@3@@Z
	 

	 Name : ?InitializeExternalStartupData@V8@v8@@SAXPEBD@Z
	 

	 Name : ?InitializeExternalStartupDataFromFile@V8@v8@@SAXPEBD@Z
	 

	 Name : ?InitializeICU@V8@v8@@SA_NPEBD@Z
	 

	 Name : ?InitializeICUDefaultLocation@V8@v8@@SA_NPEBD0@Z
	 

	 Name : ?InitializeNodeWithArgs@node@@YAHPEAV?$vector@V?$basic_string@DU?$char_traits@D@__Cr@std@@V?$allocator@D@23@@__Cr@std@@V?$allocator@V?$basic_string@DU?$char_traits@D@__Cr@std@@V?$allocator@D@23@@__Cr@std@@@23@@__Cr@std@@00W4Flags@ProcessInitializationFlags@1@@Z
	 

	 Name : ?InitializeOncePerProcess@node@@YA?AV?$unique_ptr@VInitializationResult@node@@U?$default_delete@VInitializationResult@node@@@__Cr@std@@@__Cr@std@@AEBV?$vector@V?$basic_string@DU?$char_traits@D@__Cr@std@@V?$allocator@D@23@@__Cr@std@@V?$allocator@V?$basic_string@DU?$char_traits@D@__Cr@std@@V?$allocator@D@23@@__Cr@std@@@23@@34@W4Flags@ProcessInitializationFlags@1@@Z
	 

	 Name : ?InitializePlatform@V8@v8@@SAXPEAVPlatform@2@@Z
	 

	 Name : ?InitializeProcess@cppgc@@YAXPEAVPageAllocator@v8@@_K@Z
	 

	 Name : ?InstallConditionalFeatures@Isolate@v8@@QEAAXV?$Local@VContext@v8@@@2@@Z
	 

	 Name : ?InstanceOf@Value@v8@@QEAA?AV?$Maybe@_N@2@V?$Local@VContext@v8@@@2@V?$Local@VObject@v8@@@2@@Z
	 

	 Name : ?InstanceTemplate@FunctionTemplate@v8@@QEAA?AV?$Local@VObjectTemplate@v8@@@2@XZ
	 

	 Name : ?Instantiate@ModuleWrap@loader@node@@CAXAEBV?$FunctionCallbackInfo@VValue@v8@@@v8@@@Z
	 

	 Name : ?InstantiateModule@Module@v8@@QEAA?AV?$Maybe@_N@2@V?$Local@VContext@v8@@@2@P6A?AV?$MaybeLocal@VModule@v8@@@2@0V?$Local@VString@v8@@@2@V?$Local@VFixedArray@v8@@@2@V?$Local@VModule@v8@@@2@@ZP6A?AV?$MaybeLocal@VObject@v8@@@2@0123@Z@Z
	 

	 Name : ?InstantiateSync@ModuleWrap@loader@node@@CAXAEBV?$FunctionCallbackInfo@VValue@v8@@@v8@@@Z
	 

	 Name : ?Instrumentation@ReasonEnum@Paused@API@Debugger@protocol@v8_inspector@@3PEBDEB
	 

	 Name : ?Int32Value@Value@v8@@QEBA?AV?$Maybe@H@2@V?$Local@VContext@v8@@@2@@Z
	 

	 Name : ?Int64Value@BigInt@v8@@QEBA_JPEA_N@Z
	 

	 Name : ?IntegerValue@Value@v8@@QEBA?AV?$Maybe@_J@2@V?$Local@VContext@v8@@@2@@Z
	 

	 Name : ?InternalFieldCount@Object@v8@@QEBAHXZ
	 

	 Name : ?InternalFieldCount@Object@v8@@SAHAEBV?$BasicTracedReference@VObject@v8@@@2@@Z
	 

	 Name : ?InternalFieldCount@Object@v8@@SAHAEBV?$PersistentBase@VObject@v8@@@2@@Z
	 

	 Name : ?InternalFieldCount@ObjectTemplate@v8@@QEBAHXZ
	 

	 Name : ?InternalFieldOutOfBounds@api_internal@v8@@YAXH@Z
	 

	 Name : ?InternalizeString@String@v8@@QEAA?AV?$Local@VString@v8@@@2@PEAVIsolate@2@@Z
	 

	 Name : ?IsApiWrapper@Object@v8@@QEBA_NXZ
	 

	 Name : ?IsArgumentsObject@Value@v8@@QEBA_NXZ
	 

	 Name : ?IsArray@Value@v8@@QEBA_NXZ
	 

	 Name : ?IsArrayBuffer@Value@v8@@QEBA_NXZ
	 

	 Name : ?IsArrayBufferView@Value@v8@@QEBA_NXZ
	 

	 Name : ?IsAsyncFunction@Value@v8@@QEBA_NXZ
	 

	 Name : ?IsAvailable@OptimizingCompileDispatcherQueue@internal@v8@@QEAA_NXZ
	 

	 Name : ?IsBaseConsistent@CageBaseGlobal@internal@cppgc@@CA_NXZ
	 

	 Name : ?IsBigInt64Array@Value@v8@@QEBA_NXZ
	 

	 Name : ?IsBigInt@Value@v8@@QEBA_NXZ
	 

	 Name : ?IsBigIntObject@Value@v8@@QEBA_NXZ
	 

	 Name : ?IsBigUint64Array@Value@v8@@QEBA_NXZ
	 

	 Name : ?IsBoolean@Value@v8@@QEBA_NXZ
	 

	 Name : ?IsBooleanObject@Value@v8@@QEBA_NXZ
	 

	 Name : ?IsCacheable@ExternalStringResourceBase@String@v8@@UEBA_NXZ
	 

	 Name : ?IsCallable@Object@v8@@QEBA_NXZ
	 

	 Name : ?IsCandidate@Version@internal@v8@@SA_NXZ
	 

	 Name : ?IsCodeGenerationFromStringsAllowed@Context@v8@@QEBA_NXZ
	 

	 Name : ?IsCodeLike@Object@v8@@QEBA_NPEAVIsolate@2@@Z
	 

	 Name : ?IsCodeLike@ObjectTemplate@v8@@QEBA_NXZ
	 

	 Name : ?IsConstructor@Object@v8@@QEBA_NXZ
	 

	 Name : ?IsConstructor@StackFrame@v8@@QEBA_NXZ
	 

	 Name : ?IsContext@Data@v8@@QEBA_NXZ
	 

	 Name : ?IsCookieEncryptionEnabled@fuses@electron@@YA_NXZ
	 

	 Name : ?IsCreationThread@PersistentRegion@internal@cppgc@@AEAA_NXZ
	 

	 Name : ?IsCurrent@Isolate@v8@@QEBA_NXZ
	 

	 Name : ?IsDataView@Value@v8@@QEBA_NXZ
	 

	 Name : ?IsDate@Value@v8@@QEBA_NXZ
	 

	 Name : ?IsDead@Isolate@v8@@QEAA_NXZ
	 

	 Name : ?IsDetachable@ArrayBuffer@v8@@QEBA_NXZ
	 

	 Name : ?IsEmbeddedAsarIntegrityValidationEnabled@fuses@electron@@YA_NXZ
	 

	 Name : ?IsEnabled@WriteBarrier@internal@cppgc@@SA_NXZ
	 

	 Name : ?IsEnvironmentStopping@node@@YA_NPEAVIsolate@v8@@@Z
	 

	 Name : ?IsEval@StackFrame@v8@@QEBA_NXZ
	 

	 Name : ?IsExecutionTerminating@Isolate@v8@@QEAA_NXZ
	 

	 Name : ?IsExternal@String@v8@@QEBA_NXZ
	 

	 Name : ?IsExternal@Value@v8@@QEBA_NXZ
	 

	 Name : ?IsExternalOneByte@String@v8@@QEBA_NXZ
	 

	 Name : ?IsExternalTwoByte@String@v8@@QEBA_NXZ
	 

	 Name : ?IsFalse@Value@v8@@QEBA_NXZ
	 

	 Name : ?IsFixedArray@Data@v8@@QEBA_NXZ
	 

	 Name : ?IsFloat16Array@Value@v8@@QEBA_NXZ
	 

	 Name : ?IsFloat32Array@Value@v8@@QEBA_NXZ
	 

	 Name : ?IsFloat64Array@Value@v8@@QEBA_NXZ
	 

	 Name : ?IsFunction@Value@v8@@QEBA_NXZ
	 

	 Name : ?IsFunctionTemplate@Data@v8@@QEBA_NXZ
	 

	 Name : ?IsGarbageCollectionAllowed@DisallowGarbageCollectionScope@subtle@cppgc@@SA_NAEAVHeapHandle@3@@Z
	 

	 Name : ?IsGeneratorFunction@Value@v8@@QEBA_NXZ
	 

	 Name : ?IsGeneratorObject@Value@v8@@QEBA_NXZ
	 

	 Name : ?IsGrantFileProtocolExtraPrivilegesEnabled@fuses@electron@@YA_NXZ
	 

	 Name : ?IsGraphAsync@Module@v8@@QEBA_NXZ
	 

	 Name : ?IsHeapLimitIncreasedForDebugging@Isolate@v8@@QEAA_NXZ
	 

	 Name : ?IsHeapObjectAliveImpl@LivenessBroker@cppgc@@AEBA_NPEBX@Z
	 

	 Name : ?IsHeapObjectOld@testing@cppgc@@YA_NPEAX@Z
	 

	 Name : ?IsHostObject@Delegate@ValueSerializer@v8@@UEAA?AV?$Maybe@_N@3@PEAVIsolate@3@V?$Local@VObject@v8@@@3@@Z
	 

	 Name : ?IsImmutableProto@ObjectTemplate@v8@@QEBA_NXZ
	 

	 Name : ?IsInAtomicPause@HeapState@subtle@cppgc@@SA_NAEBVHeapHandle@3@@Z
	 

	 Name : ?IsInUse@Isolate@v8@@QEAA_NXZ
	 

	 Name : ?IsInt16Array@Value@v8@@QEBA_NXZ
	 

	 Name : ?IsInt32@Value@v8@@QEBA_NXZ
	 

	 Name : ?IsInt32Array@Value@v8@@QEBA_NXZ
	 

	 Name : ?IsInt8Array@Value@v8@@QEBA_NXZ
	 

	 Name : ?IsInvalid@V8StackTraceId@v8_inspector@@QEBA_NXZ
	 

	 Name : ?IsLeafTemplateForApiObject@FunctionTemplate@v8@@QEBA_NV?$Local@VValue@v8@@@2@@Z
	 

	 Name : ?IsLoadBrowserProcessSpecificV8SnapshotEnabled@fuses@electron@@YA_NXZ
	 

	 Name : ?IsLocked@Locker@v8@@SA_NPEAVIsolate@2@@Z
	 

	 Name : ?IsMap@Value@v8@@QEBA_NXZ
	 

	 Name : ?IsMapIterator@Value@v8@@QEBA_NXZ
	 

	 Name : ?IsMarking@HeapState@subtle@cppgc@@SA_NAEBVHeapHandle@3@@Z
	 

	 Name : ?IsModule@Data@v8@@QEBA_NXZ
	 

	 Name : ?IsModuleNamespaceObject@Value@v8@@QEBA_NXZ
	 

	 Name : ?IsName@Value@v8@@QEBA_NXZ
	 

	 Name : ?IsNativeError@Value@v8@@QEBA_NXZ
	 

	 Name : ?IsNodeCliInspectEnabled@fuses@electron@@YA_NXZ
	 

	 Name : ?IsNodeOptionsEnabled@fuses@electron@@YA_NXZ
	 

	 Name : ?IsNotIndicativeOfMemoryLeakAtExit@ModuleWrap@loader@node@@UEBA_NXZ
	 

	 Name : ?IsNull@Value@v8@@QEBA_NXZ
	 

	 Name : ?IsNullOrUndefined@Value@v8@@QEBA_NXZ
	 

	 Name : ?IsNumber@Value@v8@@QEBA_NXZ
	 

	 Name : ?IsNumberObject@Value@v8@@QEBA_NXZ
	 

	 Name : ?IsObject@Value@v8@@QEBA_NXZ
	 

	 Name : ?IsObjectTemplate@Data@v8@@QEBA_NXZ
	 

	 Name : ?IsOneByte@String@v8@@QEBA_NXZ
	 

	 Name : ?IsOnlyLoadAppFromAsarEnabled@fuses@electron@@YA_NXZ
	 

	 Name : ?IsOpaque@Message@v8@@QEBA_NXZ
	 

	 Name : ?IsPrivate@Data@v8@@QEBA_NXZ
	 

	 Name : ?IsPromise@Value@v8@@QEBA_NXZ
	 

	 Name : ?IsProxy@Value@v8@@QEBA_NXZ
	 

	 Name : ?IsRegExp@Value@v8@@QEBA_NXZ
	 

	 Name : ?IsResizableByUserJavaScript@ArrayBuffer@v8@@QEBA_NXZ
	 

	 Name : ?IsResizableByUserJavaScript@BackingStore@v8@@QEBA_NXZ
	 

	 Name : ?IsRevoked@Proxy@v8@@QEBA_NXZ
	 

	 Name : ?IsRunAsNodeEnabled@fuses@electron@@YA_NXZ
	 

	 Name : ?IsRunningMicrotasks@MicrotasksScope@v8@@SA_NPEAVIsolate@2@@Z
	 

	 Name : ?IsSandboxConfiguredSecurely@V8@v8@@SA_NXZ
	 

	 Name : ?IsScriptSharedCrossOrigin@CpuProfileNode@v8@@QEBA_NXZ
	 

	 Name : ?IsSet@CageBaseGlobal@internal@cppgc@@SA_NXZ
	 

	 Name : ?IsSet@Value@v8@@QEBA_NXZ
	 

	 Name : ?IsSetIterator@Value@v8@@QEBA_NXZ
	 

	 Name : ?IsShared@BackingStore@v8@@QEBA_NXZ
	 

	 Name : ?IsSharedArrayBuffer@Value@v8@@QEBA_NXZ
	 

	 Name : ?IsSharedCrossOrigin@Message@v8@@QEBA_NXZ
	 

	 Name : ?IsSourceTextModule@Module@v8@@QEBA_NXZ
	 

	 Name : ?IsString@Value@v8@@QEBA_NXZ
	 

	 Name : ?IsStringObject@Value@v8@@QEBA_NXZ
	 

	 Name : ?IsSweeping@HeapState@subtle@cppgc@@SA_NAEBVHeapHandle@3@@Z
	 

	 Name : ?IsSweepingOnOwningThread@HeapState@subtle@cppgc@@SA_NAEBVHeapHandle@3@@Z
	 

	 Name : ?IsSymbol@Value@v8@@QEBA_NXZ
	 

	 Name : ?IsSymbolObject@Value@v8@@QEBA_NXZ
	 

	 Name : ?IsSyntheticModule@Module@v8@@QEBA_NXZ
	 

	 Name : ?IsTakingSnapshot@HeapProfiler@v8@@QEAA_NXZ
	 

	 Name : ?IsTrue@Value@v8@@QEBA_NXZ
	 

	 Name : ?IsTypedArray@Value@v8@@QEBA_NXZ
	 

	 Name : ?IsUint16Array@Value@v8@@QEBA_NXZ
	 

	 Name : ?IsUint32@Value@v8@@QEBA_NXZ
	 

	 Name : ?IsUint32Array@Value@v8@@QEBA_NXZ
	 

	 Name : ?IsUint8Array@Value@v8@@QEBA_NXZ
	 

	 Name : ?IsUint8ClampedArray@Value@v8@@QEBA_NXZ
	 

	 Name : ?IsUndefined@Value@v8@@QEBA_NXZ
	 

	 Name : ?IsUndetectable@Object@v8@@QEBA_NXZ
	 

	 Name : ?IsUserJavaScript@StackFrame@v8@@QEBA_NXZ
	 

	 Name : ?IsValid@StartupData@v8@@QEBA_NXZ
	 

	 Name : ?IsValue@Data@v8@@QEBA_NXZ
	 

	 Name : ?IsVerbose@TryCatch@v8@@QEBA_NXZ
	 

	 Name : ?IsWasm@StackFrame@v8@@QEBA_NXZ
	 

	 Name : ?IsWasmMemoryObject@Value@v8@@QEBA_NXZ
	 

	 Name : ?IsWasmModuleObject@Value@v8@@QEBA_NXZ
	 

	 Name : ?IsWasmNull@Value@v8@@QEBA_NXZ
	 

	 Name : ?IsWeakMap@Value@v8@@QEBA_NXZ
	 

	 Name : ?IsWeakRef@Value@v8@@QEBA_NXZ
	 

	 Name : ?IsWeakSet@Value@v8@@QEBA_NXZ
	 

	 Name : ?IsWithinCage@CagedHeapBase@internal@cppgc@@SA_NPEBX@Z
	 

	 Name : ?IsolateFromNeverReadOnlySpaceObject@internal@v8@@YAPEAVIsolate@12@_K@Z
	 

	 Name : ?IsolateInBackgroundNotification@Isolate@v8@@QEAAXXZ
	 

	 Name : ?IsolateInForegroundNotification@Isolate@v8@@QEAAXXZ
	 

	 Name : ?Iterate@Array@v8@@QEAA?AV?$Maybe@X@2@V?$Local@VContext@v8@@@2@P6A?AW4CallbackResult@12@IV?$Local@VValue@v8@@@2@PEAX@Z2@Z
	 

	 Name : ?Iterate@CrossThreadPersistentRegion@internal@cppgc@@QEAAXAEAVRootVisitor@23@@Z
	 

	 Name : ?Iterate@PersistentRegionBase@internal@cppgc@@QEAAXAEAVRootVisitor@23@@Z
	 

	 Name : ?JSStackComparableAddressPrivate@BackupIncumbentScope@Context@v8@@AEBA_KXZ
	 

	 Name : ?JSStackComparableAddressPrivate@TryCatch@v8@@AEAA_KXZ
	 

	 Name : ?JitPage@JitPageReference@ThreadIsolation@internal@v8@@QEAAPEAV0234@XZ
	 

	 Name : ?Leave@DisallowGarbageCollectionScope@subtle@cppgc@@SAXAEAVHeapHandle@3@@Z
	 

	 Name : ?Leave@NoGarbageCollectionScope@subtle@cppgc@@SAXAEAVHeapHandle@3@@Z
	 

	 Name : ?Length@Array@v8@@QEBAIXZ
	 

	 Name : ?Length@Buffer@node@@YA_KV?$Local@VObject@v8@@@v8@@@Z
	 

	 Name : ?Length@Buffer@node@@YA_KV?$Local@VValue@v8@@@v8@@@Z
	 

	 Name : ?Length@FixedArray@v8@@QEBAHXZ
	 

	 Name : ?Length@OptimizingCompileDispatcherQueue@internal@v8@@QEAAHXZ
	 

	 Name : ?Length@PrimitiveArray@v8@@QEBAHXZ
	 

	 Name : ?Length@String@v8@@QEBAHXZ
	 

	 Name : ?Length@TypedArray@v8@@QEAA_KXZ
	 

	 Name : ?LimitForTesting@GCInfoTable@internal@cppgc@@QEBAGXZ
	 

	 Name : ?Line@SourceLocation@v8@@QEBA_KXZ
	 

	 Name : ?LineOffset@ScriptOrigin@v8@@QEBAHXZ
	 

	 Name : ?Link@ModuleWrap@loader@node@@CAXAEBV?$FunctionCallbackInfo@VValue@v8@@@v8@@@Z
	 

	 Name : ?LinkExistingOrCreate@V8SerializationDuplicateTracker@v8_inspector@@QEAA?AV?$unique_ptr@VDictionaryValue@protocol@v8_inspector@@U?$default_delete@VDictionaryValue@protocol@v8_inspector@@@__Cr@std@@@__Cr@std@@V?$Local@VValue@v8@@@v8@@PEA_N@Z
	 

	 Name : ?LoadEnvironment@node@@YA?AV?$MaybeLocal@VValue@v8@@@v8@@PEAVEnvironment@1@V?$basic_string_view@DU?$char_traits@D@__Cr@std@@@__Cr@std@@V?$function@$$A6AXPEAVEnvironment@node@@V?$Local@VValue@v8@@@v8@@1@Z@67@@Z
	 

	 Name : ?LoadEnvironment@node@@YA?AV?$MaybeLocal@VValue@v8@@@v8@@PEAVEnvironment@1@V?$function@$$A6A?AV?$MaybeLocal@VValue@v8@@@v8@@AEBUStartExecutionCallbackInfo@node@@@Z@__Cr@std@@V?$function@$$A6AXPEAVEnvironment@node@@V?$Local@VValue@v8@@@v8@@1@Z@67@@Z
	 

	 Name : ?LocaleConfigurationChangeNotification@Isolate@v8@@QEAAXXZ
	 

	 Name : ?Lock@ExternalStringResourceBase@String@v8@@MEBAXXZ
	 

	 Name : ?LookupAllocation@JitPageReference@ThreadIsolation@internal@v8@@QEAAAEAVJitAllocation@234@_K0W4JitAllocationType@234@@Z
	 

	 Name : ?LookupJitAllocation@ThreadIsolation@internal@v8@@SA?AVWritableJitAllocation@23@_K0W4JitAllocationType@123@_N@Z
	 

	 Name : ?LookupJitPage@ThreadIsolation@internal@v8@@CA?AVJitPageReference@123@_K0@Z
	 

	 Name : ?LookupJitPageLocked@ThreadIsolation@internal@v8@@CA?AVJitPageReference@123@_K0@Z
	 

	 Name : ?LookupJumpTableAllocations@ThreadIsolation@internal@v8@@SA?AVWritableJumpTablePair@23@_K000@Z
	 

	 Name : ?LookupWritableJitPage@ThreadIsolation@internal@v8@@SA?AVWritableJitPage@23@_K0@Z
	 

	 Name : ?LowMemoryNotification@Isolate@v8@@QEAAXXZ
	 

	 Name : ?MakeCallback@AsyncResource@node@@QEAA?AV?$MaybeLocal@VValue@v8@@@v8@@PEBDHPEAV?$Local@VValue@v8@@@4@@Z
	 

	 Name : ?MakeCallback@AsyncResource@node@@QEAA?AV?$MaybeLocal@VValue@v8@@@v8@@V?$Local@VFunction@v8@@@4@HPEAV?$Local@VValue@v8@@@4@@Z
	 

	 Name : ?MakeCallback@AsyncResource@node@@QEAA?AV?$MaybeLocal@VValue@v8@@@v8@@V?$Local@VString@v8@@@4@HPEAV?$Local@VValue@v8@@@4@@Z
	 

	 Name : ?MakeCallback@node@@YA?AV?$Local@VValue@v8@@@v8@@PEAVIsolate@3@V?$Local@VObject@v8@@@3@PEBDHPEAV23@@Z
	 

	 Name : ?MakeCallback@node@@YA?AV?$Local@VValue@v8@@@v8@@PEAVIsolate@3@V?$Local@VObject@v8@@@3@V?$Local@VFunction@v8@@@3@HPEAV23@@Z
	 

	 Name : ?MakeCallback@node@@YA?AV?$Local@VValue@v8@@@v8@@PEAVIsolate@3@V?$Local@VObject@v8@@@3@V?$Local@VString@v8@@@3@HPEAV23@@Z
	 

	 Name : ?MakeCallback@node@@YA?AV?$MaybeLocal@VValue@v8@@@v8@@PEAVIsolate@3@V?$Local@VObject@v8@@@3@PEBDHPEAV?$Local@VValue@v8@@@3@Uasync_context@1@@Z
	 

	 Name : ?MakeCallback@node@@YA?AV?$MaybeLocal@VValue@v8@@@v8@@PEAVIsolate@3@V?$Local@VObject@v8@@@3@V?$Local@VFunction@v8@@@3@HPEAV?$Local@VValue@v8@@@3@Uasync_context@1@@Z
	 

	 Name : ?MakeCallback@node@@YA?AV?$MaybeLocal@VValue@v8@@@v8@@PEAVIsolate@3@V?$Local@VObject@v8@@@3@V?$Local@VString@v8@@@3@HPEAV?$Local@VValue@v8@@@3@Uasync_context@1@@Z
	 

	 Name : ?MakeExecutable@ThreadIsolation@internal@v8@@SA_N_K0@Z
	 

	 Name : ?MakeExternal@String@v8@@QEAA_NPEAVExternalOneByteStringResource@12@@Z
	 

	 Name : ?MakeExternal@String@v8@@QEAA_NPEAVExternalStringResource@12@@Z
	 

	 Name : ?MakeExternal@String@v8@@QEAA_NPEAVIsolate@2@PEAVExternalOneByteStringResource@12@@Z
	 

	 Name : ?MakeExternal@String@v8@@QEAA_NPEAVIsolate@2@PEAVExternalStringResource@12@@Z
	 

	 Name : ?MakeWeak@api_internal@v8@@YAXPEAPEA_K@Z
	 

	 Name : ?MakeWeak@api_internal@v8@@YAXPEA_KPEAXP6AXAEBV?$WeakCallbackInfo@X@2@@ZW4WeakCallbackType@2@@Z
	 

	 Name : ?MarkAsHandled@Promise@v8@@QEAAXXZ
	 

	 Name : ?MarkAsSilent@Promise@v8@@QEAAXXZ
	 

	 Name : ?MarkAsUndetectable@ObjectTemplate@v8@@QEAAXXZ
	 

	 Name : ?Matches@TypecheckWitness@v8@@QEBA_NV?$Local@VValue@v8@@@2@@Z
	 

	 Name : ?MaxByteLength@ArrayBuffer@v8@@QEBA_KXZ
	 

	 Name : ?MaxByteLength@BackingStore@v8@@QEBA_KXZ
	 

	 Name : ?MaxByteLength@SharedArrayBuffer@v8@@QEBA_KXZ
	 

	 Name : ?MaxTableSize@GCInfoTable@internal@cppgc@@AEBA_KXZ
	 

	 Name : ?MaybeNew@ArrayBuffer@v8@@SA?AV?$MaybeLocal@VArrayBuffer@v8@@@2@PEAVIsolate@2@_KW4BackingStoreInitializationMode@2@@Z
	 

	 Name : ?MeasureMemory@Isolate@v8@@QEAA_NV?$unique_ptr@VMeasureMemoryDelegate@v8@@U?$default_delete@VMeasureMemoryDelegate@v8@@@__Cr@std@@@__Cr@std@@W4MeasureMemoryExecution@2@@Z
	 

	 Name : ?MeasurementComplete@MeasureMemoryDelegate@v8@@UEAAXUResult@12@@Z
	 

	 Name : ?MemoryInfo@ModuleWrap@loader@node@@UEBAXPEAVMemoryTracker@3@@Z
	 

	 Name : ?MemoryInfoName@ModuleWrap@loader@node@@UEBAPEBDXZ
	 

	 Name : ?MemoryPressureNotification@Isolate@v8@@QEAAXW4MemoryPressureLevel@2@@Z
	 

	 Name : ?Merge@JitPageReference@ThreadIsolation@internal@v8@@QEAAXAEAV1234@@Z
	 

	 Name : ?MergeFlags@?$CTypeInfoBuilder@H$S@v8@@CA?AW4Flags@CTypeInfo@2@XZ
	 

	 Name : ?MergeFlags@?$CTypeInfoBuilder@I$S@v8@@CA?AW4Flags@CTypeInfo@2@XZ
	 

	 Name : ?MergeFlags@?$CTypeInfoBuilder@M$S@v8@@CA?AW4Flags@CTypeInfo@2@XZ
	 

	 Name : ?MergeFlags@?$CTypeInfoBuilder@N$S@v8@@CA?AW4Flags@CTypeInfo@2@XZ
	 

	 Name : ?MergeWithExistingScript@ConsumeCodeCacheTask@ScriptCompiler@v8@@QEAAXXZ
	 

	 Name : ?Message@TryCatch@v8@@QEBA?AV?$Local@VMessage@v8@@@2@XZ
	 

	 Name : ?MoveGlobalReference@api_internal@v8@@YAXPEAPEA_K0@Z
	 

	 Name : ?MoveTracedReference@internal@v8@@YAXPEAPEA_K0@Z
	 

	 Name : ?Name@Private@v8@@QEBA?AV?$Local@VValue@v8@@@2@XZ
	 

	 Name : ?New@Array@v8@@SA?AV?$Local@VArray@v8@@@2@PEAVIsolate@2@H@Z
	 

	 Name : ?New@Array@v8@@SA?AV?$Local@VArray@v8@@@2@PEAVIsolate@2@PEAV?$Local@VValue@v8@@@2@_K@Z
	 

	 Name : ?New@Array@v8@@SA?AV?$MaybeLocal@VArray@v8@@@2@V?$Local@VContext@v8@@@2@_KV?$function@$$A6A?AV?$MaybeLocal@VValue@v8@@@v8@@XZ@__Cr@std@@@Z
	 

	 Name : ?New@ArrayBuffer@v8@@SA?AV?$Local@VArrayBuffer@v8@@@2@PEAVIsolate@2@V?$shared_ptr@VBackingStore@v8@@@__Cr@std@@@Z
	 

	 Name : ?New@ArrayBuffer@v8@@SA?AV?$Local@VArrayBuffer@v8@@@2@PEAVIsolate@2@_KW4BackingStoreInitializationMode@2@@Z
	 

	 Name : ?New@BigInt64Array@v8@@SA?AV?$Local@VBigInt64Array@v8@@@2@V?$Local@VArrayBuffer@v8@@@2@_K1@Z
	 

	 Name : ?New@BigInt64Array@v8@@SA?AV?$Local@VBigInt64Array@v8@@@2@V?$Local@VSharedArrayBuffer@v8@@@2@_K1@Z
	 

	 Name : ?New@BigInt@v8@@SA?AV?$Local@VBigInt@v8@@@2@PEAVIsolate@2@_J@Z
	 

	 Name : ?New@BigIntObject@v8@@SA?AV?$Local@VValue@v8@@@2@PEAVIsolate@2@_J@Z
	 

	 Name : ?New@BigUint64Array@v8@@SA?AV?$Local@VBigUint64Array@v8@@@2@V?$Local@VArrayBuffer@v8@@@2@_K1@Z
	 

	 Name : ?New@BigUint64Array@v8@@SA?AV?$Local@VBigUint64Array@v8@@@2@V?$Local@VSharedArrayBuffer@v8@@@2@_K1@Z
	 

	 Name : ?New@Boolean@v8@@SA?AV?$Local@VBoolean@v8@@@2@PEAVIsolate@2@_N@Z
	 

	 Name : ?New@BooleanObject@v8@@SA?AV?$Local@VValue@v8@@@2@PEAVIsolate@2@_N@Z
	 

	 Name : ?New@Buffer@node@@YA?AV?$MaybeLocal@VObject@v8@@@v8@@PEAVIsolate@4@PEAD_K@Z
	 

	 Name : ?New@Buffer@node@@YA?AV?$MaybeLocal@VObject@v8@@@v8@@PEAVIsolate@4@PEAD_KP6AX1PEAX@Z3@Z
	 

	 Name : ?New@Buffer@node@@YA?AV?$MaybeLocal@VObject@v8@@@v8@@PEAVIsolate@4@V?$Local@VString@v8@@@4@W4encoding@2@@Z
	 

	 Name : ?New@Buffer@node@@YA?AV?$MaybeLocal@VObject@v8@@@v8@@PEAVIsolate@4@_K@Z
	 

	 Name : ?New@Buffer@node@@YA?AV?$MaybeLocal@VUint8Array@v8@@@v8@@PEAVIsolate@4@V?$Local@VArrayBuffer@v8@@@4@_K2@Z
	 

	 Name : ?New@Context@v8@@SA?AV?$Local@VContext@v8@@@2@PEAVIsolate@2@PEAVExtensionConfiguration@2@V?$MaybeLocal@VObjectTemplate@v8@@@2@V?$MaybeLocal@VValue@v8@@@2@UDeserializeInternalFieldsCallback@2@PEAVMicrotaskQueue@2@UDeserializeContextDataCallback@2@UDeserializeAPIWrapperCallback@2@@Z
	 

	 Name : ?New@CpuProfiler@v8@@SAPEAV12@PEAVIsolate@2@W4CpuProfilingNamingMode@2@W4CpuProfilingLoggingMode@2@@Z
	 

	 Name : ?New@DataView@v8@@SA?AV?$Local@VDataView@v8@@@2@V?$Local@VArrayBuffer@v8@@@2@_K1@Z
	 

	 Name : ?New@DataView@v8@@SA?AV?$Local@VDataView@v8@@@2@V?$Local@VSharedArrayBuffer@v8@@@2@_K1@Z
	 

	 Name : ?New@Date@v8@@SA?AV?$MaybeLocal@VValue@v8@@@2@V?$Local@VContext@v8@@@2@N@Z
	 

	 Name : ?New@DictionaryTemplate@v8@@SA?AV?$Local@VDictionaryTemplate@v8@@@2@PEAVIsolate@2@V?$MemorySpan@$$CBV?$basic_string_view@DU?$char_traits@D@__Cr@std@@@__Cr@std@@@2@@Z
	 

	 Name : ?New@External@v8@@SA?AV?$Local@VExternal@v8@@@2@PEAVIsolate@2@PEAX@Z
	 

	 Name : ?New@Float16Array@v8@@SA?AV?$Local@VFloat16Array@v8@@@2@V?$Local@VArrayBuffer@v8@@@2@_K1@Z
	 

	 Name : ?New@Float16Array@v8@@SA?AV?$Local@VFloat16Array@v8@@@2@V?$Local@VSharedArrayBuffer@v8@@@2@_K1@Z
	 

	 Name : ?New@Float32Array@v8@@SA?AV?$Local@VFloat32Array@v8@@@2@V?$Local@VArrayBuffer@v8@@@2@_K1@Z
	 

	 Name : ?New@Float32Array@v8@@SA?AV?$Local@VFloat32Array@v8@@@2@V?$Local@VSharedArrayBuffer@v8@@@2@_K1@Z
	 

	 Name : ?New@Float64Array@v8@@SA?AV?$Local@VFloat64Array@v8@@@2@V?$Local@VArrayBuffer@v8@@@2@_K1@Z
	 

	 Name : ?New@Float64Array@v8@@SA?AV?$Local@VFloat64Array@v8@@@2@V?$Local@VSharedArrayBuffer@v8@@@2@_K1@Z
	 

	 Name : ?New@Function@v8@@SA?AV?$MaybeLocal@VFunction@v8@@@2@V?$Local@VContext@v8@@@2@P6AXAEBV?$FunctionCallbackInfo@VValue@v8@@@2@@ZV?$Local@VValue@v8@@@2@HW4ConstructorBehavior@2@W4SideEffectType@2@@Z
	 

	 Name : ?New@FunctionTemplate@v8@@SA?AV?$Local@VFunctionTemplate@v8@@@2@PEAVIsolate@2@P6AXAEBV?$FunctionCallbackInfo@VValue@v8@@@2@@ZV?$Local@VValue@v8@@@2@V?$Local@VSignature@v8@@@2@HW4ConstructorBehavior@2@W4SideEffectType@2@PEBVCFunction@2@GGG@Z
	 

	 Name : ?New@Int16Array@v8@@SA?AV?$Local@VInt16Array@v8@@@2@V?$Local@VArrayBuffer@v8@@@2@_K1@Z
	 

	 Name : ?New@Int16Array@v8@@SA?AV?$Local@VInt16Array@v8@@@2@V?$Local@VSharedArrayBuffer@v8@@@2@_K1@Z
	 

	 Name : ?New@Int32Array@v8@@SA?AV?$Local@VInt32Array@v8@@@2@V?$Local@VArrayBuffer@v8@@@2@_K1@Z
	 

	 Name : ?New@Int32Array@v8@@SA?AV?$Local@VInt32Array@v8@@@2@V?$Local@VSharedArrayBuffer@v8@@@2@_K1@Z
	 

	 Name : ?New@Int8Array@v8@@SA?AV?$Local@VInt8Array@v8@@@2@V?$Local@VArrayBuffer@v8@@@2@_K1@Z
	 

	 Name : ?New@Int8Array@v8@@SA?AV?$Local@VInt8Array@v8@@@2@V?$Local@VSharedArrayBuffer@v8@@@2@_K1@Z
	 

	 Name : ?New@Integer@v8@@SA?AV?$Local@VInteger@v8@@@2@PEAVIsolate@2@H@Z
	 

	 Name : ?New@Isolate@v8@@SAPEAV12@AEBUCreateParams@12@@Z
	 

	 Name : ?New@Map@v8@@SA?AV?$Local@VMap@v8@@@2@PEAVIsolate@2@@Z
	 

	 Name : ?New@MicrotaskQueue@v8@@SA?AV?$unique_ptr@VMicrotaskQueue@v8@@U?$default_delete@VMicrotaskQueue@v8@@@__Cr@std@@@__Cr@std@@PEAVIsolate@2@W4MicrotasksPolicy@2@@Z
	 

	 Name : ?New@ModuleWrap@loader@node@@CAXAEBV?$FunctionCallbackInfo@VValue@v8@@@v8@@@Z
	 

	 Name : ?New@Number@v8@@SA?AV?$Local@VNumber@v8@@@2@PEAVIsolate@2@N@Z
	 

	 Name : ?New@NumberObject@v8@@SA?AV?$Local@VValue@v8@@@2@PEAVIsolate@2@N@Z
	 

	 Name : ?New@Object@v8@@SA?AV?$Local@VObject@v8@@@2@PEAVIsolate@2@@Z
	 

	 Name : ?New@Object@v8@@SA?AV?$Local@VObject@v8@@@2@PEAVIsolate@2@V?$Local@VValue@v8@@@2@PEAV?$Local@VName@v8@@@2@PEAV52@_K@Z
	 

	 Name : ?New@ObjectTemplate@v8@@SA?AV?$Local@VObjectTemplate@v8@@@2@PEAVIsolate@2@V?$Local@VFunctionTemplate@v8@@@2@@Z
	 

	 Name : ?New@PrimitiveArray@v8@@SA?AV?$Local@VPrimitiveArray@v8@@@2@PEAVIsolate@2@H@Z
	 

	 Name : ?New@Private@v8@@SA?AV?$Local@VPrivate@v8@@@2@PEAVIsolate@2@V?$Local@VString@v8@@@2@@Z
	 

	 Name : ?New@Proxy@v8@@SA?AV?$MaybeLocal@VProxy@v8@@@2@V?$Local@VContext@v8@@@2@V?$Local@VObject@v8@@@2@1@Z
	 

	 Name : ?New@RegExp@v8@@SA?AV?$MaybeLocal@VRegExp@v8@@@2@V?$Local@VContext@v8@@@2@V?$Local@VString@v8@@@2@W4Flags@12@@Z
	 

	 Name : ?New@Resolver@Promise@v8@@SA?AV?$MaybeLocal@VResolver@Promise@v8@@@3@V?$Local@VContext@v8@@@3@@Z
	 

	 Name : ?New@Set@v8@@SA?AV?$Local@VSet@v8@@@2@PEAVIsolate@2@@Z
	 

	 Name : ?New@SharedArrayBuffer@v8@@SA?AV?$Local@VSharedArrayBuffer@v8@@@2@PEAVIsolate@2@V?$shared_ptr@VBackingStore@v8@@@__Cr@std@@@Z
	 

	 Name : ?New@SharedArrayBuffer@v8@@SA?AV?$Local@VSharedArrayBuffer@v8@@@2@PEAVIsolate@2@_KW4BackingStoreInitializationMode@2@@Z
	 

	 Name : ?New@Signature@v8@@SA?AV?$Local@VSignature@v8@@@2@PEAVIsolate@2@V?$Local@VFunctionTemplate@v8@@@2@@Z
	 

	 Name : ?New@StringObject@v8@@SA?AV?$Local@VValue@v8@@@2@PEAVIsolate@2@V?$Local@VString@v8@@@2@@Z
	 

	 Name : ?New@Symbol@v8@@SA?AV?$Local@VSymbol@v8@@@2@PEAVIsolate@2@V?$Local@VString@v8@@@2@@Z
	 

	 Name : ?New@SymbolObject@v8@@SA?AV?$Local@VValue@v8@@@2@PEAVIsolate@2@V?$Local@VSymbol@v8@@@2@@Z
	 

	 Name : ?New@Uint16Array@v8@@SA?AV?$Local@VUint16Array@v8@@@2@V?$Local@VArrayBuffer@v8@@@2@_K1@Z
	 

	 Name : ?New@Uint16Array@v8@@SA?AV?$Local@VUint16Array@v8@@@2@V?$Local@VSharedArrayBuffer@v8@@@2@_K1@Z
	 

	 Name : ?New@Uint32Array@v8@@SA?AV?$Local@VUint32Array@v8@@@2@V?$Local@VArrayBuffer@v8@@@2@_K1@Z
	 

	 Name : ?New@Uint32Array@v8@@SA?AV?$Local@VUint32Array@v8@@@2@V?$Local@VSharedArrayBuffer@v8@@@2@_K1@Z
	 

	 Name : ?New@Uint8Array@v8@@SA?AV?$Local@VUint8Array@v8@@@2@V?$Local@VArrayBuffer@v8@@@2@_K1@Z
	 

	 Name : ?New@Uint8Array@v8@@SA?AV?$Local@VUint8Array@v8@@@2@V?$Local@VSharedArrayBuffer@v8@@@2@_K1@Z
	 

	 Name : ?New@Uint8ClampedArray@v8@@SA?AV?$Local@VUint8ClampedArray@v8@@@2@V?$Local@VArrayBuffer@v8@@@2@_K1@Z
	 

	 Name : ?New@Uint8ClampedArray@v8@@SA?AV?$Local@VUint8ClampedArray@v8@@@2@V?$Local@VSharedArrayBuffer@v8@@@2@_K1@Z
	 

	 Name : ?NewBackingStore@ArrayBuffer@v8@@SA?AV?$unique_ptr@VBackingStore@v8@@U?$default_delete@VBackingStore@v8@@@__Cr@std@@@__Cr@std@@PEAVIsolate@2@_KW4BackingStoreInitializationMode@2@@Z
	 

	 Name : ?NewBackingStore@ArrayBuffer@v8@@SA?AV?$unique_ptr@VBackingStore@v8@@U?$default_delete@VBackingStore@v8@@@__Cr@std@@@__Cr@std@@PEAX_KP6AX010@Z0@Z
	 

	 Name : ?NewBackingStore@SharedArrayBuffer@v8@@SA?AV?$unique_ptr@VBackingStore@v8@@U?$default_delete@VBackingStore@v8@@@__Cr@std@@@__Cr@std@@PEAVIsolate@2@_KW4BackingStoreInitializationMode@2@@Z
	 

	 Name : ?NewBackingStore@SharedArrayBuffer@v8@@SA?AV?$unique_ptr@VBackingStore@v8@@U?$default_delete@VBackingStore@v8@@@__Cr@std@@@__Cr@std@@PEAX_KP6AX010@Z0@Z
	 

	 Name : ?NewContext@node@@YA?AV?$Local@VContext@v8@@@v8@@PEAVIsolate@3@V?$Local@VObjectTemplate@v8@@@3@@Z
	 

	 Name : ?NewDefaultAllocator@Allocator@ArrayBuffer@v8@@SAPEAV123@XZ
	 

	 Name : ?NewExternalOneByte@String@v8@@SA?AV?$MaybeLocal@VString@v8@@@2@PEAVIsolate@2@PEAVExternalOneByteStringResource@12@@Z
	 

	 Name : ?NewExternalTwoByte@String@v8@@SA?AV?$MaybeLocal@VString@v8@@@2@PEAVIsolate@2@PEAVExternalStringResource@12@@Z
	 

	 Name : ?NewFromOneByte@String@v8@@SA?AV?$MaybeLocal@VString@v8@@@2@PEAVIsolate@2@PEBEW4NewStringType@2@H@Z
	 

	 Name : ?NewFromTwoByte@String@v8@@SA?AV?$MaybeLocal@VString@v8@@@2@PEAVIsolate@2@PEBGW4NewStringType@2@H@Z
	 

	 Name : ?NewFromUnsigned@BigInt@v8@@SA?AV?$Local@VBigInt@v8@@@2@PEAVIsolate@2@_K@Z
	 

	 Name : ?NewFromUnsigned@Integer@v8@@SA?AV?$Local@VInteger@v8@@@2@PEAVIsolate@2@I@Z
	 

	 Name : ?NewFromUtf8@String@v8@@SA?AV?$MaybeLocal@VString@v8@@@2@PEAVIsolate@2@PEBDW4NewStringType@2@H@Z
	 

	 Name : ?NewFromUtf8Literal@String@v8@@CA?AV?$Local@VString@v8@@@2@PEAVIsolate@2@PEBDW4NewStringType@2@H@Z
	 

	 Name : ?NewFromWords@BigInt@v8@@SA?AV?$MaybeLocal@VBigInt@v8@@@2@V?$Local@VContext@v8@@@2@HHPEB_K@Z
	 

	 Name : ?NewInstance@DictionaryTemplate@v8@@QEAA?AV?$Local@VObject@v8@@@2@V?$Local@VContext@v8@@@2@V?$MemorySpan@V?$MaybeLocal@VValue@v8@@@v8@@@2@@Z
	 

	 Name : ?NewInstance@Function@v8@@QEBA?AV?$MaybeLocal@VObject@v8@@@2@V?$Local@VContext@v8@@@2@@Z
	 

	 Name : ?NewInstance@Function@v8@@QEBA?AV?$MaybeLocal@VObject@v8@@@2@V?$Local@VContext@v8@@@2@HQEAV?$Local@VValue@v8@@@2@@Z
	 

	 Name : ?NewInstance@ObjectTemplate@v8@@QEAA?AV?$MaybeLocal@VObject@v8@@@2@V?$Local@VContext@v8@@@2@@Z
	 

	 Name : ?NewInstanceWithSideEffectType@Function@v8@@QEBA?AV?$MaybeLocal@VObject@v8@@@2@V?$Local@VContext@v8@@@2@HQEAV?$Local@VValue@v8@@@2@W4SideEffectType@2@@Z
	 

	 Name : ?NewIsolate@node@@YAPEAVIsolate@v8@@PEAVArrayBufferAllocator@1@PEAUuv_loop_s@@PEAVMultiIsolatePlatform@1@PEBVEmbedderSnapshotData@1@AEBUIsolateSettings@1@@Z
	 

	 Name : ?NewIsolate@node@@YAPEAVIsolate@v8@@V?$shared_ptr@VArrayBufferAllocator@node@@@__Cr@std@@PEAUuv_loop_s@@PEAVMultiIsolatePlatform@1@PEBVEmbedderSnapshotData@1@AEBUIsolateSettings@1@@Z
	 

	 Name : ?NewRemoteContext@Context@v8@@SA?AV?$MaybeLocal@VObject@v8@@@2@PEAVIsolate@2@V?$Local@VObjectTemplate@v8@@@2@V?$MaybeLocal@VValue@v8@@@2@@Z
	 

	 Name : ?NewRemoteInstance@FunctionTemplate@v8@@QEAA?AV?$MaybeLocal@VObject@v8@@@2@XZ
	 

	 Name : ?NewResizableBackingStore@ArrayBuffer@v8@@SA?AV?$unique_ptr@VBackingStore@v8@@U?$default_delete@VBackingStore@v8@@@__Cr@std@@@__Cr@std@@_K0@Z
	 

	 Name : ?NewWithBacktrackLimit@RegExp@v8@@SA?AV?$MaybeLocal@VRegExp@v8@@@2@V?$Local@VContext@v8@@@2@V?$Local@VString@v8@@@2@W4Flags@12@I@Z
	 

	 Name : ?NewWithCFunctionOverloads@FunctionTemplate@v8@@SA?AV?$Local@VFunctionTemplate@v8@@@2@PEAVIsolate@2@P6AXAEBV?$FunctionCallbackInfo@VValue@v8@@@2@@ZV?$Local@VValue@v8@@@2@V?$Local@VSignature@v8@@@2@HW4ConstructorBehavior@2@W4SideEffectType@2@AEBV?$MemorySpan@$$CBVCFunction@v8@@@2@@Z
	 

	 Name : ?NewWithCache@FunctionTemplate@v8@@SA?AV?$Local@VFunctionTemplate@v8@@@2@PEAVIsolate@2@P6AXAEBV?$FunctionCallbackInfo@VValue@v8@@@2@@ZV?$Local@VPrivate@v8@@@2@V?$Local@VValue@v8@@@2@V?$Local@VSignature@v8@@@2@HW4SideEffectType@2@@Z
	 

	 Name : ?NodesInUse@CrossThreadPersistentRegion@internal@cppgc@@QEBA_KXZ
	 

	 Name : ?NodesInUse@PersistentRegionBase@internal@cppgc@@QEBA_KXZ
	 

	 Name : ?NotifyIsolateDisposal@Recorder@metrics@v8@@UEAAXXZ
	 

	 Name : ?NumberOfGCInfos@GCInfoTable@internal@cppgc@@QEBAGXZ
	 

	 Name : ?NumberOfHandles@HandleScope@v8@@SAHPEAVIsolate@2@@Z
	 

	 Name : ?NumberOfHeapSpaces@Isolate@v8@@QEAA_KXZ
	 

	 Name : ?NumberOfTrackedHeapObjectTypes@Isolate@v8@@QEAA_KXZ
	 

	 Name : ?NumberValue@Value@v8@@QEBA?AV?$Maybe@N@2@V?$Local@VContext@v8@@@2@@Z
	 

	 Name : ?OOM@ReasonEnum@Paused@API@Debugger@protocol@v8_inspector@@3PEBDEB
	 

	 Name : ?ObjectProtoToString@Object@v8@@QEAA?AV?$MaybeLocal@VString@v8@@@2@V?$Local@VContext@v8@@@2@@Z
	 

	 Name : ?OffsetFromAddress@CagedHeapBase@internal@cppgc@@SA_KPEBX@Z
	 

	 Name : ?OnBytesReceived@WasmStreaming@v8@@QEAAXPEBE_K@Z
	 

	 Name : ?OnFatalError@node@@YAXPEBD0@Z
	 

	 Name : ?Options@ScriptOrigin@v8@@QEBA?AVScriptOriginOptions@2@XZ
	 

	 Name : ?Other@ReasonEnum@Paused@API@Debugger@protocol@v8_inspector@@3PEBDEB
	 

	 Name : ?PCIsInV8@Unwinder@v8@@SA_N_KPEBUMemoryRange@2@PEAX@Z
	 

	 Name : ?Parse@Date@v8@@SA?AV?$MaybeLocal@VValue@v8@@@2@V?$Local@VContext@v8@@@2@V?$Local@VString@v8@@@2@@Z
	 

	 Name : ?Parse@JSON@v8@@SA?AV?$MaybeLocal@VValue@v8@@@2@V?$Local@VContext@v8@@@2@V?$Local@VString@v8@@@2@@Z
	 

	 Name : ?ParseEncoding@node@@YA?AW4encoding@1@PEAVIsolate@v8@@V?$Local@VValue@v8@@@4@W421@@Z
	 

	 Name : ?PerformCheckpoint@MicrotasksScope@v8@@SAXPEAVIsolate@2@@Z
	 

	 Name : ?PerformMarkingStep@StandaloneTestingHeap@testing@cppgc@@QEAA_NW4EmbedderStackState@3@@Z
	 

	 Name : ?PerformMicrotaskCheckpoint@Isolate@v8@@QEAAXXZ
	 

	 Name : ?PostJob@Platform@cppgc@@UEAA?AV?$unique_ptr@VJobHandle@v8@@U?$default_delete@VJobHandle@v8@@@__Cr@std@@@__Cr@std@@W4TaskPriority@v8@@V?$unique_ptr@VJobTask@v8@@U?$default_delete@VJobTask@v8@@@__Cr@std@@@45@@Z
	 

	 Name : ?PrepareInstall@CompilationDependencies@compiler@internal@v8@@AEAA_NXZ
	 

	 Name : ?PrepareInstallPredictable@CompilationDependencies@compiler@internal@v8@@AEAA_NXZ
	 

	 Name : ?PrepareStackTraceCallback@node@@YA?AV?$MaybeLocal@VValue@v8@@@v8@@V?$Local@VContext@v8@@@3@V?$Local@VValue@v8@@@3@V?$Local@VArray@v8@@@3@@Z
	 

	 Name : ?PreviewEntries@Object@v8@@QEAA?AV?$MaybeLocal@VArray@v8@@@2@PEA_N@Z
	 

	 Name : ?PreviousGCWasConservative@HeapState@subtle@cppgc@@SA_NAEBVHeapHandle@3@@Z
	 

	 Name : ?PrintCurrentStackTrace@Message@v8@@SAXPEAVIsolate@2@AEAV?$basic_ostream@DU?$char_traits@D@__Cr@std@@@__Cr@std@@@Z
	 

	 Name : ?Prioritize@OptimizingCompileDispatcherQueue@internal@v8@@QEAAXV?$Tagged@VSharedFunctionInfo@internal@v8@@@23@@Z
	 

	 Name : ?ProcessGlobalArgs@node@@YAHPEAV?$vector@V?$basic_string@DU?$char_traits@D@__Cr@std@@V?$allocator@D@23@@__Cr@std@@V?$allocator@V?$basic_string@DU?$char_traits@D@__Cr@std@@V?$allocator@D@23@@__Cr@std@@@23@@__Cr@std@@00W4OptionEnvvarSettings@1@@Z
	 

	 Name : ?PromiseRejectCallback@node@@YAXVPromiseRejectMessage@v8@@@Z
	 

	 Name : ?PromiseRejection@ReasonEnum@Paused@API@Debugger@protocol@v8_inspector@@3PEBDEB
	 

	 Name : ?PrototypeTemplate@FunctionTemplate@v8@@QEAA?AV?$Local@VObjectTemplate@v8@@@2@XZ
	 

	 Name : ?QueryObjects@HeapProfiler@v8@@QEAAXV?$Local@VContext@v8@@@2@PEAVQueryObjectPredicate@2@PEAV?$vector@V?$Global@VObject@v8@@@v8@@V?$allocator@V?$Global@VObject@v8@@@v8@@@__Cr@std@@@__Cr@std@@@Z
	 

	 Name : ?QueueIndex@OptimizingCompileDispatcherQueue@internal@v8@@AEAAHH@Z
	 

	 Name : ?QuickIsFalse@Value@v8@@AEBA_NXZ
	 

	 Name : ?QuickIsNull@Value@v8@@AEBA_NXZ
	 

	 Name : ?QuickIsNullOrUndefined@Value@v8@@AEBA_NXZ
	 

	 Name : ?QuickIsString@Value@v8@@AEBA_NXZ
	 

	 Name : ?QuickIsTrue@Value@v8@@AEBA_NXZ
	 

	 Name : ?QuickIsUndefined@Value@v8@@AEBA_NXZ
	 

	 Name : ?RangeError@Exception@v8@@SA?AV?$Local@VValue@v8@@@2@V?$Local@VString@v8@@@2@V32@@Z
	 

	 Name : ?ReThrow@TryCatch@v8@@QEAA?AV?$Local@VValue@v8@@@2@XZ
	 

	 Name : ?ReadDouble@ValueDeserializer@v8@@QEAA_NPEAN@Z
	 

	 Name : ?ReadHeader@ValueDeserializer@v8@@QEAA?AV?$Maybe@_N@2@V?$Local@VContext@v8@@@2@@Z
	 

	 Name : ?ReadHostObject@Delegate@ValueDeserializer@v8@@UEAA?AV?$MaybeLocal@VObject@v8@@@3@PEAVIsolate@3@@Z
	 

	 Name : ?ReadOnlyPrototype@FunctionTemplate@v8@@QEAAXXZ
	 

	 Name : ?ReadRawBytes@ValueDeserializer@v8@@QEAA_N_KPEAPEBX@Z
	 

	 Name : ?ReadUint32@ValueDeserializer@v8@@QEAA_NPEAI@Z
	 

	 Name : ?ReadUint64@ValueDeserializer@v8@@QEAA_NPEA_K@Z
	 

	 Name : ?ReadValue@ValueDeserializer@v8@@QEAA?AV?$MaybeLocal@VValue@v8@@@2@V?$Local@VContext@v8@@@2@@Z
	 

	 Name : ?Reallocate@Allocator@ArrayBuffer@v8@@UEAAPEAXPEAX_K1@Z
	 

	 Name : ?Reallocate@BackingStore@v8@@SA?AV?$unique_ptr@VBackingStore@v8@@U?$default_delete@VBackingStore@v8@@@__Cr@std@@@__Cr@std@@PEAVIsolate@2@V345@_K@Z
	 

	 Name : ?ReallocateBufferMemory@Delegate@ValueSerializer@v8@@UEAAPEAXPEAX_KPEA_K@Z
	 

	 Name : ?RecordDependency@CompilationDependencies@compiler@internal@v8@@QEAAXPEBVCompilationDependency@234@@Z
	 

	 Name : ?ReferenceError@Exception@v8@@SA?AV?$Local@VValue@v8@@@2@V?$Local@VString@v8@@@2@V32@@Z
	 

	 Name : ?RefillFreeList@PersistentRegionBase@internal@cppgc@@AEAAXXZ
	 

	 Name : ?RefillFreeListAndAllocateNode@PersistentRegionBase@internal@cppgc@@IEAAPEAVPersistentNode@23@PEAXP6AXAEAVRootVisitor@23@PEBX@Z@Z
	 

	 Name : ?RegisterAllocation@JitPageReference@ThreadIsolation@internal@v8@@QEAAAEAVJitAllocation@234@_K0W4JitAllocationType@234@@Z
	 

	 Name : ?RegisterExtension@v8@@YAXV?$unique_ptr@VExtension@v8@@U?$default_delete@VExtension@v8@@@__Cr@std@@@__Cr@std@@@Z
	 

	 Name : ?RegisterExternalReferences@ModuleWrap@loader@node@@SAXPEAVExternalReferenceRegistry@3@@Z
	 

	 Name : ?RegisterInstructionStreamAllocation@ThreadIsolation@internal@v8@@SA?AVWritableJitAllocation@23@_K0_N@Z
	 

	 Name : ?RegisterJitAllocation@ThreadIsolation@internal@v8@@SA?AVWritableJitAllocation@23@_K0W4JitAllocationType@123@_N@Z
	 

	 Name : ?RegisterJitAllocationForTesting@ThreadIsolation@internal@v8@@SAX_K0@Z
	 

	 Name : ?RegisterJitAllocations@ThreadIsolation@internal@v8@@SAX_KAEBV?$vector@_KV?$allocator@_K@__Cr@std@@@__Cr@std@@W4JitAllocationType@123@@Z
	 

	 Name : ?RegisterJitPage@ThreadIsolation@internal@v8@@SAX_K0@Z
	 

	 Name : ?RegisterNewGCInfo@GCInfoTable@internal@cppgc@@QEAAGAEAU?$atomic@G@__Cr@std@@AEBUGCInfo@23@@Z
	 

	 Name : ?RegisterWeakCallback@Visitor@cppgc@@UEAAXP6AXAEBVLivenessBroker@2@PEBX@Z1@Z
	 

	 Name : ?Reject@Resolver@Promise@v8@@QEAA?AV?$Maybe@_N@3@V?$Local@VContext@v8@@@3@V?$Local@VValue@v8@@@3@@Z
	 

	 Name : ?Release@ValueSerializer@v8@@QEAA?AU?$pair@PEAE_K@__Cr@std@@XZ
	 

	 Name : ?RemoveBeforeCallEnteredCallback@Isolate@v8@@QEAAXP6AXPEAV12@@Z@Z
	 

	 Name : ?RemoveBuildEmbedderGraphCallback@HeapProfiler@v8@@QEAAXP6AXPEAVIsolate@2@PEAVEmbedderGraph@2@PEAX@Z2@Z
	 

	 Name : ?RemoveCallCompletedCallback@Isolate@v8@@QEAAXP6AXPEAV12@@Z@Z
	 

	 Name : ?RemoveEnvironmentCleanupHook@node@@YAXPEAVIsolate@v8@@P6AXPEAX@Z1@Z
	 

	 Name : ?RemoveEnvironmentCleanupHookInternal@node@@YAXPEAUACHHandle@1@@Z
	 

	 Name : ?RemoveGCEpilogueCallback@Isolate@v8@@QEAAXP6AXPEAV12@W4GCType@2@W4GCCallbackFlags@2@@Z@Z
	 

	 Name : ?RemoveGCEpilogueCallback@Isolate@v8@@QEAAXP6AXPEAV12@W4GCType@2@W4GCCallbackFlags@2@PEAX@Z3@Z
	 

	 Name : ?RemoveGCPrologueCallback@Isolate@v8@@QEAAXP6AXPEAV12@W4GCType@2@W4GCCallbackFlags@2@@Z@Z
	 

	 Name : ?RemoveGCPrologueCallback@Isolate@v8@@QEAAXP6AXPEAV12@W4GCType@2@W4GCCallbackFlags@2@PEAX@Z3@Z
	 

	 Name : ?RemoveMessageListeners@Isolate@v8@@QEAAXP6AXV?$Local@VMessage@v8@@@2@V?$Local@VValue@v8@@@2@@Z@Z
	 

	 Name : ?RemoveMicrotasksCompletedCallback@Isolate@v8@@QEAAXP6AXPEAV12@PEAX@Z1@Z
	 

	 Name : ?RemoveNearHeapLimitCallback@Isolate@v8@@QEAAXP6A_KPEAX_K1@Z1@Z
	 

	 Name : ?RemovePrototype@FunctionTemplate@v8@@QEAAXXZ
	 

	 Name : ?RequestGarbageCollectionForTesting@Isolate@v8@@QEAAXW4GarbageCollectionType@12@@Z
	 

	 Name : ?RequestGarbageCollectionForTesting@Isolate@v8@@QEAAXW4GarbageCollectionType@12@W4EmbedderStackState@cppgc@@@Z
	 

	 Name : ?RequestInterrupt@Isolate@v8@@QEAAXP6AXPEAV12@PEAX@Z1@Z
	 

	 Name : ?RequestInterrupt@node@@YAXPEAVEnvironment@1@P6AXPEAX@Z1@Z
	 

	 Name : ?Reset@LongTaskStats@metrics@v8@@SAXPEAVIsolate@3@@Z
	 

	 Name : ?Reset@TryCatch@v8@@QEAAXXZ
	 

	 Name : ?ResetForTesting@AgeTable@internal@cppgc@@QEAAXXZ
	 

	 Name : ?ResetInternal@TryCatch@v8@@AEAAXXZ
	 

	 Name : ?Resize@ExplicitManagementImpl@internal@cppgc@@CA_NPEAX_K@Z
	 

	 Name : ?Resize@GCInfoTable@internal@cppgc@@AEAAXXZ
	 

	 Name : ?Resolve@Resolver@Promise@v8@@QEAA?AV?$Maybe@_N@3@V?$Local@VContext@v8@@@3@V?$Local@VValue@v8@@@3@@Z
	 

	 Name : ?ResolveModuleCallback@ModuleWrap@loader@node@@CA?AV?$MaybeLocal@VModule@v8@@@v8@@V?$Local@VContext@v8@@@5@V?$Local@VString@v8@@@5@V?$Local@VFixedArray@v8@@@5@V?$Local@VModule@v8@@@5@@Z
	 

	 Name : ?ResourceName@ScriptOrigin@v8@@QEBA?AV?$Local@VValue@v8@@@2@XZ
	 

	 Name : ?RestoreOriginalHeapLimit@Isolate@v8@@QEAAXXZ
	 

	 Name : ?Result@Promise@v8@@QEAA?AV?$Local@VValue@v8@@@2@XZ
	 

	 Name : ?ReturnInfo@CFunction@v8@@QEBAAEBVCTypeInfo@2@XZ
	 

	 Name : ?ReturnInfo@CFunctionInfo@v8@@QEBAAEBVCTypeInfo@2@XZ
	 

	 Name : ?Revoke@Proxy@v8@@QEAAXXZ
	 

	 Name : ?Run@ConsumeCodeCacheTask@ScriptCompiler@v8@@QEAAXXZ
	 

	 Name : ?Run@Script@v8@@QEAA?AV?$MaybeLocal@VValue@v8@@@2@V?$Local@VContext@v8@@@2@@Z
	 

	 Name : ?Run@Script@v8@@QEAA?AV?$MaybeLocal@VValue@v8@@@2@V?$Local@VContext@v8@@@2@V?$Local@VData@v8@@@2@@Z
	 

	 Name : ?Run@ScriptStreamingTask@ScriptCompiler@v8@@QEAAXXZ
	 

	 Name : ?RunAtExit@node@@YAXPEAVEnvironment@1@@Z
	 

	 Name : ?SameValue@Value@v8@@QEBA_NV?$Local@VValue@v8@@@2@@Z
	 

	 Name : ?ScriptId@Function@v8@@QEBAHXZ
	 

	 Name : ?ScriptId@Module@v8@@QEBAHXZ
	 

	 Name : ?ScriptId@ScriptOrigin@v8@@QEBAHXZ
	 

	 Name : ?SelfSize@ModuleWrap@loader@node@@UEBA_KXZ
	 

	 Name : ?Serialize@CompiledWasmModule@v8@@QEAA?AUOwnedBuffer@2@XZ
	 

	 Name : ?Serialize@CpuProfile@v8@@QEBAXPEAVOutputStream@2@W4SerializationFormat@12@@Z
	 

	 Name : ?Serialize@HeapSnapshot@v8@@QEBAXPEAVOutputStream@2@W4SerializationFormat@12@@Z
	 

	 Name : ?Set@Map@v8@@QEAA?AV?$MaybeLocal@VMap@v8@@@2@V?$Local@VContext@v8@@@2@V?$Local@VValue@v8@@@2@1@Z
	 

	 Name : ?Set@Object@v8@@QEAA?AV?$Maybe@_N@2@V?$Local@VContext@v8@@@2@IV?$Local@VValue@v8@@@2@@Z
	 

	 Name : ?Set@Object@v8@@QEAA?AV?$Maybe@_N@2@V?$Local@VContext@v8@@@2@V?$Local@VValue@v8@@@2@1@Z
	 

	 Name : ?Set@Object@v8@@QEAA?AV?$Maybe@_N@2@V?$Local@VContext@v8@@@2@V?$Local@VValue@v8@@@2@1V?$MaybeLocal@VObject@v8@@@2@@Z
	 

	 Name : ?Set@PrimitiveArray@v8@@QEAAXPEAVIsolate@2@HV?$Local@VPrimitive@v8@@@2@@Z
	 

	 Name : ?Set@Template@v8@@QEAAXPEAVIsolate@2@PEBDV?$Local@VData@v8@@@2@W4PropertyAttribute@2@@Z
	 

	 Name : ?Set@Template@v8@@QEAAXV?$Local@VName@v8@@@2@V?$Local@VData@v8@@@2@W4PropertyAttribute@2@@Z
	 

	 Name : ?SetAbortOnUncaughtExceptionCallback@Isolate@v8@@QEAAXP6A_NPEAV12@@Z@Z
	 

	 Name : ?SetAbortScriptExecution@Context@v8@@QEAAXP6AXPEAVIsolate@2@V?$Local@VContext@v8@@@2@@Z@Z
	 

	 Name : ?SetAcceptAnyReceiver@FunctionTemplate@v8@@QEAAX_N@Z
	 

	 Name : ?SetAccessCheckCallback@ObjectTemplate@v8@@QEAAXP6A_NV?$Local@VContext@v8@@@2@V?$Local@VObject@v8@@@2@V?$Local@VValue@v8@@@2@@Z2@Z
	 

	 Name : ?SetAccessCheckCallbackAndHandler@ObjectTemplate@v8@@QEAAXP6A_NV?$Local@VContext@v8@@@2@V?$Local@VObject@v8@@@2@V?$Local@VValue@v8@@@2@@ZAEBUNamedPropertyHandlerConfiguration@2@AEBUIndexedPropertyHandlerConfiguration@2@2@Z
	 

	 Name : ?SetAccessorProperty@Object@v8@@QEAAXV?$Local@VName@v8@@@2@V?$Local@VFunction@v8@@@2@1W4PropertyAttribute@2@@Z
	 

	 Name : ?SetAccessorProperty@Template@v8@@QEAAXV?$Local@VName@v8@@@2@V?$Local@VFunctionTemplate@v8@@@2@1W4PropertyAttribute@2@@Z
	 

	 Name : ?SetAddCrashKeyCallback@Isolate@v8@@QEAAXP6AXW4CrashKeyId@2@AEBV?$basic_string@DU?$char_traits@D@__Cr@std@@V?$allocator@D@23@@__Cr@std@@@Z@Z
	 

	 Name : ?SetAddHistogramSampleFunction@Isolate@v8@@QEAAXP6AXPEAXH@Z@Z
	 

	 Name : ?SetAge@AgeTable@internal@cppgc@@QEAAX_KW4Age@123@@Z
	 

	 Name : ?SetAgeForRange@AgeTable@internal@cppgc@@QEAAX_K0W4Age@123@W4AdjacentCardsPolicy@123@@Z
	 

	 Name : ?SetAlignedPointerInEmbedderData@Context@v8@@QEAAXHPEAX@Z
	 

	 Name : ?SetAlignedPointerInInternalField@Object@v8@@QEAAXHPEAX@Z
	 

	 Name : ?SetAlignedPointerInInternalFields@Object@v8@@QEAAXHQEAHQEAPEAX@Z
	 

	 Name : ?SetAllowAtomicsWait@Isolate@v8@@QEAAX_N@Z
	 

	 Name : ?SetAllowWasmCodeGenerationCallback@Isolate@v8@@QEAAXP6A_NV?$Local@VContext@v8@@@2@V?$Local@VString@v8@@@2@@Z@Z
	 

	 Name : ?SetAtomicsWaitCallback@Isolate@v8@@QEAAXP6AXW4AtomicsWaitEvent@12@V?$Local@VSharedArrayBuffer@v8@@@2@_K_JNPEAVAtomicsWaitWakeHandle@12@PEAX@Z5@Z
	 

	 Name : ?SetBatterySaverMode@Isolate@v8@@QEAAX_N@Z
	 

	 Name : ?SetCallAsFunctionHandler@ObjectTemplate@v8@@QEAAXP6AXAEBV?$FunctionCallbackInfo@VValue@v8@@@2@@ZV?$Local@VValue@v8@@@2@@Z
	 

	 Name : ?SetCallHandler@FunctionTemplate@v8@@QEAAXP6AXAEBV?$FunctionCallbackInfo@VValue@v8@@@2@@ZV?$Local@VValue@v8@@@2@W4SideEffectType@2@AEBV?$MemorySpan@$$CBVCFunction@v8@@@2@@Z
	 

	 Name : ?SetCaptureMessage@TryCatch@v8@@QEAAX_N@Z
	 

	 Name : ?SetCaptureStackTraceForUncaughtExceptions@Isolate@v8@@QEAAX_NHW4StackTraceOptions@StackTrace@2@@Z
	 

	 Name : ?SetClassName@FunctionTemplate@v8@@QEAAXV?$Local@VString@v8@@@2@@Z
	 

	 Name : ?SetCodeLike@ObjectTemplate@v8@@QEAAXXZ
	 

	 Name : ?SetCompiledModuleBytes@WasmStreaming@v8@@QEAA_NPEBE_K@Z
	 

	 Name : ?SetContinuationPreservedEmbedderData@Isolate@v8@@QEAAXV?$Local@VValue@v8@@@2@@Z
	 

	 Name : ?SetCounterFunction@Isolate@v8@@QEAAXP6APEAHPEBD@Z@Z
	 

	 Name : ?SetCppgcReference@node@@YAXPEAVIsolate@v8@@V?$Local@VObject@v8@@@3@PEAX@Z
	 

	 Name : ?SetCreateHistogramFunction@Isolate@v8@@QEAAXP6APEAXPEBDHH_K@Z@Z
	 

	 Name : ?SetData@Isolate@v8@@QEAAXIPEAX@Z
	 

	 Name : ?SetDcheckErrorHandler@V8@v8@@SAXP6AXPEBDH0@Z@Z
	 

	 Name : ?SetDefaultContext@SnapshotCreator@v8@@QEAAXV?$Local@VContext@v8@@@2@USerializeInternalFieldsCallback@2@USerializeContextDataCallback@2@USerializeAPIWrapperCallback@2@@Z
	 

	 Name : ?SetDetachKey@ArrayBuffer@v8@@QEAAXV?$Local@VValue@v8@@@2@@Z
	 

	 Name : ?SetEmbedderData@Context@v8@@QEAAXHV?$Local@VValue@v8@@@2@@Z
	 

	 Name : ?SetEmbedderRootsHandler@Isolate@v8@@QEAAXPEAVEmbedderRootsHandler@2@@Z
	 

	 Name : ?SetEntropySource@V8@v8@@SAXP6A_NPEAE_K@Z@Z
	 

	 Name : ?SetErrorMessageForCodeGenerationFromStrings@Context@v8@@QEAAXV?$Local@VString@v8@@@2@@Z
	 

	 Name : ?SetErrorMessageForWasmCodeGeneration@Context@v8@@QEAAXV?$Local@VString@v8@@@2@@Z
	 

	 Name : ?SetEventLogger@Isolate@v8@@QEAAXP6AXPEBDH@Z@Z
	 

	 Name : ?SetExceptionContext@FunctionTemplate@v8@@QEAAXW4ExceptionContext@2@@Z
	 

	 Name : ?SetExceptionPropagationCallback@Isolate@v8@@QEAAXP6AXVExceptionPropagationMessage@2@@Z@Z
	 

	 Name : ?SetFailedAccessCheckCallbackFunction@Isolate@v8@@QEAAXP6AXV?$Local@VObject@v8@@@2@W4AccessType@2@V?$Local@VValue@v8@@@2@@Z@Z
	 

	 Name : ?SetFatalErrorHandler@Isolate@v8@@QEAAXP6AXPEBD0@Z@Z
	 

	 Name : ?SetFatalErrorHandler@V8@v8@@SAXP6AXPEBDH0@Z@Z
	 

	 Name : ?SetFatalMemoryErrorCallback@V8@v8@@SAXP6AXPEBDAEBUOOMDetails@2@@Z@Z
	 

	 Name : ?SetFilterETWSessionByURLCallback@Isolate@v8@@QEAAXP6A_NV?$Local@VContext@v8@@@2@AEBV?$basic_string@DU?$char_traits@D@__Cr@std@@V?$allocator@D@23@@__Cr@std@@@Z@Z
	 

	 Name : ?SetFlagsFromCommandLine@V8@v8@@SAXPEAHPEAPEAD_N@Z
	 

	 Name : ?SetFlagsFromString@V8@v8@@SAXPEBD@Z
	 

	 Name : ?SetFlagsFromString@V8@v8@@SAXPEBD_K@Z
	 

	 Name : ?SetGetDetachednessCallback@HeapProfiler@v8@@QEAAXP6A?AW4Detachedness@Node@EmbedderGraph@2@PEAVIsolate@2@AEBV?$Local@VValue@v8@@@2@GPEAX@Z2@Z
	 

	 Name : ?SetGetExternallyAllocatedMemoryInBytesCallback@Isolate@v8@@QEAAXP6A_KXZ@Z
	 

	 Name : ?SetHandler@ObjectTemplate@v8@@QEAAXAEBUIndexedPropertyHandlerConfiguration@2@@Z
	 

	 Name : ?SetHandler@ObjectTemplate@v8@@QEAAXAEBUNamedPropertyHandlerConfiguration@2@@Z
	 

	 Name : ?SetHostCreateShadowRealmContextCallback@Isolate@v8@@QEAAXP6A?AV?$MaybeLocal@VContext@v8@@@2@V?$Local@VContext@v8@@@2@@Z@Z
	 

	 Name : ?SetHostImportModuleDynamicallyCallback@Isolate@v8@@QEAAXP6A?AV?$MaybeLocal@VPromise@v8@@@2@V?$Local@VContext@v8@@@2@V?$Local@VData@v8@@@2@V?$Local@VValue@v8@@@2@V?$Local@VString@v8@@@2@V?$Local@VFixedArray@v8@@@2@@Z@Z
	 

	 Name : ?SetHostImportModuleWithPhaseDynamicallyCallback@Isolate@v8@@QEAAXP6A?AV?$MaybeLocal@VPromise@v8@@@2@V?$Local@VContext@v8@@@2@V?$Local@VData@v8@@@2@V?$Local@VValue@v8@@@2@V?$Local@VString@v8@@@2@W4ModuleImportPhase@2@V?$Local@VFixedArray@v8@@@2@@Z@Z
	 

	 Name : ?SetHostInitializeImportMetaObjectCallback@Isolate@v8@@QEAAXP6AXV?$Local@VContext@v8@@@2@V?$Local@VModule@v8@@@2@V?$Local@VObject@v8@@@2@@Z@Z
	 

	 Name : ?SetId@DiscardedSamplesDelegate@v8@@AEAAXI@Z
	 

	 Name : ?SetIdle@Isolate@v8@@QEAAX_N@Z
	 

	 Name : ?SetImmutableProto@ObjectTemplate@v8@@QEAAXXZ
	 

	 Name : ?SetImportModuleDynamicallyCallback@ModuleWrap@loader@node@@CAXAEBV?$FunctionCallbackInfo@VValue@v8@@@v8@@@Z
	 

	 Name : ?SetInitializeImportMetaObjectCallback@ModuleWrap@loader@node@@CAXAEBV?$FunctionCallbackInfo@VValue@v8@@@v8@@@Z
	 

	 Name : ?SetIntegrityLevel@Object@v8@@QEAA?AV?$Maybe@_N@2@V?$Local@VContext@v8@@@2@W4IntegrityLevel@2@@Z
	 

	 Name : ?SetInterfaceName@FunctionTemplate@v8@@QEAAXV?$Local@VString@v8@@@2@@Z
	 

	 Name : ?SetInternalField@Object@v8@@QEAAXHV?$Local@VData@v8@@@2@@Z
	 

	 Name : ?SetInternalFieldCount@ObjectTemplate@v8@@QEAAXH@Z
	 

	 Name : ?SetInternalFieldForNodeCore@Object@v8@@QEAAXHV?$Local@VModule@v8@@@2@@Z
	 

	 Name : ?SetInternalFieldForNodeCore@Object@v8@@QEAAXHV?$Local@VUnboundScript@v8@@@2@@Z
	 

	 Name : ?SetIntrinsicDataProperty@Template@v8@@QEAAXV?$Local@VName@v8@@@2@W4Intrinsic@2@W4PropertyAttribute@2@@Z
	 

	 Name : ?SetIsLoading@Isolate@v8@@QEAAX_N@Z
	 

	 Name : ?SetIsolateUpForNode@node@@YAXPEAVIsolate@v8@@@Z
	 

	 Name : ?SetIsolateUpForNode@node@@YAXPEAVIsolate@v8@@AEBUIsolateSettings@1@@Z
	 

	 Name : ?SetJavaScriptCompileHintsMagicEnabledCallback@Isolate@v8@@QEAAXP6A_NV?$Local@VContext@v8@@@2@@Z@Z
	 

	 Name : ?SetJitCodeEventHandler@Isolate@v8@@QEAAXW4JitCodeEventOptions@2@P6AXPEBUJitCodeEvent@2@@Z@Z
	 

	 Name : ?SetKnownSerializedValue@V8SerializationDuplicateTracker@v8_inspector@@AEAAXV?$Local@VValue@v8@@@v8@@PEAVDictionaryValue@protocol@2@@Z
	 

	 Name : ?SetLazyDataProperty@Object@v8@@QEAA?AV?$Maybe@_N@2@V?$Local@VContext@v8@@@2@V?$Local@VName@v8@@@2@P6AX1AEBV?$PropertyCallbackInfo@VValue@v8@@@2@@ZV?$Local@VValue@v8@@@2@W4PropertyAttribute@2@W4SideEffectType@2@6@Z
	 

	 Name : ?SetLazyDataProperty@Template@v8@@QEAAXV?$Local@VName@v8@@@2@P6AX0AEBV?$PropertyCallbackInfo@VValue@v8@@@2@@ZV?$Local@VValue@v8@@@2@W4PropertyAttribute@2@W4SideEffectType@2@5@Z
	 

	 Name : ?SetLength@FunctionTemplate@v8@@QEAAXH@Z
	 

	 Name : ?SetMaxAsyncTaskStacksForTest@v8_inspector@@YAXPEAVV8Inspector@1@H@Z
	 

	 Name : ?SetMetricsRecorder@Isolate@v8@@QEAAXAEBV?$shared_ptr@VRecorder@metrics@v8@@@__Cr@std@@@Z
	 

	 Name : ?SetMicrotaskQueue@Context@v8@@QEAAXPEAVMicrotaskQueue@2@@Z
	 

	 Name : ?SetMicrotasksPolicy@Isolate@v8@@QEAAXW4MicrotasksPolicy@2@@Z
	 

	 Name : ?SetModifyCodeGenerationFromStringsCallback@Isolate@v8@@QEAAXP6A?AUModifyCodeGenerationFromStringsResult@2@V?$Local@VContext@v8@@@2@V?$Local@VValue@v8@@@2@_N@Z@Z
	 

	 Name : ?SetMoreFunctionsCanBeSerializedCallback@WasmStreaming@v8@@QEAAXV?$function@$$A6AXVCompiledWasmModule@v8@@@Z@__Cr@std@@@Z
	 

	 Name : ?SetName@Function@v8@@QEAAXV?$Local@VString@v8@@@2@@Z
	 

	 Name : ?SetNativeDataProperty@Object@v8@@QEAA?AV?$Maybe@_N@2@V?$Local@VContext@v8@@@2@V?$Local@VName@v8@@@2@P6AX1AEBV?$PropertyCallbackInfo@VValue@v8@@@2@@ZP6AX1V?$Local@VValue@v8@@@2@AEBV?$PropertyCallbackInfo@X@2@@Z4W4PropertyAttribute@2@W4SideEffectType@2@8@Z
	 

	 Name : ?SetNativeDataProperty@Template@v8@@QEAAXV?$Local@VName@v8@@@2@P6AX0AEBV?$PropertyCallbackInfo@VValue@v8@@@2@@ZP6AX0V?$Local@VValue@v8@@@2@AEBV?$PropertyCallbackInfo@X@2@@Z3W4PropertyAttribute@2@W4SideEffectType@2@7@Z
	 

	 Name : ?SetOOMErrorHandler@Isolate@v8@@QEAAXP6AXPEBDAEBUOOMDetails@2@@Z@Z
	 

	 Name : ?SetPrepareStackTraceCallback@Isolate@v8@@QEAAXP6A?AV?$MaybeLocal@VValue@v8@@@2@V?$Local@VContext@v8@@@2@V?$Local@VValue@v8@@@2@V?$Local@VArray@v8@@@2@@Z@Z
	 

	 Name : ?SetPriority@Isolate@v8@@QEAAXW4Priority@12@@Z
	 

	 Name : ?SetPrivate@Object@v8@@QEAA?AV?$Maybe@_N@2@V?$Local@VContext@v8@@@2@V?$Local@VPrivate@v8@@@2@V?$Local@VValue@v8@@@2@@Z
	 

	 Name : ?SetPrivate@Template@v8@@QEAAXV?$Local@VPrivate@v8@@@2@V?$Local@VData@v8@@@2@W4PropertyAttribute@2@@Z
	 

	 Name : ?SetProcessExitHandler@node@@YAXPEAVEnvironment@1@$$QEAV?$function@$$A6AXPEAVEnvironment@node@@H@Z@__Cr@std@@@Z
	 

	 Name : ?SetPromiseHook@Isolate@v8@@QEAAXP6AXW4PromiseHookType@2@V?$Local@VPromise@v8@@@2@V?$Local@VValue@v8@@@2@@Z@Z
	 

	 Name : ?SetPromiseHooks@Context@v8@@QEAAXV?$Local@VFunction@v8@@@2@000@Z
	 

	 Name : ?SetPromiseRejectCallback@Isolate@v8@@QEAAXP6AXVPromiseRejectMessage@2@@Z@Z
	 

	 Name : ?SetPrototype@Object@v8@@QEAA?AV?$Maybe@_N@2@V?$Local@VContext@v8@@@2@V?$Local@VValue@v8@@@2@@Z
	 

	 Name : ?SetPrototypeProviderTemplate@FunctionTemplate@v8@@QEAAXV?$Local@VFunctionTemplate@v8@@@2@@Z
	 

	 Name : ?SetPrototypeV2@Object@v8@@QEAA?AV?$Maybe@_N@2@V?$Local@VContext@v8@@@2@V?$Local@VValue@v8@@@2@@Z
	 

	 Name : ?SetRAILMode@Isolate@v8@@QEAAXW4RAILMode@2@@Z
	 

	 Name : ?SetReturnAddressLocationResolver@V8@v8@@SAXP6A_K_K@Z@Z
	 

	 Name : ?SetSamplingInterval@CpuProfiler@v8@@QEAAXH@Z
	 

	 Name : ?SetSecurityToken@Context@v8@@QEAAXV?$Local@VValue@v8@@@2@@Z
	 

	 Name : ?SetSharedArrayBufferConstructorEnabledCallback@Isolate@v8@@QEAAXP6A_NV?$Local@VContext@v8@@@2@@Z@Z
	 

	 Name : ?SetSnapshotDataBlob@V8@v8@@SAXPEAVStartupData@2@@Z
	 

	 Name : ?SetStackLimit@Isolate@v8@@QEAAX_K@Z
	 

	 Name : ?SetSupportsLegacyWireFormat@ValueDeserializer@v8@@QEAAX_N@Z
	 

	 Name : ?SetSyntheticExport@ModuleWrap@loader@node@@CAXAEBV?$FunctionCallbackInfo@VValue@v8@@@v8@@@Z
	 

	 Name : ?SetSyntheticModuleExport@Module@v8@@QEAA?AV?$Maybe@_N@2@PEAVIsolate@2@V?$Local@VString@v8@@@2@V?$Local@VValue@v8@@@2@@Z
	 

	 Name : ?SetTracingController@node@@YAXPEAVTracingController@v8@@@Z
	 

	 Name : ?SetTreatArrayBufferViewsAsHostObjects@ValueSerializer@v8@@QEAAX_N@Z
	 

	 Name : ?SetUnhandledExceptionCallback@V8@v8@@SAXP6AHPEAU_EXCEPTION_POINTERS@@@Z@Z
	 

	 Name : ?SetUrl@WasmStreaming@v8@@QEAAXPEBD_K@Z
	 

	 Name : ?SetUseCounterCallback@Isolate@v8@@QEAAXP6AXPEAV12@W4UseCounterFeature@12@@Z@Z
	 

	 Name : ?SetUsePreciseSampling@CpuProfiler@v8@@QEAAX_N@Z
	 

	 Name : ?SetVerbose@TryCatch@v8@@QEAAX_N@Z
	 

	 Name : ?SetWasmAsyncResolvePromiseCallback@Isolate@v8@@QEAAXP6AXPEAV12@V?$Local@VContext@v8@@@2@V?$Local@VResolver@Promise@v8@@@2@V?$Local@VValue@v8@@@2@W4WasmAsyncSuccess@2@@Z@Z
	 

	 Name : ?SetWasmImportedStringsEnabledCallback@Isolate@v8@@QEAAXP6A_NV?$Local@VContext@v8@@@2@@Z@Z
	 

	 Name : ?SetWasmInstanceCallback@Isolate@v8@@QEAAXP6A_NAEBV?$FunctionCallbackInfo@VValue@v8@@@2@@Z@Z
	 

	 Name : ?SetWasmJSPIEnabledCallback@Isolate@v8@@QEAAXP6A_NV?$Local@VContext@v8@@@2@@Z@Z
	 

	 Name : ?SetWasmLoadSourceMapCallback@Isolate@v8@@QEAAXP6A?AV?$Local@VString@v8@@@2@PEAV12@PEBD@Z@Z
	 

	 Name : ?SetWasmModuleCallback@Isolate@v8@@QEAAXP6A_NAEBV?$FunctionCallbackInfo@VValue@v8@@@2@@Z@Z
	 

	 Name : ?SetWasmStreamingCallback@Isolate@v8@@QEAAXP6AXAEBV?$FunctionCallbackInfo@VValue@v8@@@2@@Z@Z
	 

	 Name : ?ShouldAbortOnUncaughtException@node@@YA_NPEAVIsolate@v8@@@Z
	 

	 Name : ?ShouldMergeWithExistingScript@ConsumeCodeCacheTask@ScriptCompiler@v8@@QEBA_NXZ
	 

	 Name : ?ShouldThrowOnError@internal@v8@@YA_NPEAVIsolate@12@@Z
	 

	 Name : ?Shrink@JitPageReference@ThreadIsolation@internal@v8@@QEAAXPEAVJitPage@234@@Z
	 

	 Name : ?ShutdownProcess@cppgc@@YAXXZ
	 

	 Name : ?Size@JitPageReference@ThreadIsolation@internal@v8@@QEBA_KXZ
	 

	 Name : ?Size@Map@v8@@QEBA_KXZ
	 

	 Name : ?Size@Set@v8@@QEBA_KXZ
	 

	 Name : ?SlowGetAlignedPointerFromEmbedderData@Context@v8@@AEAAPEAXH@Z
	 

	 Name : ?SlowGetAlignedPointerFromInternalField@Object@v8@@AEAAPEAXH@Z
	 

	 Name : ?SlowGetAlignedPointerFromInternalField@Object@v8@@AEAAPEAXPEAVIsolate@2@H@Z
	 

	 Name : ?SlowGetEmbedderData@Context@v8@@AEAA?AV?$Local@VValue@v8@@@2@H@Z
	 

	 Name : ?SlowGetInternalField@Object@v8@@AEAA?AV?$Local@VData@v8@@@2@H@Z
	 

	 Name : ?SourceMapUrl@ScriptOrigin@v8@@QEBA?AV?$Local@VValue@v8@@@2@XZ
	 

	 Name : ?SourceOffsetToLocation@Module@v8@@QEBA?AVLocation@2@H@Z
	 

	 Name : ?SourceTextAvailable@ConsumeCodeCacheTask@ScriptCompiler@v8@@QEAAXPEAVIsolate@3@V?$Local@VString@v8@@@3@AEBVScriptOrigin@3@@Z
	 

	 Name : ?SpinEventLoop@node@@YA?AV?$Maybe@H@v8@@PEAVEnvironment@1@@Z
	 

	 Name : ?SplitJitPage@ThreadIsolation@internal@v8@@CA?AVJitPageReference@123@_K0@Z
	 

	 Name : ?SplitJitPageLocked@ThreadIsolation@internal@v8@@CA?AVJitPageReference@123@_K0@Z
	 

	 Name : ?SplitJitPages@ThreadIsolation@internal@v8@@CA?AU?$pair@VJitPageReference@ThreadIsolation@internal@v8@@V1234@@__Cr@std@@_K000@Z
	 

	 Name : ?StackTrace@TryCatch@v8@@QEBA?AV?$MaybeLocal@VValue@v8@@@2@V?$Local@VContext@v8@@@2@@Z
	 

	 Name : ?StackTrace@TryCatch@v8@@SA?AV?$MaybeLocal@VValue@v8@@@2@V?$Local@VContext@v8@@@2@V?$Local@VValue@v8@@@2@@Z
	 

	 Name : ?Start@CpuProfiler@v8@@QEAA?AUCpuProfilingResult@2@V?$Local@VString@v8@@@2@VCpuProfilingOptions@2@V?$unique_ptr@VDiscardedSamplesDelegate@v8@@U?$default_delete@VDiscardedSamplesDelegate@v8@@@__Cr@std@@@__Cr@std@@@Z
	 

	 Name : ?Start@CpuProfiler@v8@@QEAA?AUCpuProfilingResult@2@V?$Local@VString@v8@@@2@W4CpuProfilingMode@2@_NI@Z
	 

	 Name : ?Start@CpuProfiler@v8@@QEAA?AUCpuProfilingResult@2@V?$Local@VString@v8@@@2@_N@Z
	 

	 Name : ?Start@CpuProfiler@v8@@QEAA?AUCpuProfilingResult@2@VCpuProfilingOptions@2@V?$unique_ptr@VDiscardedSamplesDelegate@v8@@U?$default_delete@VDiscardedSamplesDelegate@v8@@@__Cr@std@@@__Cr@std@@@Z
	 

	 Name : ?Start@node@@YAHHQEAPEAD@Z
	 

	 Name : ?StartConsumingCodeCache@ScriptCompiler@v8@@SAPEAVConsumeCodeCacheTask@12@PEAVIsolate@2@V?$unique_ptr@UCachedData@ScriptCompiler@v8@@U?$default_delete@UCachedData@ScriptCompiler@v8@@@__Cr@std@@@__Cr@std@@@Z
	 

	 Name : ?StartConsumingCodeCacheOnBackground@ScriptCompiler@v8@@SAPEAVConsumeCodeCacheTask@12@PEAVIsolate@2@V?$unique_ptr@UCachedData@ScriptCompiler@v8@@U?$default_delete@UCachedData@ScriptCompiler@v8@@@__Cr@std@@@__Cr@std@@@Z
	 

	 Name : ?StartGarbageCollection@StandaloneTestingHeap@testing@cppgc@@QEAAXXZ
	 

	 Name : ?StartOfAllocationAt@JitPageReference@ThreadIsolation@internal@v8@@QEAA_K_K@Z
	 

	 Name : ?StartOfJitAllocationAt@ThreadIsolation@internal@v8@@SA?AV?$optional@_K@__Cr@std@@_K@Z
	 

	 Name : ?StartProfiling@CpuProfiler@v8@@QEAA?AW4CpuProfilingStatus@2@V?$Local@VString@v8@@@2@VCpuProfilingOptions@2@V?$unique_ptr@VDiscardedSamplesDelegate@v8@@U?$default_delete@VDiscardedSamplesDelegate@v8@@@__Cr@std@@@__Cr@std@@@Z
	 

	 Name : ?StartProfiling@CpuProfiler@v8@@QEAA?AW4CpuProfilingStatus@2@V?$Local@VString@v8@@@2@W4CpuProfilingMode@2@_NI@Z
	 

	 Name : ?StartProfiling@CpuProfiler@v8@@QEAA?AW4CpuProfilingStatus@2@V?$Local@VString@v8@@@2@_N@Z
	 

	 Name : ?StartSamplingHeapProfiler@HeapProfiler@v8@@QEAA_N_KHW4SamplingFlags@12@@Z
	 

	 Name : ?StartStreaming@ScriptCompiler@v8@@SAPEAVScriptStreamingTask@12@PEAVIsolate@2@PEAVStreamedSource@12@W4ScriptType@2@W4CompileOptions@12@P6A_NHPEAX@Z4@Z
	 

	 Name : ?StartTrackingHeapObjects@HeapProfiler@v8@@QEAAX_N@Z
	 

	 Name : ?State@Promise@v8@@QEAA?AW4PromiseState@12@XZ
	 

	 Name : ?SteeleMarkingBarrier@WriteBarrier@internal@cppgc@@SAXAEBUParams@123@PEBX@Z
	 

	 Name : ?SteeleMarkingBarrierSlow@WriteBarrier@internal@cppgc@@CAXPEBX@Z
	 

	 Name : ?SteeleMarkingBarrierSlowWithSentinelCheck@WriteBarrier@internal@cppgc@@CAXPEBX@Z
	 

	 Name : ?Step@ReasonEnum@Paused@API@Debugger@protocol@v8_inspector@@3PEBDEB
	 

	 Name : ?Stop@CpuProfiler@v8@@QEAAPEAVCpuProfile@2@I@Z
	 

	 Name : ?Stop@node@@YAHPEAVEnvironment@1@W4Flags@StopFlags@1@@Z
	 

	 Name : ?StopProfiling@CpuProfiler@v8@@QEAAPEAVCpuProfile@2@V?$Local@VString@v8@@@2@@Z
	 

	 Name : ?StopSamplingHeapProfiler@HeapProfiler@v8@@QEAAXXZ
	 

	 Name : ?StopTrackingHeapObjects@HeapProfiler@v8@@QEAAXXZ
	 

	 Name : ?StrictEquals@Value@v8@@QEBA_NV?$Local@VValue@v8@@@2@@Z
	 

	 Name : ?StringEquals@String@v8@@QEBA_NV?$Local@VString@v8@@@2@@Z
	 

	 Name : ?Stringify@JSON@v8@@SA?AV?$MaybeLocal@VString@v8@@@2@V?$Local@VContext@v8@@@2@V?$Local@VValue@v8@@@2@V?$Local@VString@v8@@@2@@Z
	 

	 Name : ?SupportsCppClassNamesAsObjectNames@NameProvider@cppgc@@SA_NXZ
	 

	 Name : ?SyntaxError@Exception@v8@@SA?AV?$Local@VValue@v8@@@2@V?$Local@VString@v8@@@2@V32@@Z
	 

	 Name : ?SyntheticModuleEvaluationStepsCallback@ModuleWrap@loader@node@@CA?AV?$MaybeLocal@VValue@v8@@@v8@@V?$Local@VContext@v8@@@5@V?$Local@VModule@v8@@@5@@Z
	 

	 Name : ?SystemClockTimeMillis@Platform@v8@@KANXZ
	 

	 Name : ?TableSlotForTesting@GCInfoTable@internal@cppgc@@QEAAAEAUGCInfo@23@G@Z
	 

	 Name : ?TakeHeapSnapshot@HeapProfiler@v8@@QEAAPEBVHeapSnapshot@2@AEBUHeapSnapshotOptions@12@@Z
	 

	 Name : ?TakeHeapSnapshot@HeapProfiler@v8@@QEAAPEBVHeapSnapshot@2@PEAVActivityControl@2@PEAVObjectNameResolver@12@_N2@Z
	 

	 Name : ?TearDownOncePerProcess@node@@YAXXZ
	 

	 Name : ?Terminate@CppHeap@v8@@QEAAXXZ
	 

	 Name : ?TerminateExecution@Isolate@v8@@QEAAXXZ
	 

	 Name : ?Then@Promise@v8@@QEAA?AV?$MaybeLocal@VPromise@v8@@@2@V?$Local@VContext@v8@@@2@V?$Local@VFunction@v8@@@2@1@Z
	 

	 Name : ?Then@Promise@v8@@QEAA?AV?$MaybeLocal@VPromise@v8@@@2@V?$Local@VContext@v8@@@2@V?$Local@VFunction@v8@@@2@@Z
	 

	 Name : ?ThrowError@Isolate@v8@@QEAA?AV?$Local@VValue@v8@@@2@V?$Local@VString@v8@@@2@@Z
	 

	 Name : ?ThrowException@Isolate@v8@@QEAA?AV?$Local@VValue@v8@@@2@V32@@Z
	 

	 Name : ?ToArrayIndex@Value@v8@@QEBA?AV?$MaybeLocal@VUint32@v8@@@2@V?$Local@VContext@v8@@@2@@Z
	 

	 Name : ?ToBigInt@Value@v8@@QEBA?AV?$MaybeLocal@VBigInt@v8@@@2@V?$Local@VContext@v8@@@2@@Z
	 

	 Name : ?ToBoolean@Value@v8@@QEBA?AV?$Local@VBoolean@v8@@@2@PEAVIsolate@2@@Z
	 

	 Name : ?ToDetailString@Value@v8@@QEBA?AV?$MaybeLocal@VString@v8@@@2@V?$Local@VContext@v8@@@2@@Z
	 

	 Name : ?ToISOString@Date@v8@@QEBA?AV?$Local@VString@v8@@@2@XZ
	 

	 Name : ?ToInt32@Value@v8@@QEBA?AV?$MaybeLocal@VInt32@v8@@@2@V?$Local@VContext@v8@@@2@@Z
	 

	 Name : ?ToInteger@Value@v8@@QEBA?AV?$MaybeLocal@VInteger@v8@@@2@V?$Local@VContext@v8@@@2@@Z
	 

	 Name : ?ToLocalEmpty@api_internal@v8@@YAXXZ
	 

	 Name : ?ToNumber@Value@v8@@QEBA?AV?$MaybeLocal@VNumber@v8@@@2@V?$Local@VContext@v8@@@2@@Z
	 

	 Name : ?ToNumeric@Value@v8@@QEBA?AV?$MaybeLocal@VNumeric@v8@@@2@V?$Local@VContext@v8@@@2@@Z
	 

	 Name : ?ToObject@Value@v8@@QEBA?AV?$MaybeLocal@VObject@v8@@@2@V?$Local@VContext@v8@@@2@@Z
	 

	 Name : ?ToPrimitive@Value@v8@@QEBA?AV?$MaybeLocal@VPrimitive@v8@@@2@V?$Local@VContext@v8@@@2@@Z
	 

	 Name : ?ToString@SourceLocation@v8@@QEBA?AV?$basic_string@DU?$char_traits@D@__Cr@std@@V?$allocator@D@23@@__Cr@std@@XZ
	 

	 Name : ?ToString@V8StackTraceId@v8_inspector@@QEAA?AV?$unique_ptr@VStringBuffer@v8_inspector@@U?$default_delete@VStringBuffer@v8_inspector@@@__Cr@std@@@__Cr@std@@XZ
	 

	 Name : ?ToString@Value@v8@@QEBA?AV?$MaybeLocal@VString@v8@@@2@V?$Local@VContext@v8@@@2@@Z
	 

	 Name : ?ToUTCString@Date@v8@@QEBA?AV?$Local@VString@v8@@@2@XZ
	 

	 Name : ?ToUint32@Value@v8@@QEBA?AV?$MaybeLocal@VUint32@v8@@@2@V?$Local@VContext@v8@@@2@@Z
	 

	 Name : ?ToWordsArray@BigInt@v8@@QEBAXPEAH0PEA_K@Z
	 

	 Name : ?ToggleMainThreadMarking@StandaloneTestingHeap@testing@cppgc@@QEAAX_N@Z
	 

	 Name : ?TotalAllocatedObjectSize@ProcessHeapStatistics@cppgc@@SA_KXZ
	 

	 Name : ?TotalAllocatedSpace@ProcessHeapStatistics@cppgc@@SA_KXZ
	 

	 Name : ?TransferArrayBuffer@ValueDeserializer@v8@@QEAAXIV?$Local@VArrayBuffer@v8@@@2@@Z
	 

	 Name : ?TransferArrayBuffer@ValueSerializer@v8@@QEAAXIV?$Local@VArrayBuffer@v8@@@2@@Z
	 

	 Name : ?TransferSharedArrayBuffer@ValueDeserializer@v8@@QEAAXIV?$Local@VSharedArrayBuffer@v8@@@2@@Z
	 

	 Name : ?TransitionDependencyOffTheRecord@CompilationDependencies@compiler@internal@v8@@QEBAPEBVCompilationDependency@234@VMapRef@234@@Z
	 

	 Name : ?TriggerNodeReport@node@@YA?AV?$basic_string@DU?$char_traits@D@__Cr@std@@V?$allocator@D@23@@__Cr@std@@PEAVEnvironment@1@PEBD1AEBV234@V?$Local@VValue@v8@@@v8@@@Z
	 

	 Name : ?TriggerNodeReport@node@@YA?AV?$basic_string@DU?$char_traits@D@__Cr@std@@V?$allocator@D@23@@__Cr@std@@PEAVIsolate@v8@@PEBD1AEBV234@V?$Local@VValue@v8@@@6@@Z
	 

	 Name : ?TryAllocateNodeFromFreeList@PersistentRegionBase@internal@cppgc@@IEAAPEAVPersistentNode@23@PEAXP6AXAEAVRootVisitor@23@PEBX@Z@Z
	 

	 Name : ?TryGetCurrent@Isolate@v8@@SAPEAV12@XZ
	 

	 Name : ?TryHandleWebAssemblyTrapWindows@v8@@YA_NPEAU_EXCEPTION_POINTERS@@@Z
	 

	 Name : ?TryLookupJitPage@ThreadIsolation@internal@v8@@CA?AV?$optional@VJitPageReference@ThreadIsolation@internal@v8@@@__Cr@std@@_K0@Z
	 

	 Name : ?TryLookupJitPageLocked@ThreadIsolation@internal@v8@@CA?AV?$optional@VJitPageReference@ThreadIsolation@internal@v8@@@__Cr@std@@_K0@Z
	 

	 Name : ?TryResetRoot@EmbedderRootsHandler@v8@@UEAA_NAEBV?$TracedReference@VValue@v8@@@2@@Z
	 

	 Name : ?TryUnwindV8Frames@Unwinder@v8@@SA_NAEBUJSEntryStubs@2@_KPEBUMemoryRange@2@PEAURegisterState@2@PEBX@Z
	 

	 Name : ?TypeError@Exception@v8@@SA?AV?$Local@VValue@v8@@@2@V?$Local@VString@v8@@@2@V32@@Z
	 

	 Name : ?TypeOf@Value@v8@@QEAA?AV?$Local@VString@v8@@@2@PEAVIsolate@2@@Z
	 

	 Name : ?UVException@node@@YA?AV?$Local@VValue@v8@@@v8@@PEAVIsolate@3@HPEBD111@Z
	 

	 Name : ?Uint32Value@Value@v8@@QEBA?AV?$Maybe@I@2@V?$Local@VContext@v8@@@2@@Z
	 

	 Name : ?Uint64Value@BigInt@v8@@QEBA_KPEA_N@Z
	 

	 Name : ?Unaccount@ExternalStringResourceBase@String@v8@@UEAAXPEAVIsolate@3@@Z
	 

	 Name : ?Unlock@ExternalStringResourceBase@String@v8@@MEBAXXZ
	 

	 Name : ?Unpack@WasmStreaming@v8@@SA?AV?$shared_ptr@VWasmStreaming@v8@@@__Cr@std@@PEAVIsolate@2@V?$Local@VValue@v8@@@2@@Z
	 

	 Name : ?UnregisterAllocation@JitPageReference@ThreadIsolation@internal@v8@@QEAAX_K@Z
	 

	 Name : ?UnregisterAllocationsExcept@JitPageReference@ThreadIsolation@internal@v8@@QEAAX_K0AEBV?$vector@_KV?$allocator@_K@__Cr@std@@@__Cr@std@@@Z
	 

	 Name : ?UnregisterJitAllocationForTesting@ThreadIsolation@internal@v8@@SAX_K0@Z
	 

	 Name : ?UnregisterJitPage@ThreadIsolation@internal@v8@@SAX_K0@Z
	 

	 Name : ?UnregisterRange@JitPageReference@ThreadIsolation@internal@v8@@QEAAX_K0@Z
	 

	 Name : ?UnregisterWasmAllocation@ThreadIsolation@internal@v8@@SAX_K0@Z
	 

	 Name : ?Unwrap@Object@v8@@CAPEAXPEAVIsolate@2@_KUCppHeapPointerTagRange@2@@Z
	 

	 Name : ?Update@TypecheckWitness@v8@@QEAAXV?$Local@VValue@v8@@@2@@Z
	 

	 Name : ?UpdateDataCache@ExternalOneByteStringResource@String@v8@@QEAAXXZ
	 

	 Name : ?UpdateDataCache@ExternalStringResource@String@v8@@QEAAXXZ
	 

	 Name : ?UpdateLoadStartTime@Isolate@v8@@QEAAXXZ
	 

	 Name : ?UseDefaultSecurityToken@Context@v8@@QEAAXXZ
	 

	 Name : ?UseDetailedSourcePositionsForProfiling@CpuProfiler@v8@@SAXPEAVIsolate@2@@Z
	 

	 Name : ?Utf8Length@String@v8@@QEBAHPEAVIsolate@2@@Z
	 

	 Name : ?V8Node@EmbedderGraph@v8@@UEAAPEAVNode@12@AEBV?$Local@VData@v8@@@2@@Z
	 

	 Name : ?ValidateIndex@FastApiTypedArrayBase@v8@@QEBAX_K@Z
	 

	 Name : ?Value@Boolean@v8@@QEBA_NXZ
	 

	 Name : ?Value@External@v8@@QEBAPEAXXZ
	 

	 Name : ?Value@Int32@v8@@QEBAHXZ
	 

	 Name : ?Value@Integer@v8@@QEBA_JXZ
	 

	 Name : ?Value@Number@v8@@QEBANXZ
	 

	 Name : ?Value@Uint32@v8@@QEBAIXZ
	 

	 Name : ?ValueOf@BigIntObject@v8@@QEBA?AV?$Local@VBigInt@v8@@@2@XZ
	 

	 Name : ?ValueOf@BooleanObject@v8@@QEBA_NXZ
	 

	 Name : ?ValueOf@Date@v8@@QEBANXZ
	 

	 Name : ?ValueOf@NumberObject@v8@@QEBANXZ
	 

	 Name : ?ValueOf@StringObject@v8@@QEBA?AV?$Local@VString@v8@@@2@XZ
	 

	 Name : ?ValueOf@SymbolObject@v8@@QEBA?AV?$Local@VSymbol@v8@@@2@XZ
	 

	 Name : ?VerifyExternalStringResource@String@v8@@AEBAXPEAVExternalStringResource@12@@Z
	 

	 Name : ?VerifyExternalStringResourceBase@String@v8@@AEBAXPEAVExternalStringResourceBase@12@W4Encoding@12@@Z
	 

	 Name : ?VerifyHandleIsNonEmpty@internal@v8@@YAX_N@Z
	 

	 Name : ?VerifyHostDefinedOptions@ScriptOrigin@v8@@AEBAXXZ
	 

	 Name : ?VerifyOnStack@?$StackAllocated@$00@api_internal@v8@@IEBAXXZ
	 

	 Name : ?Visit@Visitor@cppgc@@MEAAXPEBXUTraceDescriptor@2@@Z
	 

	 Name : ?VisitEphemeron@Visitor@cppgc@@MEAAXPEBX0UTraceDescriptor@2@@Z
	 

	 Name : ?VisitExternalResources@Isolate@v8@@QEAAXPEAVExternalResourceVisitor@2@@Z
	 

	 Name : ?VisitExternalString@ExternalResourceVisitor@v8@@UEAAXV?$Local@VString@v8@@@2@@Z
	 

	 Name : ?VisitMultipleCompressedMember@Visitor@cppgc@@MEAAXPEBX_KP6A?AUTraceDescriptor@2@0@Z@Z
	 

	 Name : ?VisitMultipleUncompressedMember@Visitor@cppgc@@MEAAXPEBX_KP6A?AUTraceDescriptor@2@0@Z@Z
	 

	 Name : ?VisitPersistentHandle@PersistentHandleVisitor@v8@@UEAAXPEAV?$Persistent@VValue@v8@@V?$NonCopyablePersistentTraits@VValue@v8@@@2@@2@G@Z
	 

	 Name : ?VisitRoot@RootVisitor@internal@cppgc@@MEAAXPEBXUTraceDescriptor@3@AEBVSourceLocation@v8@@@Z
	 

	 Name : ?VisitWeak@Visitor@cppgc@@MEAAXPEBXUTraceDescriptor@2@P6AXAEBVLivenessBroker@2@0@Z0@Z
	 

	 Name : ?VisitWeakContainer@Visitor@cppgc@@MEAAXPEBXUTraceDescriptor@2@1P6AXAEBVLivenessBroker@2@0@Z0@Z
	 

	 Name : ?VisitWeakRoot@RootVisitor@internal@cppgc@@MEAAXPEBXUTraceDescriptor@3@P6AXAEBVLivenessBroker@3@0@Z0AEBVSourceLocation@v8@@@Z
	 

	 Name : ?Wake@AtomicsWaitWakeHandle@Isolate@v8@@QEAAXXZ
	 

	 Name : ?WasDetached@ArrayBuffer@v8@@QEBA_NXZ
	 

	 Name : ?WasmCompileError@Exception@v8@@SA?AV?$Local@VValue@v8@@@2@V?$Local@VString@v8@@@2@V32@@Z
	 

	 Name : ?WasmLinkError@Exception@v8@@SA?AV?$Local@VValue@v8@@@2@V?$Local@VString@v8@@@2@V32@@Z
	 

	 Name : ?WasmRuntimeError@Exception@v8@@SA?AV?$Local@VValue@v8@@@2@V?$Local@VString@v8@@@2@V32@@Z
	 

	 Name : ?WinapiErrnoException@node@@YA?AV?$Local@VValue@v8@@@v8@@PEAVIsolate@3@HPEBD11@Z
	 

	 Name : ?WordCount@BigInt@v8@@QEBAHXZ
	 

	 Name : ?Wrap@Object@v8@@CAXPEAVIsolate@2@_KW4CppHeapPointerTag@2@PEAX@Z
	 

	 Name : ?Wrap@Object@v8@@SAXPEAVIsolate@2@AEBV?$BasicTracedReference@VObject@v8@@@2@PEAXW4CppHeapPointerTag@2@@Z
	 

	 Name : ?Wrap@Object@v8@@SAXPEAVIsolate@2@AEBV?$Local@VObject@v8@@@2@PEAXW4CppHeapPointerTag@2@@Z
	 

	 Name : ?Wrap@Object@v8@@SAXPEAVIsolate@2@AEBV?$PersistentBase@VObject@v8@@@2@PEAXW4CppHeapPointerTag@2@@Z
	 

	 Name : ?Write@String@v8@@QEBAHPEAVIsolate@2@PEAGHHH@Z
	 

	 Name : ?WriteDouble@ValueSerializer@v8@@QEAAXN@Z
	 

	 Name : ?WriteHeader@ValueSerializer@v8@@QEAAXXZ
	 

	 Name : ?WriteHeapStatsChunk@OutputStream@v8@@UEAA?AW4WriteResult@12@PEAUHeapStatsUpdate@2@H@Z
	 

	 Name : ?WriteHostObject@Delegate@ValueSerializer@v8@@UEAA?AV?$Maybe@_N@3@PEAVIsolate@3@V?$Local@VObject@v8@@@3@@Z
	 

	 Name : ?WriteOneByte@String@v8@@QEBAHPEAVIsolate@2@PEAEHHH@Z
	 

	 Name : ?WriteProtectMemory@ThreadIsolation@internal@v8@@SA_N_K0W4Permission@PageAllocator@3@@Z
	 

	 Name : ?WriteRawBytes@ValueSerializer@v8@@QEAAXPEBX_K@Z
	 

	 Name : ?WriteUint32@ValueSerializer@v8@@QEAAXI@Z
	 

	 Name : ?WriteUint64@ValueSerializer@v8@@QEAAX_K@Z
	 

	 Name : ?WriteUtf8@String@v8@@QEBAHPEAVIsolate@2@PEADHPEAHH@Z
	 

	 Name : ?WriteValue@ValueSerializer@v8@@QEAA?AV?$Maybe@_N@2@V?$Local@VContext@v8@@@2@V?$Local@VValue@v8@@@2@@Z
	 

	 Name : ?XHR@ReasonEnum@Paused@API@Debugger@protocol@v8_inspector@@3PEBDEB
	 

	 Name : ?__alloc@?$vector@UCpuProfileDeoptFrame@v8@@V?$allocator@UCpuProfileDeoptFrame@v8@@@__Cr@std@@@__Cr@std@@AEAAAEAV?$allocator@UCpuProfileDeoptFrame@v8@@@23@XZ
	 

	 Name : ?__alloc@?$vector@UCpuProfileDeoptFrame@v8@@V?$allocator@UCpuProfileDeoptFrame@v8@@@__Cr@std@@@__Cr@std@@AEBAAEBV?$allocator@UCpuProfileDeoptFrame@v8@@@23@XZ
	 

	 Name : ?__alloc@?$vector@UCpuProfileDeoptInfo@v8@@V?$allocator@UCpuProfileDeoptInfo@v8@@@__Cr@std@@@__Cr@std@@AEAAAEAV?$allocator@UCpuProfileDeoptInfo@v8@@@23@XZ
	 

	 Name : ?__alloc@?$vector@UCpuProfileDeoptInfo@v8@@V?$allocator@UCpuProfileDeoptInfo@v8@@@__Cr@std@@@__Cr@std@@AEBAAEBV?$allocator@UCpuProfileDeoptInfo@v8@@@23@XZ
	 

	 Name : ?__annotate_contiguous_container@?$vector@UCpuProfileDeoptFrame@v8@@V?$allocator@UCpuProfileDeoptFrame@v8@@@__Cr@std@@@__Cr@std@@AEBAXPEBX0@Z
	 

	 Name : ?__annotate_contiguous_container@?$vector@UCpuProfileDeoptInfo@v8@@V?$allocator@UCpuProfileDeoptInfo@v8@@@__Cr@std@@@__Cr@std@@AEBAXPEBX0@Z
	 

	 Name : ?__annotate_delete@?$vector@UCpuProfileDeoptFrame@v8@@V?$allocator@UCpuProfileDeoptFrame@v8@@@__Cr@std@@@__Cr@std@@AEBAXXZ
	 

	 Name : ?__annotate_delete@?$vector@UCpuProfileDeoptInfo@v8@@V?$allocator@UCpuProfileDeoptInfo@v8@@@__Cr@std@@@__Cr@std@@AEBAXXZ
	 

	 Name : ?__annotate_increase@?$vector@UCpuProfileDeoptFrame@v8@@V?$allocator@UCpuProfileDeoptFrame@v8@@@__Cr@std@@@__Cr@std@@AEBAX_K@Z
	 

	 Name : ?__annotate_increase@?$vector@UCpuProfileDeoptInfo@v8@@V?$allocator@UCpuProfileDeoptInfo@v8@@@__Cr@std@@@__Cr@std@@AEBAX_K@Z
	 

	 Name : ?__annotate_new@?$vector@UCpuProfileDeoptFrame@v8@@V?$allocator@UCpuProfileDeoptFrame@v8@@@__Cr@std@@@__Cr@std@@AEBAX_K@Z
	 

	 Name : ?__annotate_new@?$vector@UCpuProfileDeoptInfo@v8@@V?$allocator@UCpuProfileDeoptInfo@v8@@@__Cr@std@@@__Cr@std@@AEBAX_K@Z
	 

	 Name : ?__annotate_shrink@?$vector@UCpuProfileDeoptFrame@v8@@V?$allocator@UCpuProfileDeoptFrame@v8@@@__Cr@std@@@__Cr@std@@AEBAX_K@Z
	 

	 Name : ?__annotate_shrink@?$vector@UCpuProfileDeoptInfo@v8@@V?$allocator@UCpuProfileDeoptInfo@v8@@@__Cr@std@@@__Cr@std@@AEBAX_K@Z
	 

	 Name : ?__append@?$vector@UCpuProfileDeoptFrame@v8@@V?$allocator@UCpuProfileDeoptFrame@v8@@@__Cr@std@@@__Cr@std@@AEAAX_K@Z
	 

	 Name : ?__append@?$vector@UCpuProfileDeoptFrame@v8@@V?$allocator@UCpuProfileDeoptFrame@v8@@@__Cr@std@@@__Cr@std@@AEAAX_KAEBUCpuProfileDeoptFrame@v8@@@Z
	 

	 Name : ?__append@?$vector@UCpuProfileDeoptInfo@v8@@V?$allocator@UCpuProfileDeoptInfo@v8@@@__Cr@std@@@__Cr@std@@AEAAX_K@Z
	 

	 Name : ?__append@?$vector@UCpuProfileDeoptInfo@v8@@V?$allocator@UCpuProfileDeoptInfo@v8@@@__Cr@std@@@__Cr@std@@AEAAX_KAEBUCpuProfileDeoptInfo@v8@@@Z
	 

	 Name : ?__base_destruct_at_end@?$vector@UCpuProfileDeoptFrame@v8@@V?$allocator@UCpuProfileDeoptFrame@v8@@@__Cr@std@@@__Cr@std@@AEAAXPEAUCpuProfileDeoptFrame@v8@@@Z
	 

	 Name : ?__base_destruct_at_end@?$vector@UCpuProfileDeoptInfo@v8@@V?$allocator@UCpuProfileDeoptInfo@v8@@@__Cr@std@@@__Cr@std@@AEAAXPEAUCpuProfileDeoptInfo@v8@@@Z
	 

	 Name : ?__clear@?$vector@UCpuProfileDeoptFrame@v8@@V?$allocator@UCpuProfileDeoptFrame@v8@@@__Cr@std@@@__Cr@std@@AEAAXXZ
	 

	 Name : ?__clear@?$vector@UCpuProfileDeoptInfo@v8@@V?$allocator@UCpuProfileDeoptInfo@v8@@@__Cr@std@@@__Cr@std@@AEAAXXZ
	 

	 Name : ?__construct_at_end@?$vector@UCpuProfileDeoptFrame@v8@@V?$allocator@UCpuProfileDeoptFrame@v8@@@__Cr@std@@@__Cr@std@@AEAAX_K@Z
	 

	 Name : ?__construct_at_end@?$vector@UCpuProfileDeoptFrame@v8@@V?$allocator@UCpuProfileDeoptFrame@v8@@@__Cr@std@@@__Cr@std@@AEAAX_KAEBUCpuProfileDeoptFrame@v8@@@Z
	 

	 Name : ?__construct_at_end@?$vector@UCpuProfileDeoptInfo@v8@@V?$allocator@UCpuProfileDeoptInfo@v8@@@__Cr@std@@@__Cr@std@@AEAAX_K@Z
	 

	 Name : ?__construct_at_end@?$vector@UCpuProfileDeoptInfo@v8@@V?$allocator@UCpuProfileDeoptInfo@v8@@@__Cr@std@@@__Cr@std@@AEAAX_KAEBUCpuProfileDeoptInfo@v8@@@Z
	 

	 Name : ?__copy_assign_alloc@?$vector@UCpuProfileDeoptFrame@v8@@V?$allocator@UCpuProfileDeoptFrame@v8@@@__Cr@std@@@__Cr@std@@AEAAXAEBV123@@Z
	 

	 Name : ?__copy_assign_alloc@?$vector@UCpuProfileDeoptFrame@v8@@V?$allocator@UCpuProfileDeoptFrame@v8@@@__Cr@std@@@__Cr@std@@AEAAXAEBV123@U?$integral_constant@_N$00@23@@Z
	 

	 Name : ?__copy_assign_alloc@?$vector@UCpuProfileDeoptFrame@v8@@V?$allocator@UCpuProfileDeoptFrame@v8@@@__Cr@std@@@__Cr@std@@AEAAXAEBV123@U?$integral_constant@_N$0A@@23@@Z
	 

	 Name : ?__copy_assign_alloc@?$vector@UCpuProfileDeoptInfo@v8@@V?$allocator@UCpuProfileDeoptInfo@v8@@@__Cr@std@@@__Cr@std@@AEAAXAEBV123@@Z
	 

	 Name : ?__copy_assign_alloc@?$vector@UCpuProfileDeoptInfo@v8@@V?$allocator@UCpuProfileDeoptInfo@v8@@@__Cr@std@@@__Cr@std@@AEAAXAEBV123@U?$integral_constant@_N$00@23@@Z
	 

	 Name : ?__copy_assign_alloc@?$vector@UCpuProfileDeoptInfo@v8@@V?$allocator@UCpuProfileDeoptInfo@v8@@@__Cr@std@@@__Cr@std@@AEAAXAEBV123@U?$integral_constant@_N$0A@@23@@Z
	 

	 Name : ?__destruct_at_end@?$vector@UCpuProfileDeoptFrame@v8@@V?$allocator@UCpuProfileDeoptFrame@v8@@@__Cr@std@@@__Cr@std@@AEAAXPEAUCpuProfileDeoptFrame@v8@@@Z
	 

	 Name : ?__destruct_at_end@?$vector@UCpuProfileDeoptInfo@v8@@V?$allocator@UCpuProfileDeoptInfo@v8@@@__Cr@std@@@__Cr@std@@AEAAXPEAUCpuProfileDeoptInfo@v8@@@Z
	 

	 Name : ?__end_cap@?$vector@UCpuProfileDeoptFrame@v8@@V?$allocator@UCpuProfileDeoptFrame@v8@@@__Cr@std@@@__Cr@std@@AEAAAEAPEAUCpuProfileDeoptFrame@v8@@XZ
	 

	 Name : ?__end_cap@?$vector@UCpuProfileDeoptFrame@v8@@V?$allocator@UCpuProfileDeoptFrame@v8@@@__Cr@std@@@__Cr@std@@AEBAAEBQEAUCpuProfileDeoptFrame@v8@@XZ
	 

	 Name : ?__end_cap@?$vector@UCpuProfileDeoptInfo@v8@@V?$allocator@UCpuProfileDeoptInfo@v8@@@__Cr@std@@@__Cr@std@@AEAAAEAPEAUCpuProfileDeoptInfo@v8@@XZ
	 

	 Name : ?__end_cap@?$vector@UCpuProfileDeoptInfo@v8@@V?$allocator@UCpuProfileDeoptInfo@v8@@@__Cr@std@@@__Cr@std@@AEBAAEBQEAUCpuProfileDeoptInfo@v8@@XZ
	 

	 Name : ?__invariants@?$vector@UCpuProfileDeoptFrame@v8@@V?$allocator@UCpuProfileDeoptFrame@v8@@@__Cr@std@@@__Cr@std@@QEBA_NXZ
	 

	 Name : ?__invariants@?$vector@UCpuProfileDeoptInfo@v8@@V?$allocator@UCpuProfileDeoptInfo@v8@@@__Cr@std@@@__Cr@std@@QEBA_NXZ
	 

	 Name : ?__make_iter@?$vector@UCpuProfileDeoptFrame@v8@@V?$allocator@UCpuProfileDeoptFrame@v8@@@__Cr@std@@@__Cr@std@@AEAA?AV?$__wrap_iter@PEAUCpuProfileDeoptFrame@v8@@@23@PEAUCpuProfileDeoptFrame@v8@@@Z
	 

	 Name : ?__make_iter@?$vector@UCpuProfileDeoptFrame@v8@@V?$allocator@UCpuProfileDeoptFrame@v8@@@__Cr@std@@@__Cr@std@@AEBA?AV?$__wrap_iter@PEBUCpuProfileDeoptFrame@v8@@@23@PEBUCpuProfileDeoptFrame@v8@@@Z
	 

	 Name : ?__make_iter@?$vector@UCpuProfileDeoptInfo@v8@@V?$allocator@UCpuProfileDeoptInfo@v8@@@__Cr@std@@@__Cr@std@@AEAA?AV?$__wrap_iter@PEAUCpuProfileDeoptInfo@v8@@@23@PEAUCpuProfileDeoptInfo@v8@@@Z
	 

	 Name : ?__make_iter@?$vector@UCpuProfileDeoptInfo@v8@@V?$allocator@UCpuProfileDeoptInfo@v8@@@__Cr@std@@@__Cr@std@@AEBA?AV?$__wrap_iter@PEBUCpuProfileDeoptInfo@v8@@@23@PEBUCpuProfileDeoptInfo@v8@@@Z
	 

	 Name : ?__move_assign@?$vector@UCpuProfileDeoptFrame@v8@@V?$allocator@UCpuProfileDeoptFrame@v8@@@__Cr@std@@@__Cr@std@@AEAAXAEAV123@U?$integral_constant@_N$00@23@@Z
	 

	 Name : ?__move_assign@?$vector@UCpuProfileDeoptFrame@v8@@V?$allocator@UCpuProfileDeoptFrame@v8@@@__Cr@std@@@__Cr@std@@AEAAXAEAV123@U?$integral_constant@_N$0A@@23@@Z
	 

	 Name : ?__move_assign@?$vector@UCpuProfileDeoptInfo@v8@@V?$allocator@UCpuProfileDeoptInfo@v8@@@__Cr@std@@@__Cr@std@@AEAAXAEAV123@U?$integral_constant@_N$00@23@@Z
	 

	 Name : ?__move_assign@?$vector@UCpuProfileDeoptInfo@v8@@V?$allocator@UCpuProfileDeoptInfo@v8@@@__Cr@std@@@__Cr@std@@AEAAXAEAV123@U?$integral_constant@_N$0A@@23@@Z
	 

	 Name : ?__move_assign_alloc@?$vector@UCpuProfileDeoptFrame@v8@@V?$allocator@UCpuProfileDeoptFrame@v8@@@__Cr@std@@@__Cr@std@@AEAAXAEAV123@@Z
	 

	 Name : ?__move_assign_alloc@?$vector@UCpuProfileDeoptFrame@v8@@V?$allocator@UCpuProfileDeoptFrame@v8@@@__Cr@std@@@__Cr@std@@AEAAXAEAV123@U?$integral_constant@_N$00@23@@Z
	 

	 Name : ?__move_assign_alloc@?$vector@UCpuProfileDeoptFrame@v8@@V?$allocator@UCpuProfileDeoptFrame@v8@@@__Cr@std@@@__Cr@std@@AEAAXAEAV123@U?$integral_constant@_N$0A@@23@@Z
	 

	 Name : ?__move_assign_alloc@?$vector@UCpuProfileDeoptInfo@v8@@V?$allocator@UCpuProfileDeoptInfo@v8@@@__Cr@std@@@__Cr@std@@AEAAXAEAV123@@Z
	 

	 Name : ?__move_assign_alloc@?$vector@UCpuProfileDeoptInfo@v8@@V?$allocator@UCpuProfileDeoptInfo@v8@@@__Cr@std@@@__Cr@std@@AEAAXAEAV123@U?$integral_constant@_N$00@23@@Z
	 

	 Name : ?__move_assign_alloc@?$vector@UCpuProfileDeoptInfo@v8@@V?$allocator@UCpuProfileDeoptInfo@v8@@@__Cr@std@@@__Cr@std@@AEAAXAEAV123@U?$integral_constant@_N$0A@@23@@Z
	 

	 Name : ?__move_range@?$vector@UCpuProfileDeoptFrame@v8@@V?$allocator@UCpuProfileDeoptFrame@v8@@@__Cr@std@@@__Cr@std@@AEAAXPEAUCpuProfileDeoptFrame@v8@@00@Z
	 

	 Name : ?__move_range@?$vector@UCpuProfileDeoptInfo@v8@@V?$allocator@UCpuProfileDeoptInfo@v8@@@__Cr@std@@@__Cr@std@@AEAAXPEAUCpuProfileDeoptInfo@v8@@00@Z
	 

	 Name : ?__recommend@?$vector@UCpuProfileDeoptFrame@v8@@V?$allocator@UCpuProfileDeoptFrame@v8@@@__Cr@std@@@__Cr@std@@AEBA_K_K@Z
	 

	 Name : ?__recommend@?$vector@UCpuProfileDeoptInfo@v8@@V?$allocator@UCpuProfileDeoptInfo@v8@@@__Cr@std@@@__Cr@std@@AEBA_K_K@Z
	 

	 Name : ?__swap_out_circular_buffer@?$vector@UCpuProfileDeoptFrame@v8@@V?$allocator@UCpuProfileDeoptFrame@v8@@@__Cr@std@@@__Cr@std@@AEAAPEAUCpuProfileDeoptFrame@v8@@AEAU?$__split_buffer@UCpuProfileDeoptFrame@v8@@AEAV?$allocator@UCpuProfileDeoptFrame@v8@@@__Cr@std@@@23@PEAU45@@Z
	 

	 Name : ?__swap_out_circular_buffer@?$vector@UCpuProfileDeoptFrame@v8@@V?$allocator@UCpuProfileDeoptFrame@v8@@@__Cr@std@@@__Cr@std@@AEAAXAEAU?$__split_buffer@UCpuProfileDeoptFrame@v8@@AEAV?$allocator@UCpuProfileDeoptFrame@v8@@@__Cr@std@@@23@@Z
	 

	 Name : ?__swap_out_circular_buffer@?$vector@UCpuProfileDeoptInfo@v8@@V?$allocator@UCpuProfileDeoptInfo@v8@@@__Cr@std@@@__Cr@std@@AEAAPEAUCpuProfileDeoptInfo@v8@@AEAU?$__split_buffer@UCpuProfileDeoptInfo@v8@@AEAV?$allocator@UCpuProfileDeoptInfo@v8@@@__Cr@std@@@23@PEAU45@@Z
	 

	 Name : ?__swap_out_circular_buffer@?$vector@UCpuProfileDeoptInfo@v8@@V?$allocator@UCpuProfileDeoptInfo@v8@@@__Cr@std@@@__Cr@std@@AEAAXAEAU?$__split_buffer@UCpuProfileDeoptInfo@v8@@AEAV?$allocator@UCpuProfileDeoptInfo@v8@@@__Cr@std@@@23@@Z
	 

	 Name : ?__throw_length_error@?$vector@UCpuProfileDeoptFrame@v8@@V?$allocator@UCpuProfileDeoptFrame@v8@@@__Cr@std@@@__Cr@std@@AEBAXXZ
	 

	 Name : ?__throw_length_error@?$vector@UCpuProfileDeoptInfo@v8@@V?$allocator@UCpuProfileDeoptInfo@v8@@@__Cr@std@@@__Cr@std@@AEBAXXZ
	 

	 Name : ?__throw_out_of_range@?$vector@UCpuProfileDeoptFrame@v8@@V?$allocator@UCpuProfileDeoptFrame@v8@@@__Cr@std@@@__Cr@std@@AEBAXXZ
	 

	 Name : ?__throw_out_of_range@?$vector@UCpuProfileDeoptInfo@v8@@V?$allocator@UCpuProfileDeoptInfo@v8@@@__Cr@std@@@__Cr@std@@AEBAXXZ
	 

	 Name : ?__vallocate@?$vector@UCpuProfileDeoptFrame@v8@@V?$allocator@UCpuProfileDeoptFrame@v8@@@__Cr@std@@@__Cr@std@@AEAAX_K@Z
	 

	 Name : ?__vallocate@?$vector@UCpuProfileDeoptInfo@v8@@V?$allocator@UCpuProfileDeoptInfo@v8@@@__Cr@std@@@__Cr@std@@AEAAX_K@Z
	 

	 Name : ?__vdeallocate@?$vector@UCpuProfileDeoptFrame@v8@@V?$allocator@UCpuProfileDeoptFrame@v8@@@__Cr@std@@@__Cr@std@@AEAAXXZ
	 

	 Name : ?__vdeallocate@?$vector@UCpuProfileDeoptInfo@v8@@V?$allocator@UCpuProfileDeoptInfo@v8@@@__Cr@std@@@__Cr@std@@AEAAXXZ
	 

	 Name : ?allocate_impl@StrongRootAllocatorBase@internal@v8@@IEAAPEA_K_K@Z
	 

	 Name : ?allocator@GCInfoTable@internal@cppgc@@QEBAAEAVPageAllocator@v8@@XZ
	 

	 Name : ?allocator@ThreadIsolation@internal@v8@@CAPEAVThreadIsolatedAllocator@3@XZ
	 

	 Name : ?array_buffer_allocator@CommonEnvironmentSetup@node@@QEBA?AV?$shared_ptr@VArrayBufferAllocator@node@@@__Cr@std@@XZ
	 

	 Name : ?assign@?$vector@UCpuProfileDeoptFrame@v8@@V?$allocator@UCpuProfileDeoptFrame@v8@@@__Cr@std@@@__Cr@std@@QEAAXV?$initializer_list@UCpuProfileDeoptFrame@v8@@@3@@Z
	 

	 Name : ?assign@?$vector@UCpuProfileDeoptFrame@v8@@V?$allocator@UCpuProfileDeoptFrame@v8@@@__Cr@std@@@__Cr@std@@QEAAX_KAEBUCpuProfileDeoptFrame@v8@@@Z
	 

	 Name : ?assign@?$vector@UCpuProfileDeoptInfo@v8@@V?$allocator@UCpuProfileDeoptInfo@v8@@@__Cr@std@@@__Cr@std@@QEAAXV?$initializer_list@UCpuProfileDeoptInfo@v8@@@3@@Z
	 

	 Name : ?assign@?$vector@UCpuProfileDeoptInfo@v8@@V?$allocator@UCpuProfileDeoptInfo@v8@@@__Cr@std@@@__Cr@std@@QEAAX_KAEBUCpuProfileDeoptInfo@v8@@@Z
	 

	 Name : ?at@?$vector@UCpuProfileDeoptFrame@v8@@V?$allocator@UCpuProfileDeoptFrame@v8@@@__Cr@std@@@__Cr@std@@QEAAAEAUCpuProfileDeoptFrame@v8@@_K@Z
	 

	 Name : ?at@?$vector@UCpuProfileDeoptFrame@v8@@V?$allocator@UCpuProfileDeoptFrame@v8@@@__Cr@std@@@__Cr@std@@QEBAAEBUCpuProfileDeoptFrame@v8@@_K@Z
	 

	 Name : ?at@?$vector@UCpuProfileDeoptInfo@v8@@V?$allocator@UCpuProfileDeoptInfo@v8@@@__Cr@std@@@__Cr@std@@QEAAAEAUCpuProfileDeoptInfo@v8@@_K@Z
	 

	 Name : ?at@?$vector@UCpuProfileDeoptInfo@v8@@V?$allocator@UCpuProfileDeoptInfo@v8@@@__Cr@std@@@__Cr@std@@QEBAAEBUCpuProfileDeoptInfo@v8@@_K@Z
	 

	 Name : ?auto_enable@Extension@v8@@QEAA_NXZ
	 

	 Name : ?back@?$vector@UCpuProfileDeoptFrame@v8@@V?$allocator@UCpuProfileDeoptFrame@v8@@@__Cr@std@@@__Cr@std@@QEAAAEAUCpuProfileDeoptFrame@v8@@XZ
	 

	 Name : ?back@?$vector@UCpuProfileDeoptFrame@v8@@V?$allocator@UCpuProfileDeoptFrame@v8@@@__Cr@std@@@__Cr@std@@QEBAAEBUCpuProfileDeoptFrame@v8@@XZ
	 

	 Name : ?back@?$vector@UCpuProfileDeoptInfo@v8@@V?$allocator@UCpuProfileDeoptInfo@v8@@@__Cr@std@@@__Cr@std@@QEAAAEAUCpuProfileDeoptInfo@v8@@XZ
	 

	 Name : ?back@?$vector@UCpuProfileDeoptInfo@v8@@V?$allocator@UCpuProfileDeoptInfo@v8@@@__Cr@std@@@__Cr@std@@QEBAAEBUCpuProfileDeoptInfo@v8@@XZ
	 

	 Name : ?begin@?$MemorySpan@$$CBE@v8@@QEBA?AVIterator@12@XZ
	 

	 Name : ?begin@?$MemorySpan@$$CBV?$Local@VValue@v8@@@v8@@@v8@@QEBA?AVIterator@12@XZ
	 

	 Name : ?begin@?$MemorySpan@$$CBV?$basic_string_view@DU?$char_traits@D@__Cr@std@@@__Cr@std@@@v8@@QEBA?AVIterator@12@XZ
	 

	 Name : ?begin@?$MemorySpan@V?$Handle@VMap@internal@v8@@@internal@v8@@@v8@@QEBA?AVIterator@12@XZ
	 

	 Name : ?begin@?$MemorySpan@V?$MaybeLocal@VValue@v8@@@v8@@@v8@@QEBA?AVIterator@12@XZ
	 

	 Name : ?begin@?$vector@UCpuProfileDeoptFrame@v8@@V?$allocator@UCpuProfileDeoptFrame@v8@@@__Cr@std@@@__Cr@std@@QEAA?AV?$__wrap_iter@PEAUCpuProfileDeoptFrame@v8@@@23@XZ
	 

	 Name : ?begin@?$vector@UCpuProfileDeoptFrame@v8@@V?$allocator@UCpuProfileDeoptFrame@v8@@@__Cr@std@@@__Cr@std@@QEBA?AV?$__wrap_iter@PEBUCpuProfileDeoptFrame@v8@@@23@XZ
	 

	 Name : ?begin@?$vector@UCpuProfileDeoptInfo@v8@@V?$allocator@UCpuProfileDeoptInfo@v8@@@__Cr@std@@@__Cr@std@@QEAA?AV?$__wrap_iter@PEAUCpuProfileDeoptInfo@v8@@@23@XZ
	 

	 Name : ?begin@?$vector@UCpuProfileDeoptInfo@v8@@V?$allocator@UCpuProfileDeoptInfo@v8@@@__Cr@std@@@__Cr@std@@QEBA?AV?$__wrap_iter@PEBUCpuProfileDeoptInfo@v8@@@23@XZ
	 

	 Name : ?begin@ExtensionConfiguration@v8@@QEBAPEAPEBDXZ
	 

	 Name : ?beginEnsureAllContextsInGroup@V8InspectorClient@v8_inspector@@UEAAXH@Z
	 

	 Name : ?beginUserGesture@V8InspectorClient@v8_inspector@@UEAAXXZ
	 

	 Name : ?build_@Version@internal@v8@@0HA
	 

	 Name : ?bytecode_and_metadata_size@HeapCodeStatistics@v8@@QEAA_KXZ
	 

	 Name : ?cached_data@ExternalOneByteStringResource@String@v8@@QEBAPEBDXZ
	 

	 Name : ?cached_data@ExternalStringResource@String@v8@@QEBAPEBGXZ
	 

	 Name : ?canDispatchMethod@V8InspectorSession@v8_inspector@@SA_NVStringView@2@@Z
	 

	 Name : ?canExecuteScripts@V8InspectorClient@v8_inspector@@UEAA_NH@Z
	 

	 Name : ?cancelTimer@V8InspectorClient@v8_inspector@@UEAAXPEAX@Z
	 

	 Name : ?candidate_@Version@internal@v8@@0_NA
	 

	 Name : ?capacity@?$vector@UCpuProfileDeoptFrame@v8@@V?$allocator@UCpuProfileDeoptFrame@v8@@@__Cr@std@@@__Cr@std@@QEBA_KXZ
	 

	 Name : ?capacity@?$vector@UCpuProfileDeoptInfo@v8@@V?$allocator@UCpuProfileDeoptInfo@v8@@@__Cr@std@@@__Cr@std@@QEBA_KXZ
	 

	 Name : ?card@AgeTable@internal@cppgc@@AEBA_K_K@Z
	 

	 Name : ?cbegin@?$vector@UCpuProfileDeoptFrame@v8@@V?$allocator@UCpuProfileDeoptFrame@v8@@@__Cr@std@@@__Cr@std@@QEBA?AV?$__wrap_iter@PEBUCpuProfileDeoptFrame@v8@@@23@XZ
	 

	 Name : ?cbegin@?$vector@UCpuProfileDeoptInfo@v8@@V?$allocator@UCpuProfileDeoptInfo@v8@@@__Cr@std@@@__Cr@std@@QEBA?AV?$__wrap_iter@PEBUCpuProfileDeoptInfo@v8@@@23@XZ
	 

	 Name : ?cend@?$vector@UCpuProfileDeoptFrame@v8@@V?$allocator@UCpuProfileDeoptFrame@v8@@@__Cr@std@@@__Cr@std@@QEBA?AV?$__wrap_iter@PEBUCpuProfileDeoptFrame@v8@@@23@XZ
	 

	 Name : ?cend@?$vector@UCpuProfileDeoptInfo@v8@@V?$allocator@UCpuProfileDeoptInfo@v8@@@__Cr@std@@@__Cr@std@@QEBA?AV?$__wrap_iter@PEBUCpuProfileDeoptInfo@v8@@@23@XZ
	 

	 Name : ?characters16@StringView@v8_inspector@@QEBAPEBGXZ
	 

	 Name : ?characters8@StringView@v8_inspector@@QEBAPEBEXZ
	 

	 Name : ?clear@?$vector@UCpuProfileDeoptFrame@v8@@V?$allocator@UCpuProfileDeoptFrame@v8@@@__Cr@std@@@__Cr@std@@QEAAXXZ
	 

	 Name : ?clear@?$vector@UCpuProfileDeoptInfo@v8@@V?$allocator@UCpuProfileDeoptInfo@v8@@@__Cr@std@@@__Cr@std@@QEAAXXZ
	 

	 Name : ?code_and_metadata_size@HeapCodeStatistics@v8@@QEAA_KXZ
	 

	 Name : ?code_range_size_in_bytes@ResourceConstraints@v8@@QEBA_KXZ
	 

	 Name : ?compilation_details@StreamedSource@ScriptCompiler@v8@@QEAAAEAUCompilationDetails@23@XZ
	 

	 Name : ?configurable@PropertyDescriptor@v8@@QEBA_NXZ
	 

	 Name : ?connect@V8Inspector@v8_inspector@@UEAA?AV?$unique_ptr@VV8InspectorSession@v8_inspector@@U?$default_delete@VV8InspectorSession@v8_inspector@@@__Cr@std@@@__Cr@std@@HPEAVChannel@12@VStringView@2@W4ClientTrustLevel@12@W4SessionPauseState@12@@Z
	 

	 Name : ?consoleAPIMessage@V8InspectorClient@v8_inspector@@UEAAXHW4MessageErrorLevel@Isolate@v8@@AEBVStringView@2@1IIPEAVV8StackTrace@2@@Z
	 

	 Name : ?consoleClear@V8InspectorClient@v8_inspector@@UEAAXH@Z
	 

	 Name : ?consoleTime@V8InspectorClient@v8_inspector@@UEAAXPEAVIsolate@v8@@V?$Local@VString@v8@@@4@@Z
	 

	 Name : ?consoleTimeEnd@V8InspectorClient@v8_inspector@@UEAAXPEAVIsolate@v8@@V?$Local@VString@v8@@@4@@Z
	 

	 Name : ?consoleTimeStamp@V8InspectorClient@v8_inspector@@UEAAXPEAVIsolate@v8@@V?$Local@VString@v8@@@4@@Z
	 

	 Name : ?context@CommonEnvironmentSetup@node@@QEBA?AV?$Local@VContext@v8@@@v8@@XZ
	 

	 Name : ?context@ModuleWrap@loader@node@@QEBA?AV?$Local@VContext@v8@@@v8@@XZ
	 

	 Name : ?cpu_profiler_metadata_size@HeapCodeStatistics@v8@@QEAA_KXZ
	 

	 Name : ?crbegin@?$vector@UCpuProfileDeoptFrame@v8@@V?$allocator@UCpuProfileDeoptFrame@v8@@@__Cr@std@@@__Cr@std@@QEBA?AV?$reverse_iterator@V?$__wrap_iter@PEBUCpuProfileDeoptFrame@v8@@@__Cr@std@@@23@XZ
	 

	 Name : ?crbegin@?$vector@UCpuProfileDeoptInfo@v8@@V?$allocator@UCpuProfileDeoptInfo@v8@@@__Cr@std@@@__Cr@std@@QEBA?AV?$reverse_iterator@V?$__wrap_iter@PEBUCpuProfileDeoptInfo@v8@@@__Cr@std@@@23@XZ
	 

	 Name : ?create@StringBuffer@v8_inspector@@SA?AV?$unique_ptr@VStringBuffer@v8_inspector@@U?$default_delete@VStringBuffer@v8_inspector@@@__Cr@std@@@__Cr@std@@VStringView@2@@Z
	 

	 Name : ?create@V8Inspector@v8_inspector@@SA?AV?$unique_ptr@VV8Inspector@v8_inspector@@U?$default_delete@VV8Inspector@v8_inspector@@@__Cr@std@@@__Cr@std@@PEAVIsolate@v8@@PEAVV8InspectorClient@2@@Z
	 

	 Name : ?crend@?$vector@UCpuProfileDeoptFrame@v8@@V?$allocator@UCpuProfileDeoptFrame@v8@@@__Cr@std@@@__Cr@std@@QEBA?AV?$reverse_iterator@V?$__wrap_iter@PEBUCpuProfileDeoptFrame@v8@@@__Cr@std@@@23@XZ
	 

	 Name : ?crend@?$vector@UCpuProfileDeoptInfo@v8@@V?$allocator@UCpuProfileDeoptInfo@v8@@@__Cr@std@@@__Cr@std@@QEBA?AV?$reverse_iterator@V?$__wrap_iter@PEBUCpuProfileDeoptInfo@v8@@@__Cr@std@@@23@XZ
	 

	 Name : ?currentTimeMS@V8InspectorClient@v8_inspector@@UEAANXZ
	 

	 Name : ?data16@ValueView@String@v8@@QEBAPEBGXZ
	 

	 Name : ?data8@ValueView@String@v8@@QEBAPEBEXZ
	 

	 Name : ?data@?$MemorySpan@$$CBD@v8@@QEBAPEBDXZ
	 

	 Name : ?data@?$MemorySpan@$$CBE@v8@@QEBAPEBEXZ
	 

	 Name : ?data@?$MemorySpan@$$CBVCFunction@v8@@@v8@@QEBAPEBVCFunction@2@XZ
	 

	 Name : ?data@?$MemorySpan@E@v8@@QEBAPEAEXZ
	 

	 Name : ?data@?$MemorySpan@V?$Handle@VObject@internal@v8@@@internal@v8@@@v8@@QEBAPEAV?$Handle@VObject@internal@v8@@@internal@2@XZ
	 

	 Name : ?data@?$MemorySpan@_K@v8@@QEBAPEA_KXZ
	 

	 Name : ?data@?$vector@UCpuProfileDeoptFrame@v8@@V?$allocator@UCpuProfileDeoptFrame@v8@@@__Cr@std@@@__Cr@std@@QEAAPEAUCpuProfileDeoptFrame@v8@@XZ
	 

	 Name : ?data@?$vector@UCpuProfileDeoptFrame@v8@@V?$allocator@UCpuProfileDeoptFrame@v8@@@__Cr@std@@@__Cr@std@@QEBAPEBUCpuProfileDeoptFrame@v8@@XZ
	 

	 Name : ?data@?$vector@UCpuProfileDeoptInfo@v8@@V?$allocator@UCpuProfileDeoptInfo@v8@@@__Cr@std@@@__Cr@std@@QEAAPEAUCpuProfileDeoptInfo@v8@@XZ
	 

	 Name : ?data@?$vector@UCpuProfileDeoptInfo@v8@@V?$allocator@UCpuProfileDeoptInfo@v8@@@__Cr@std@@@__Cr@std@@QEBAPEBUCpuProfileDeoptInfo@v8@@XZ
	 

	 Name : ?data@Binary@protocol@v8_inspector@@QEBAPEBEXZ
	 

	 Name : ?deallocate_impl@StrongRootAllocatorBase@internal@v8@@IEAAXPEA_K_K@Z
	 

	 Name : ?deepSerialize@V8InspectorClient@v8_inspector@@UEAA?AV?$unique_ptr@UDeepSerializationResult@v8_inspector@@U?$default_delete@UDeepSerializationResult@v8_inspector@@@__Cr@std@@@__Cr@std@@V?$Local@VValue@v8@@@v8@@HV?$Local@VObject@v8@@@7@@Z
	 

	 Name : ?dependencies@Extension@v8@@QEBAPEAPEBDXZ
	 

	 Name : ?dependency_count@Extension@v8@@QEBAHXZ
	 

	 Name : ?descriptionForValueSubtype@V8InspectorClient@v8_inspector@@UEAA?AV?$unique_ptr@VStringBuffer@v8_inspector@@U?$default_delete@VStringBuffer@v8_inspector@@@__Cr@std@@@__Cr@std@@V?$Local@VContext@v8@@@v8@@V?$Local@VValue@v8@@@7@@Z
	 

	 Name : ?dispatchError@V8InspectorClient@v8_inspector@@UEAAXV?$Local@VContext@v8@@@v8@@V?$Local@VMessage@v8@@@4@V?$Local@VValue@v8@@@4@@Z
	 

	 Name : ?does_zap_garbage@HeapStatistics@v8@@QEAA_KXZ
	 

	 Name : ?embedder_@Version@internal@v8@@0PEBDEB
	 

	 Name : ?empty@?$MemorySpan@$$CBVCFunction@v8@@@v8@@QEBA_NXZ
	 

	 Name : ?empty@?$vector@UCpuProfileDeoptFrame@v8@@V?$allocator@UCpuProfileDeoptFrame@v8@@@__Cr@std@@@__Cr@std@@QEBA_NXZ
	 

	 Name : ?empty@?$vector@UCpuProfileDeoptInfo@v8@@V?$allocator@UCpuProfileDeoptInfo@v8@@@__Cr@std@@@__Cr@std@@QEBA_NXZ
	 

	 Name : ?end@?$MemorySpan@$$CBE@v8@@QEBA?AVIterator@12@XZ
	 

	 Name : ?end@?$MemorySpan@$$CBV?$Local@VValue@v8@@@v8@@@v8@@QEBA?AVIterator@12@XZ
	 

	 Name : ?end@?$MemorySpan@$$CBV?$basic_string_view@DU?$char_traits@D@__Cr@std@@@__Cr@std@@@v8@@QEBA?AVIterator@12@XZ
	 

	 Name : ?end@?$MemorySpan@V?$Handle@VMap@internal@v8@@@internal@v8@@@v8@@QEBA?AVIterator@12@XZ
	 

	 Name : ?end@?$MemorySpan@V?$MaybeLocal@VValue@v8@@@v8@@@v8@@QEBA?AVIterator@12@XZ
	 

	 Name : ?end@?$vector@UCpuProfileDeoptFrame@v8@@V?$allocator@UCpuProfileDeoptFrame@v8@@@__Cr@std@@@__Cr@std@@QEAA?AV?$__wrap_iter@PEAUCpuProfileDeoptFrame@v8@@@23@XZ
	 

	 Name : ?end@?$vector@UCpuProfileDeoptFrame@v8@@V?$allocator@UCpuProfileDeoptFrame@v8@@@__Cr@std@@@__Cr@std@@QEBA?AV?$__wrap_iter@PEBUCpuProfileDeoptFrame@v8@@@23@XZ
	 

	 Name : ?end@?$vector@UCpuProfileDeoptInfo@v8@@V?$allocator@UCpuProfileDeoptInfo@v8@@@__Cr@std@@@__Cr@std@@QEAA?AV?$__wrap_iter@PEAUCpuProfileDeoptInfo@v8@@@23@XZ
	 

	 Name : ?end@?$vector@UCpuProfileDeoptInfo@v8@@V?$allocator@UCpuProfileDeoptInfo@v8@@@__Cr@std@@@__Cr@std@@QEBA?AV?$__wrap_iter@PEBUCpuProfileDeoptInfo@v8@@@23@XZ
	 

	 Name : ?end@ExtensionConfiguration@v8@@QEBAPEAPEBDXZ
	 

	 Name : ?endEnsureAllContextsInGroup@V8InspectorClient@v8_inspector@@UEAAXH@Z
	 

	 Name : ?endUserGesture@V8InspectorClient@v8_inspector@@UEAAXXZ
	 

	 Name : ?ensureDefaultContextInGroup@V8InspectorClient@v8_inspector@@UEAA?AV?$Local@VContext@v8@@@v8@@H@Z
	 

	 Name : ?enumerable@PropertyDescriptor@v8@@QEBA_NXZ
	 

	 Name : ?env@CommonEnvironmentSetup@node@@QEBAPEAVEnvironment@2@XZ
	 

	 Name : ?erase@?$vector@UCpuProfileDeoptFrame@v8@@V?$allocator@UCpuProfileDeoptFrame@v8@@@__Cr@std@@@__Cr@std@@QEAA?AV?$__wrap_iter@PEAUCpuProfileDeoptFrame@v8@@@23@V?$__wrap_iter@PEBUCpuProfileDeoptFrame@v8@@@23@0@Z
	 

	 Name : ?erase@?$vector@UCpuProfileDeoptFrame@v8@@V?$allocator@UCpuProfileDeoptFrame@v8@@@__Cr@std@@@__Cr@std@@QEAA?AV?$__wrap_iter@PEAUCpuProfileDeoptFrame@v8@@@23@V?$__wrap_iter@PEBUCpuProfileDeoptFrame@v8@@@23@@Z
	 

	 Name : ?erase@?$vector@UCpuProfileDeoptInfo@v8@@V?$allocator@UCpuProfileDeoptInfo@v8@@@__Cr@std@@@__Cr@std@@QEAA?AV?$__wrap_iter@PEAUCpuProfileDeoptInfo@v8@@@23@V?$__wrap_iter@PEBUCpuProfileDeoptInfo@v8@@@23@0@Z
	 

	 Name : ?erase@?$vector@UCpuProfileDeoptInfo@v8@@V?$allocator@UCpuProfileDeoptInfo@v8@@@__Cr@std@@@__Cr@std@@QEAA?AV?$__wrap_iter@PEAUCpuProfileDeoptInfo@v8@@@23@V?$__wrap_iter@PEBUCpuProfileDeoptInfo@v8@@@23@@Z
	 

	 Name : ?event_loop@CommonEnvironmentSetup@node@@QEBAPEAUuv_loop_s@@XZ
	 

	 Name : ?executionContextId@V8ContextInfo@v8_inspector@@SAHV?$Local@VContext@v8@@@v8@@@Z
	 

	 Name : ?external_memory@HeapStatistics@v8@@QEAA_KXZ
	 

	 Name : ?external_script_source_size@HeapCodeStatistics@v8@@QEAA_KXZ
	 

	 Name : ?fromBase64@Binary@protocol@v8_inspector@@SA?AV123@AEBVString16@3@PEA_N@Z
	 

	 Name : ?fromBinary@Domain@API@Schema@protocol@v8_inspector@@SA?AV?$unique_ptr@VDomain@API@Schema@protocol@v8_inspector@@U?$default_delete@VDomain@API@Schema@protocol@v8_inspector@@@__Cr@std@@@__Cr@std@@PEBE_K@Z
	 

	 Name : ?fromBinary@RemoteObject@API@Runtime@protocol@v8_inspector@@SA?AV?$unique_ptr@VRemoteObject@API@Runtime@protocol@v8_inspector@@U?$default_delete@VRemoteObject@API@Runtime@protocol@v8_inspector@@@__Cr@std@@@__Cr@std@@PEBE_K@Z
	 

	 Name : ?fromBinary@SearchMatch@API@Debugger@protocol@v8_inspector@@SA?AV?$unique_ptr@VSearchMatch@API@Debugger@protocol@v8_inspector@@U?$default_delete@VSearchMatch@API@Debugger@protocol@v8_inspector@@@__Cr@std@@@__Cr@std@@PEBE_K@Z
	 

	 Name : ?fromBinary@StackTrace@API@Runtime@protocol@v8_inspector@@SA?AV?$unique_ptr@VStackTrace@API@Runtime@protocol@v8_inspector@@U?$default_delete@VStackTrace@API@Runtime@protocol@v8_inspector@@@__Cr@std@@@__Cr@std@@PEBE_K@Z
	 

	 Name : ?fromBinary@StackTraceId@API@Runtime@protocol@v8_inspector@@SA?AV?$unique_ptr@VStackTraceId@API@Runtime@protocol@v8_inspector@@U?$default_delete@VStackTraceId@API@Runtime@protocol@v8_inspector@@@__Cr@std@@@__Cr@std@@PEBE_K@Z
	 

	 Name : ?fromSpan@Binary@protocol@v8_inspector@@SA?AV123@V?$MemorySpan@$$CBE@v8@@@Z
	 

	 Name : ?fromSpan@Binary@protocol@v8_inspector@@SA?AV123@V?$span@E@v8_crdtp@@@Z
	 

	 Name : ?fromUTF16LE@String16@v8_inspector@@SA?AV12@PEBG_K@Z
	 

	 Name : ?fromUTF16LE@String16@v8_inspector@@SA?AV12@PEB_S_K@Z
	 

	 Name : ?fromUTF8@String16@v8_inspector@@SA?AV12@PEBD_K@Z
	 

	 Name : ?front@?$vector@UCpuProfileDeoptFrame@v8@@V?$allocator@UCpuProfileDeoptFrame@v8@@@__Cr@std@@@__Cr@std@@QEAAAEAUCpuProfileDeoptFrame@v8@@XZ
	 

	 Name : ?front@?$vector@UCpuProfileDeoptFrame@v8@@V?$allocator@UCpuProfileDeoptFrame@v8@@@__Cr@std@@@__Cr@std@@QEBAAEBUCpuProfileDeoptFrame@v8@@XZ
	 

	 Name : ?front@?$vector@UCpuProfileDeoptInfo@v8@@V?$allocator@UCpuProfileDeoptInfo@v8@@@__Cr@std@@@__Cr@std@@QEAAAEAUCpuProfileDeoptInfo@v8@@XZ
	 

	 Name : ?front@?$vector@UCpuProfileDeoptInfo@v8@@V?$allocator@UCpuProfileDeoptInfo@v8@@@__Cr@std@@@__Cr@std@@QEBAAEBUCpuProfileDeoptInfo@v8@@XZ
	 

	 Name : ?g_age_table_size_@CagedHeapBase@internal@cppgc@@0_KA
	 

	 Name : ?g_base_@CageBaseGlobal@internal@cppgc@@0TBase@123@A
	 

	 Name : ?g_heap_base_@CagedHeapBase@internal@cppgc@@0_KA
	 

	 Name : ?generateUniqueId@V8InspectorClient@v8_inspector@@UEAA_JXZ
	 

	 Name : ?get@PropertyDescriptor@v8@@QEBA?AV?$Local@VValue@v8@@@2@XZ
	 

	 Name : ?get_active_implementation@simdutf@@YAAEAV?$atomic_ptr@$$CBVimplementation@simdutf@@@internal@1@XZ
	 

	 Name : ?get_allocator@?$vector@UCpuProfileDeoptFrame@v8@@V?$allocator@UCpuProfileDeoptFrame@v8@@@__Cr@std@@@__Cr@std@@QEBA?AV?$allocator@UCpuProfileDeoptFrame@v8@@@23@XZ
	 

	 Name : ?get_allocator@?$vector@UCpuProfileDeoptInfo@v8@@V?$allocator@UCpuProfileDeoptInfo@v8@@@__Cr@std@@@__Cr@std@@QEBA?AV?$allocator@UCpuProfileDeoptInfo@v8@@@23@XZ
	 

	 Name : ?get_async_id@AsyncResource@node@@QEBANXZ
	 

	 Name : ?get_available_implementations@simdutf@@YAAEBVavailable_implementation_list@internal@1@XZ
	 

	 Name : ?get_linked_module@binding@node@@YAPEAUnode_module@2@PEBD@Z
	 

	 Name : ?get_private@PropertyDescriptor@v8@@QEBAPEAUPrivateData@12@XZ
	 

	 Name : ?get_resource@AsyncResource@node@@QEAA?AV?$Local@VObject@v8@@@v8@@XZ
	 

	 Name : ?get_trigger_async_id@AsyncResource@node@@QEBANXZ
	 

	 Name : ?global_table_@GlobalGCInfoTable@internal@cppgc@@0PEAVGCInfoTable@23@EA
	 

	 Name : ?has_configurable@PropertyDescriptor@v8@@QEBA_NXZ
	 

	 Name : ?has_enumerable@PropertyDescriptor@v8@@QEBA_NXZ
	 

	 Name : ?has_filter_context@CpuProfilingOptions@v8@@AEBA_NXZ
	 

	 Name : ?has_get@PropertyDescriptor@v8@@QEBA_NXZ
	 

	 Name : ?has_set@PropertyDescriptor@v8@@QEBA_NXZ
	 

	 Name : ?has_value@PropertyDescriptor@v8@@QEBA_NXZ
	 

	 Name : ?has_writable@PropertyDescriptor@v8@@QEBA_NXZ
	 

	 Name : ?heap@StrongRootAllocatorBase@internal@v8@@QEBAPEAVHeap@23@XZ
	 

	 Name : ?heap_size_limit@HeapStatistics@v8@@QEAA_KXZ
	 

	 Name : ?impl@StreamedSource@ScriptCompiler@v8@@QEBAPEAUScriptStreamingData@internal@3@XZ
	 

	 Name : ?initial_old_generation_size_in_bytes@ResourceConstraints@v8@@QEBA_KXZ
	 

	 Name : ?initial_young_generation_size_in_bytes@ResourceConstraints@v8@@QEBA_KXZ
	 

	 Name : ?insert@?$vector@UCpuProfileDeoptFrame@v8@@V?$allocator@UCpuProfileDeoptFrame@v8@@@__Cr@std@@@__Cr@std@@QEAA?AV?$__wrap_iter@PEAUCpuProfileDeoptFrame@v8@@@23@V?$__wrap_iter@PEBUCpuProfileDeoptFrame@v8@@@23@$$QEAUCpuProfileDeoptFrame@v8@@@Z
	 

	 Name : ?insert@?$vector@UCpuProfileDeoptFrame@v8@@V?$allocator@UCpuProfileDeoptFrame@v8@@@__Cr@std@@@__Cr@std@@QEAA?AV?$__wrap_iter@PEAUCpuProfileDeoptFrame@v8@@@23@V?$__wrap_iter@PEBUCpuProfileDeoptFrame@v8@@@23@AEBUCpuProfileDeoptFrame@v8@@@Z
	 

	 Name : ?insert@?$vector@UCpuProfileDeoptFrame@v8@@V?$allocator@UCpuProfileDeoptFrame@v8@@@__Cr@std@@@__Cr@std@@QEAA?AV?$__wrap_iter@PEAUCpuProfileDeoptFrame@v8@@@23@V?$__wrap_iter@PEBUCpuProfileDeoptFrame@v8@@@23@V?$initializer_list@UCpuProfileDeoptFrame@v8@@@3@@Z
	 

	 Name : ?insert@?$vector@UCpuProfileDeoptFrame@v8@@V?$allocator@UCpuProfileDeoptFrame@v8@@@__Cr@std@@@__Cr@std@@QEAA?AV?$__wrap_iter@PEAUCpuProfileDeoptFrame@v8@@@23@V?$__wrap_iter@PEBUCpuProfileDeoptFrame@v8@@@23@_KAEBUCpuProfileDeoptFrame@v8@@@Z
	 

	 Name : ?insert@?$vector@UCpuProfileDeoptInfo@v8@@V?$allocator@UCpuProfileDeoptInfo@v8@@@__Cr@std@@@__Cr@std@@QEAA?AV?$__wrap_iter@PEAUCpuProfileDeoptInfo@v8@@@23@V?$__wrap_iter@PEBUCpuProfileDeoptInfo@v8@@@23@$$QEAUCpuProfileDeoptInfo@v8@@@Z
	 

	 Name : ?insert@?$vector@UCpuProfileDeoptInfo@v8@@V?$allocator@UCpuProfileDeoptInfo@v8@@@__Cr@std@@@__Cr@std@@QEAA?AV?$__wrap_iter@PEAUCpuProfileDeoptInfo@v8@@@23@V?$__wrap_iter@PEBUCpuProfileDeoptInfo@v8@@@23@AEBUCpuProfileDeoptInfo@v8@@@Z
	 

	 Name : ?insert@?$vector@UCpuProfileDeoptInfo@v8@@V?$allocator@UCpuProfileDeoptInfo@v8@@@__Cr@std@@@__Cr@std@@QEAA?AV?$__wrap_iter@PEAUCpuProfileDeoptInfo@v8@@@23@V?$__wrap_iter@PEBUCpuProfileDeoptInfo@v8@@@23@V?$initializer_list@UCpuProfileDeoptInfo@v8@@@3@@Z
	 

	 Name : ?insert@?$vector@UCpuProfileDeoptInfo@v8@@V?$allocator@UCpuProfileDeoptInfo@v8@@@__Cr@std@@@__Cr@std@@QEAA?AV?$__wrap_iter@PEAUCpuProfileDeoptInfo@v8@@@23@V?$__wrap_iter@PEBUCpuProfileDeoptInfo@v8@@@23@_KAEBUCpuProfileDeoptInfo@v8@@@Z
	 

	 Name : ?installAdditionalCommandLineAPI@V8InspectorClient@v8_inspector@@UEAAXV?$Local@VContext@v8@@@v8@@V?$Local@VObject@v8@@@4@@Z
	 

	 Name : ?is8Bit@StringView@v8_inspector@@QEBA_NXZ
	 

	 Name : ?isInspectableHeapObject@V8InspectorClient@v8_inspector@@UEAA_NV?$Local@VObject@v8@@@v8@@@Z
	 

	 Name : ?isValid@V8DebuggerId@v8_inspector@@QEBA_NXZ
	 

	 Name : ?is_one_byte@ValueView@String@v8@@QEBA_NXZ
	 

	 Name : ?isolate@CommonEnvironmentSetup@node@@QEBAPEAVIsolate@v8@@XZ
	 

	 Name : ?isolate_data@CommonEnvironmentSetup@node@@QEBAPEAVIsolateData@2@XZ
	 

	 Name : ?kAllocationGranularity@AgeTable@internal@cppgc@@0_KB
	 

	 Name : ?kCardSizeInBytes@AgeTable@internal@cppgc@@2_KB
	 

	 Name : ?kEmbedderFieldCount@ArrayBuffer@v8@@2HB
	 

	 Name : ?kEmbedderFieldCount@ArrayBufferView@v8@@2HB
	 

	 Name : ?kEmbedderFieldCount@Promise@v8@@2HB
	 

	 Name : ?kFlagCount@RegExp@v8@@2HB
	 

	 Name : ?kHeapBaseShift@?1??AreWithinCage@CagedHeapBase@internal@cppgc@@SA_NPEBX0@Z@4_KB
	 

	 Name : ?kHiddenName@NameProvider@cppgc@@2QBDB
	 

	 Name : ?kInitialWantedLimit@GCInfoTable@internal@cppgc@@2GB
	 

	 Name : ?kInternalFieldCount@ArrayBuffer@v8@@2HB
	 

	 Name : ?kInternalFieldCount@ArrayBufferView@v8@@2HB
	 

	 Name : ?kInternalFieldCount@SharedArrayBuffer@v8@@2HB
	 

	 Name : ?kLineOffsetNotFound@Function@v8@@2HB
	 

	 Name : ?kLowerHalfWordMask@CageBaseGlobal@internal@cppgc@@0_KB
	 

	 Name : ?kMB@ResourceConstraints@v8@@0_KB
	 

	 Name : ?kManagedTag@WasmStreaming@v8@@2W4ExternalPointerTag@internal@2@B
	 

	 Name : ?kMaxByteLength@TypedArray@v8@@2_KB
	 

	 Name : ?kMaxFramesCount@TickSample@internal@v8@@2IB
	 

	 Name : ?kMaxFramesCountLog2@TickSample@internal@v8@@2IB
	 

	 Name : ?kMaxIndex@GCInfoTable@internal@cppgc@@2GB
	 

	 Name : ?kMaxLength@BigInt64Array@v8@@2_KB
	 

	 Name : ?kMaxLength@BigUint64Array@v8@@2_KB
	 

	 Name : ?kMaxLength@Float16Array@v8@@0_KB
	 

	 Name : ?kMaxLength@Float32Array@v8@@2_KB
	 

	 Name : ?kMaxLength@Float64Array@v8@@2_KB
	 

	 Name : ?kMaxLength@Int16Array@v8@@2_KB
	 

	 Name : ?kMaxLength@Int32Array@v8@@2_KB
	 

	 Name : ?kMaxLength@Int8Array@v8@@2_KB
	 

	 Name : ?kMaxLength@String@v8@@2HB
	 

	 Name : ?kMaxLength@Uint16Array@v8@@2_KB
	 

	 Name : ?kMaxLength@Uint32Array@v8@@2_KB
	 

	 Name : ?kMaxLength@Uint8Array@v8@@2_KB
	 

	 Name : ?kMaxLength@Uint8ClampedArray@v8@@2_KB
	 

	 Name : ?kMinCodePagesBufferSize@Isolate@v8@@2_KB
	 

	 Name : ?kMinIndex@GCInfoTable@internal@cppgc@@2GB
	 

	 Name : ?kNoColumnInfo@Message@v8@@2HB
	 

	 Name : ?kNoColumnNumberInfo@AllocationProfile@v8@@2HB
	 

	 Name : ?kNoColumnNumberInfo@CpuProfileNode@v8@@2HB
	 

	 Name : ?kNoLineNumberInfo@AllocationProfile@v8@@2HB
	 

	 Name : ?kNoLineNumberInfo@CpuProfileNode@v8@@2HB
	 

	 Name : ?kNoLineNumberInfo@Message@v8@@2HB
	 

	 Name : ?kNoNameDeducible@NameProvider@cppgc@@2QBDB
	 

	 Name : ?kNoSampleLimit@CpuProfilingOptions@v8@@2IB
	 

	 Name : ?kNoScriptId@UnboundScript@v8@@2HB
	 

	 Name : ?kNoScriptIdInfo@Message@v8@@2HB
	 

	 Name : ?kNoWasmFunctionIndexInfo@Message@v8@@2HB
	 

	 Name : ?kPersistentHandleNoClassId@HeapProfiler@v8@@2GB
	 

	 Name : ?kRequiredSize@AgeTable@internal@cppgc@@0_KB
	 

	 Name : ?kUnknownObjectId@HeapProfiler@v8@@2IB
	 

	 Name : ?length@FastApiTypedArrayBase@v8@@QEBA_KXZ
	 

	 Name : ?length@StringView@v8_inspector@@QEBA_KXZ
	 

	 Name : ?length@Utf8Value@String@v8@@QEBAHXZ
	 

	 Name : ?length@Value@String@v8@@QEBAHXZ
	 

	 Name : ?length@ValueView@String@v8@@QEBAHXZ
	 

	 Name : ?major_@Version@internal@v8@@0HA
	 

	 Name : ?malloced_memory@HeapStatistics@v8@@QEAA_KXZ
	 

	 Name : ?maxAsyncCallStackDepthChanged@V8InspectorClient@v8_inspector@@UEAAXH@Z
	 

	 Name : ?max_old_generation_size_in_bytes@ResourceConstraints@v8@@QEBA_KXZ
	 

	 Name : ?max_samples@CpuProfilingOptions@v8@@QEBAIXZ
	 

	 Name : ?max_size@?$vector@UCpuProfileDeoptFrame@v8@@V?$allocator@UCpuProfileDeoptFrame@v8@@@__Cr@std@@@__Cr@std@@QEBA_KXZ
	 

	 Name : ?max_size@?$vector@UCpuProfileDeoptInfo@v8@@V?$allocator@UCpuProfileDeoptInfo@v8@@@__Cr@std@@@__Cr@std@@QEBA_KXZ
	 

	 Name : ?max_young_generation_size_in_bytes@ResourceConstraints@v8@@QEBA_KXZ
	 

	 Name : ?memoryInfo@V8InspectorClient@v8_inspector@@UEAA?AV?$MaybeLocal@VValue@v8@@@v8@@PEAVIsolate@4@V?$Local@VContext@v8@@@4@@Z
	 

	 Name : ?minor_@Version@internal@v8@@0HA
	 

	 Name : ?mode@CpuProfilingOptions@v8@@QEBA?AW4CpuProfilingMode@2@XZ
	 

	 Name : ?muteMetrics@V8InspectorClient@v8_inspector@@UEAAXH@Z
	 

	 Name : ?name@Extension@v8@@QEBAPEBDXZ
	 

	 Name : ?number_of_detached_contexts@HeapStatistics@v8@@QEAA_KXZ
	 

	 Name : ?number_of_native_contexts@HeapStatistics@v8@@QEAA_KXZ
	 

	 Name : ?object_count@HeapObjectStatistics@v8@@QEAA_KXZ
	 

	 Name : ?object_size@HeapObjectStatistics@v8@@QEAA_KXZ
	 

	 Name : ?object_sub_type@HeapObjectStatistics@v8@@QEAAPEBDXZ
	 

	 Name : ?object_type@HeapObjectStatistics@v8@@QEAAPEBDXZ
	 

	 Name : ?pair@V8DebuggerId@v8_inspector@@QEBA?AU?$pair@_J_J@__Cr@std@@XZ
	 

	 Name : ?patch_@Version@internal@v8@@0HA
	 

	 Name : ?peak_malloced_memory@HeapStatistics@v8@@QEAA_KXZ
	 

	 Name : ?physical_space_size@HeapSpaceStatistics@v8@@QEAA_KXZ
	 

	 Name : ?pop_back@?$vector@UCpuProfileDeoptFrame@v8@@V?$allocator@UCpuProfileDeoptFrame@v8@@@__Cr@std@@@__Cr@std@@QEAAXXZ
	 

	 Name : ?pop_back@?$vector@UCpuProfileDeoptInfo@v8@@V?$allocator@UCpuProfileDeoptInfo@v8@@@__Cr@std@@@__Cr@std@@QEAAXXZ
	 

	 Name : ?print@TickSample@internal@v8@@QEBAXXZ
	 

	 Name : ?push_back@?$vector@UCpuProfileDeoptFrame@v8@@V?$allocator@UCpuProfileDeoptFrame@v8@@@__Cr@std@@@__Cr@std@@QEAAX$$QEAUCpuProfileDeoptFrame@v8@@@Z
	 

	 Name : ?push_back@?$vector@UCpuProfileDeoptFrame@v8@@V?$allocator@UCpuProfileDeoptFrame@v8@@@__Cr@std@@@__Cr@std@@QEAAXAEBUCpuProfileDeoptFrame@v8@@@Z
	 

	 Name : ?push_back@?$vector@UCpuProfileDeoptInfo@v8@@V?$allocator@UCpuProfileDeoptInfo@v8@@@__Cr@std@@@__Cr@std@@QEAAX$$QEAUCpuProfileDeoptInfo@v8@@@Z
	 

	 Name : ?push_back@?$vector@UCpuProfileDeoptInfo@v8@@V?$allocator@UCpuProfileDeoptInfo@v8@@@__Cr@std@@@__Cr@std@@QEAAXAEBUCpuProfileDeoptInfo@v8@@@Z
	 

	 Name : ?quitMessageLoopOnPause@V8InspectorClient@v8_inspector@@UEAAXXZ
	 

	 Name : ?raw_filter_context@CpuProfilingOptions@v8@@AEBAPEAXXZ
	 

	 Name : ?rbegin@?$vector@UCpuProfileDeoptFrame@v8@@V?$allocator@UCpuProfileDeoptFrame@v8@@@__Cr@std@@@__Cr@std@@QEAA?AV?$reverse_iterator@V?$__wrap_iter@PEAUCpuProfileDeoptFrame@v8@@@__Cr@std@@@23@XZ
	 

	 Name : ?rbegin@?$vector@UCpuProfileDeoptFrame@v8@@V?$allocator@UCpuProfileDeoptFrame@v8@@@__Cr@std@@@__Cr@std@@QEBA?AV?$reverse_iterator@V?$__wrap_iter@PEBUCpuProfileDeoptFrame@v8@@@__Cr@std@@@23@XZ
	 

	 Name : ?rbegin@?$vector@UCpuProfileDeoptInfo@v8@@V?$allocator@UCpuProfileDeoptInfo@v8@@@__Cr@std@@@__Cr@std@@QEAA?AV?$reverse_iterator@V?$__wrap_iter@PEAUCpuProfileDeoptInfo@v8@@@__Cr@std@@@23@XZ
	 

	 Name : ?rbegin@?$vector@UCpuProfileDeoptInfo@v8@@V?$allocator@UCpuProfileDeoptInfo@v8@@@__Cr@std@@@__Cr@std@@QEBA?AV?$reverse_iterator@V?$__wrap_iter@PEBUCpuProfileDeoptInfo@v8@@@__Cr@std@@@23@XZ
	 

	 Name : ?read_only_space_physical_size@SharedMemoryStatistics@v8@@QEAA_KXZ
	 

	 Name : ?read_only_space_size@SharedMemoryStatistics@v8@@QEAA_KXZ
	 

	 Name : ?read_only_space_used_size@SharedMemoryStatistics@v8@@QEAA_KXZ
	 

	 Name : ?rend@?$vector@UCpuProfileDeoptFrame@v8@@V?$allocator@UCpuProfileDeoptFrame@v8@@@__Cr@std@@@__Cr@std@@QEAA?AV?$reverse_iterator@V?$__wrap_iter@PEAUCpuProfileDeoptFrame@v8@@@__Cr@std@@@23@XZ
	 

	 Name : ?rend@?$vector@UCpuProfileDeoptFrame@v8@@V?$allocator@UCpuProfileDeoptFrame@v8@@@__Cr@std@@@__Cr@std@@QEBA?AV?$reverse_iterator@V?$__wrap_iter@PEBUCpuProfileDeoptFrame@v8@@@__Cr@std@@@23@XZ
	 

	 Name : ?rend@?$vector@UCpuProfileDeoptInfo@v8@@V?$allocator@UCpuProfileDeoptInfo@v8@@@__Cr@std@@@__Cr@std@@QEAA?AV?$reverse_iterator@V?$__wrap_iter@PEAUCpuProfileDeoptInfo@v8@@@__Cr@std@@@23@XZ
	 

	 Name : ?rend@?$vector@UCpuProfileDeoptInfo@v8@@V?$allocator@UCpuProfileDeoptInfo@v8@@@__Cr@std@@@__Cr@std@@QEBA?AV?$reverse_iterator@V?$__wrap_iter@PEBUCpuProfileDeoptInfo@v8@@@__Cr@std@@@23@XZ
	 

	 Name : ?reserve@?$vector@UCpuProfileDeoptFrame@v8@@V?$allocator@UCpuProfileDeoptFrame@v8@@@__Cr@std@@@__Cr@std@@QEAAX_K@Z
	 

	 Name : ?reserve@?$vector@UCpuProfileDeoptInfo@v8@@V?$allocator@UCpuProfileDeoptInfo@v8@@@__Cr@std@@@__Cr@std@@QEAAX_K@Z
	 

	 Name : ?resize@?$vector@UCpuProfileDeoptFrame@v8@@V?$allocator@UCpuProfileDeoptFrame@v8@@@__Cr@std@@@__Cr@std@@QEAAX_K@Z
	 

	 Name : ?resize@?$vector@UCpuProfileDeoptFrame@v8@@V?$allocator@UCpuProfileDeoptFrame@v8@@@__Cr@std@@@__Cr@std@@QEAAX_KAEBUCpuProfileDeoptFrame@v8@@@Z
	 

	 Name : ?resize@?$vector@UCpuProfileDeoptInfo@v8@@V?$allocator@UCpuProfileDeoptInfo@v8@@@__Cr@std@@@__Cr@std@@QEAAX_K@Z
	 

	 Name : ?resize@?$vector@UCpuProfileDeoptInfo@v8@@V?$allocator@UCpuProfileDeoptInfo@v8@@@__Cr@std@@@__Cr@std@@QEAAX_KAEBUCpuProfileDeoptInfo@v8@@@Z
	 

	 Name : ?resourceNameToUrl@V8InspectorClient@v8_inspector@@UEAA?AV?$unique_ptr@VStringBuffer@v8_inspector@@U?$default_delete@VStringBuffer@v8_inspector@@@__Cr@std@@@__Cr@std@@AEBVStringView@2@@Z
	 

	 Name : ?runIfWaitingForDebugger@V8InspectorClient@v8_inspector@@UEAAXH@Z
	 

	 Name : ?runMessageLoopOnInstrumentationPause@V8InspectorClient@v8_inspector@@UEAAXH@Z
	 

	 Name : ?runMessageLoopOnPause@V8InspectorClient@v8_inspector@@UEAAXH@Z
	 

	 Name : ?sampling_interval_us@CpuProfilingOptions@v8@@QEBAHXZ
	 

	 Name : ?set@PropertyDescriptor@v8@@QEBA?AV?$Local@VValue@v8@@@2@XZ
	 

	 Name : ?set_auto_enable@Extension@v8@@QEAAX_N@Z
	 

	 Name : ?set_code_range_size_in_bytes@ResourceConstraints@v8@@QEAAX_K@Z
	 

	 Name : ?set_configurable@PropertyDescriptor@v8@@QEAAX_N@Z
	 

	 Name : ?set_enumerable@PropertyDescriptor@v8@@QEAAX_N@Z
	 

	 Name : ?set_initial_old_generation_size_in_bytes@ResourceConstraints@v8@@QEAAX_K@Z
	 

	 Name : ?set_initial_young_generation_size_in_bytes@ResourceConstraints@v8@@QEAAX_K@Z
	 

	 Name : ?set_max_old_generation_size_in_bytes@ResourceConstraints@v8@@QEAAX_K@Z
	 

	 Name : ?set_max_young_generation_size_in_bytes@ResourceConstraints@v8@@QEAAX_K@Z
	 

	 Name : ?set_stack_limit@ResourceConstraints@v8@@QEAAXPEAI@Z
	 

	 Name : ?shrink_to_fit@?$vector@UCpuProfileDeoptFrame@v8@@V?$allocator@UCpuProfileDeoptFrame@v8@@@__Cr@std@@@__Cr@std@@QEAAXXZ
	 

	 Name : ?shrink_to_fit@?$vector@UCpuProfileDeoptInfo@v8@@V?$allocator@UCpuProfileDeoptInfo@v8@@@__Cr@std@@@__Cr@std@@QEAAXXZ
	 

	 Name : ?size@?$MemorySpan@$$CBD@v8@@QEBA_KXZ
	 

	 Name : ?size@?$MemorySpan@$$CBE@v8@@QEBA_KXZ
	 

	 Name : ?size@?$MemorySpan@$$CBV?$Local@VContext@v8@@@v8@@@v8@@QEBA_KXZ
	 

	 Name : ?size@?$MemorySpan@$$CBV?$Local@VString@v8@@@v8@@@v8@@QEBA_KXZ
	 

	 Name : ?size@?$MemorySpan@$$CBV?$basic_string_view@DU?$char_traits@D@__Cr@std@@@__Cr@std@@@v8@@QEBA_KXZ
	 

	 Name : ?size@?$MemorySpan@$$CBVCFunction@v8@@@v8@@QEBA_KXZ
	 

	 Name : ?size@?$MemorySpan@E@v8@@QEBA_KXZ
	 

	 Name : ?size@?$MemorySpan@V?$Handle@VMap@internal@v8@@@internal@v8@@@v8@@QEBA_KXZ
	 

	 Name : ?size@?$MemorySpan@V?$MaybeLocal@VValue@v8@@@v8@@@v8@@QEBA_KXZ
	 

	 Name : ?size@?$vector@UCpuProfileDeoptFrame@v8@@V?$allocator@UCpuProfileDeoptFrame@v8@@@__Cr@std@@@__Cr@std@@QEBA_KXZ
	 

	 Name : ?size@?$vector@UCpuProfileDeoptInfo@v8@@V?$allocator@UCpuProfileDeoptInfo@v8@@@__Cr@std@@@__Cr@std@@QEBA_KXZ
	 

	 Name : ?size@Binary@protocol@v8_inspector@@QEBA_KXZ
	 

	 Name : ?snapshot_creator@CommonEnvironmentSetup@node@@QEAAPEAVSnapshotCreator@v8@@XZ
	 

	 Name : ?soname_@Version@internal@v8@@0PEBDEB
	 

	 Name : ?source@Extension@v8@@QEBAPEBVExternalOneByteStringResource@String@2@XZ
	 

	 Name : ?source_length@Extension@v8@@QEBA_KXZ
	 

	 Name : ?source_url@CompiledWasmModule@v8@@QEBAAEBV?$basic_string@DU?$char_traits@D@__Cr@std@@V?$allocator@D@23@@__Cr@std@@XZ
	 

	 Name : ?space_available_size@HeapSpaceStatistics@v8@@QEAA_KXZ
	 

	 Name : ?space_name@HeapSpaceStatistics@v8@@QEAAPEBDXZ
	 

	 Name : ?space_size@HeapSpaceStatistics@v8@@QEAA_KXZ
	 

	 Name : ?space_used_size@HeapSpaceStatistics@v8@@QEAA_KXZ
	 

	 Name : ?stack_limit@ResourceConstraints@v8@@QEBAPEAIXZ
	 

	 Name : ?startRepeatingTimer@V8InspectorClient@v8_inspector@@UEAAXNP6AXPEAX@Z0@Z
	 

	 Name : ?swap@?$vector@UCpuProfileDeoptFrame@v8@@V?$allocator@UCpuProfileDeoptFrame@v8@@@__Cr@std@@@__Cr@std@@QEAAXAEAV123@@Z
	 

	 Name : ?swap@?$vector@UCpuProfileDeoptInfo@v8@@V?$allocator@UCpuProfileDeoptInfo@v8@@@__Cr@std@@@__Cr@std@@QEAAXAEAV123@@Z
	 

	 Name : ?toBase64@Binary@protocol@v8_inspector@@QEBA?AVString16@3@XZ
	 

	 Name : ?toString@V8DebuggerId@v8_inspector@@QEBA?AV?$unique_ptr@VStringBuffer@v8_inspector@@U?$default_delete@VStringBuffer@v8_inspector@@@__Cr@std@@@__Cr@std@@XZ
	 

	 Name : ?total_allocated_object_size_@ProcessHeapStatistics@cppgc@@0U?$atomic@_K@__Cr@std@@A
	 

	 Name : ?total_allocated_space_@ProcessHeapStatistics@cppgc@@0U?$atomic@_K@__Cr@std@@A
	 

	 Name : ?total_available_size@HeapStatistics@v8@@QEAA_KXZ
	 

	 Name : ?total_global_handles_size@HeapStatistics@v8@@QEAA_KXZ
	 

	 Name : ?total_heap_size@HeapStatistics@v8@@QEAA_KXZ
	 

	 Name : ?total_heap_size_executable@HeapStatistics@v8@@QEAA_KXZ
	 

	 Name : ?total_physical_size@HeapStatistics@v8@@QEAA_KXZ
	 

	 Name : ?trusted_data_@ThreadIsolation@internal@v8@@0UTrustedData@123@A
	 

	 Name : ?unmuteMetrics@V8InspectorClient@v8_inspector@@UEAAXH@Z
	 

	 Name : ?used_global_handles_size@HeapStatistics@v8@@QEAA_KXZ
	 

	 Name : ?used_heap_size@HeapStatistics@v8@@QEAA_KXZ
	 

	 Name : ?utf8@String16@v8_inspector@@QEBA?AV?$basic_string@DU?$char_traits@D@__Cr@std@@V?$allocator@D@23@@__Cr@std@@XZ
	 

	 Name : ?value@PropertyDescriptor@v8@@QEBA?AV?$Local@VValue@v8@@@2@XZ
	 

	 Name : ?valueSubtype@V8InspectorClient@v8_inspector@@UEAA?AV?$unique_ptr@VStringBuffer@v8_inspector@@U?$default_delete@VStringBuffer@v8_inspector@@@__Cr@std@@@__Cr@std@@V?$Local@VValue@v8@@@v8@@@Z
	 

	 Name : ?version_string_@Version@internal@v8@@0PEBDEB
	 

	 Name : ?writable@PropertyDescriptor@v8@@QEBA_NXZ
	 

	 Name : ?write_barrier_enabled_@WriteBarrier@internal@cppgc@@0VAtomicEntryFlag@23@A
	 

	 Name : Cr_z_adler32
	 

	 Name : Cr_z_adler32_combine
	 

	 Name : Cr_z_adler32_z
	 

	 Name : Cr_z_compress
	 

	 Name : Cr_z_compress2
	 

	 Name : Cr_z_compressBound
	 

	 Name : Cr_z_crc32
	 

	 Name : Cr_z_crc32_combine
	 

	 Name : Cr_z_crc32_combine_gen
	 

	 Name : Cr_z_crc32_combine_op
	 

	 Name : Cr_z_crc32_z
	 

	 Name : Cr_z_deflate
	 

	 Name : Cr_z_deflateBound
	 

	 Name : Cr_z_deflateCopy
	 

	 Name : Cr_z_deflateEnd
	 

	 Name : Cr_z_deflateGetDictionary
	 

	 Name : Cr_z_deflateInit2_
	 

	 Name : Cr_z_deflateInit_
	 

	 Name : Cr_z_deflateParams
	 

	 Name : Cr_z_deflatePending
	 

	 Name : Cr_z_deflatePrime
	 

	 Name : Cr_z_deflateReset
	 

	 Name : Cr_z_deflateResetKeep
	 

	 Name : Cr_z_deflateSetDictionary
	 

	 Name : Cr_z_deflateSetHeader
	 

	 Name : Cr_z_deflateTune
	 

	 Name : Cr_z_get_crc_table
	 

	 Name : Cr_z_uncompress
	 

	 Name : Cr_z_uncompress2
	 

	 Name : Cr_z_zError
	 

	 Name : Cr_z_zlibCompileFlags
	 

	 Name : Cr_z_zlibVersion
	 

	 Name : CrashForExceptionInNonABICompliantCodeRange
	 

	 Name : ExportedContentMain
	 

	 Name : GetHandleVerifier
	 

	 Name : IsSandboxedProcess
	 

	 Name : NodeContextifyContextMetrics1
	 

	 Name : PerfTrace
	 

	 Name : QQMain
	 

	 Name : napi_acquire_threadsafe_function
	 

	 Name : napi_add_async_cleanup_hook
	 

	 Name : napi_add_env_cleanup_hook
	 

	 Name : napi_add_finalizer
	 

	 Name : napi_adjust_external_memory
	 

	 Name : napi_async_destroy
	 

	 Name : napi_async_init
	 

	 Name : napi_call_function
	 

	 Name : napi_call_threadsafe_function
	 

	 Name : napi_cancel_async_work
	 

	 Name : napi_check_object_type_tag
	 

	 Name : napi_close_callback_scope
	 

	 Name : napi_close_escapable_handle_scope
	 

	 Name : napi_close_handle_scope
	 

	 Name : napi_coerce_to_bool
	 

	 Name : napi_coerce_to_number
	 

	 Name : napi_coerce_to_object
	 

	 Name : napi_coerce_to_string
	 

	 Name : napi_create_array
	 

	 Name : napi_create_array_with_length
	 

	 Name : napi_create_arraybuffer
	 

	 Name : napi_create_async_work
	 

	 Name : napi_create_bigint_int64
	 

	 Name : napi_create_bigint_uint64
	 

	 Name : napi_create_bigint_words
	 

	 Name : napi_create_buffer
	 

	 Name : napi_create_buffer_copy
	 

	 Name : napi_create_dataview
	 

	 Name : napi_create_date
	 

	 Name : napi_create_double
	 

	 Name : napi_create_error
	 

	 Name : napi_create_external
	 

	 Name : napi_create_external_arraybuffer
	 

	 Name : napi_create_external_buffer
	 

	 Name : napi_create_function
	 

	 Name : napi_create_int32
	 

	 Name : napi_create_int64
	 

	 Name : napi_create_object
	 

	 Name : napi_create_promise
	 

	 Name : napi_create_range_error
	 

	 Name : napi_create_reference
	 

	 Name : napi_create_string_latin1
	 

	 Name : napi_create_string_utf16
	 

	 Name : napi_create_string_utf8
	 

	 Name : napi_create_symbol
	 

	 Name : napi_create_threadsafe_function
	 

	 Name : napi_create_type_error
	 

	 Name : napi_create_typedarray
	 

	 Name : napi_create_uint32
	 

	 Name : napi_define_class
	 

	 Name : napi_define_properties
	 

	 Name : napi_delete_async_work
	 

	 Name : napi_delete_element
	 

	 Name : napi_delete_property
	 

	 Name : napi_delete_reference
	 

	 Name : napi_detach_arraybuffer
	 

	 Name : napi_escape_handle
	 

	 Name : napi_fatal_error
	 

	 Name : napi_fatal_exception
	 

	 Name : napi_get_all_property_names
	 

	 Name : napi_get_and_clear_last_exception
	 

	 Name : napi_get_array_length
	 

	 Name : napi_get_arraybuffer_info
	 

	 Name : napi_get_boolean
	 

	 Name : napi_get_buffer_info
	 

	 Name : napi_get_cb_info
	 

	 Name : napi_get_dataview_info
	 

	 Name : napi_get_date_value
	 

	 Name : napi_get_element
	 

	 Name : napi_get_global
	 

	 Name : napi_get_instance_data
	 

	 Name : napi_get_last_error_info
	 

	 Name : napi_get_named_property
	 

	 Name : napi_get_new_target
	 

	 Name : napi_get_node_version
	 

	 Name : napi_get_null
	 

	 Name : napi_get_property
	 

	 Name : napi_get_property_names
	 

	 Name : napi_get_prototype
	 

	 Name : napi_get_reference_value
	 

	 Name : napi_get_threadsafe_function_context
	 

	 Name : napi_get_typedarray_info
	 

	 Name : napi_get_undefined
	 

	 Name : napi_get_uv_event_loop
	 

	 Name : napi_get_value_bigint_int64
	 

	 Name : napi_get_value_bigint_uint64
	 

	 Name : napi_get_value_bigint_words
	 

	 Name : napi_get_value_bool
	 

	 Name : napi_get_value_double
	 

	 Name : napi_get_value_external
	 

	 Name : napi_get_value_int32
	 

	 Name : napi_get_value_int64
	 

	 Name : napi_get_value_string_latin1
	 

	 Name : napi_get_value_string_utf16
	 

	 Name : napi_get_value_string_utf8
	 

	 Name : napi_get_value_uint32
	 

	 Name : napi_get_version
	 

	 Name : napi_has_element
	 

	 Name : napi_has_named_property
	 

	 Name : napi_has_own_property
	 

	 Name : napi_has_property
	 

	 Name : napi_instanceof
	 

	 Name : napi_is_array
	 

	 Name : napi_is_arraybuffer
	 

	 Name : napi_is_buffer
	 

	 Name : napi_is_dataview
	 

	 Name : napi_is_date
	 

	 Name : napi_is_detached_arraybuffer
	 

	 Name : napi_is_error
	 

	 Name : napi_is_exception_pending
	 

	 Name : napi_is_promise
	 

	 Name : napi_is_typedarray
	 

	 Name : napi_make_callback
	 

	 Name : napi_module_register
	 

	 Name : napi_new_instance
	 

	 Name : napi_object_freeze
	 

	 Name : napi_object_seal
	 

	 Name : napi_open_callback_scope
	 

	 Name : napi_open_escapable_handle_scope
	 

	 Name : napi_open_handle_scope
	 

	 Name : napi_queue_async_work
	 

	 Name : napi_ref_threadsafe_function
	 

	 Name : napi_reference_ref
	 

	 Name : napi_reference_unref
	 

	 Name : napi_reject_deferred
	 

	 Name : napi_release_threadsafe_function
	 

	 Name : napi_remove_async_cleanup_hook
	 

	 Name : napi_remove_env_cleanup_hook
	 

	 Name : napi_remove_wrap
	 

	 Name : napi_resolve_deferred
	 

	 Name : napi_run_script
	 

	 Name : napi_set_element
	 

	 Name : napi_set_instance_data
	 

	 Name : napi_set_named_property
	 

	 Name : napi_set_property
	 

	 Name : napi_strict_equals
	 

	 Name : napi_throw
	 

	 Name : napi_throw_error
	 

	 Name : napi_throw_range_error
	 

	 Name : napi_throw_type_error
	 

	 Name : napi_type_tag_object
	 

	 Name : napi_typeof
	 

	 Name : napi_unref_threadsafe_function
	 

	 Name : napi_unwrap
	 

	 Name : napi_wrap
	 

	 Name : node_api_create_external_string_latin1
	 

	 Name : node_api_create_external_string_utf16
	 

	 Name : node_api_create_property_key_latin1
	 

	 Name : node_api_create_property_key_utf16
	 

	 Name : node_api_create_property_key_utf8
	 

	 Name : node_api_create_syntax_error
	 

	 Name : node_api_get_module_file_name
	 

	 Name : node_api_post_finalizer
	 

	 Name : node_api_symbol_for
	 

	 Name : node_api_throw_syntax_error
	 

	 Name : qq_magic_napi_register
	 

	 Name : qq_magic_node_register
	 

	 Name : sqlite3_dbdata_init
	 

	 Name : uv_accept
	 

	 Name : uv_async_init
	 

	 Name : uv_async_send
	 

	 Name : uv_available_parallelism
	 

	 Name : uv_backend_fd
	 

	 Name : uv_backend_timeout
	 

	 Name : uv_buf_init
	 

	 Name : uv_cancel
	 

	 Name : uv_chdir
	 

	 Name : uv_check_init
	 

	 Name : uv_check_start
	 

	 Name : uv_check_stop
	 

	 Name : uv_clock_gettime
	 

	 Name : uv_close
	 

	 Name : uv_cond_broadcast
	 

	 Name : uv_cond_destroy
	 

	 Name : uv_cond_init
	 

	 Name : uv_cond_signal
	 

	 Name : uv_cond_timedwait
	 

	 Name : uv_cond_wait
	 

	 Name : uv_cpu_info
	 

	 Name : uv_cpumask_size
	 

	 Name : uv_cwd
	 

	 Name : uv_default_loop
	 

	 Name : uv_disable_stdio_inheritance
	 

	 Name : uv_dlclose
	 

	 Name : uv_dlerror
	 

	 Name : uv_dlopen
	 

	 Name : uv_dlsym
	 

	 Name : uv_err_name
	 

	 Name : uv_err_name_r
	 

	 Name : uv_exepath
	 

	 Name : uv_fileno
	 

	 Name : uv_free_cpu_info
	 

	 Name : uv_free_interface_addresses
	 

	 Name : uv_freeaddrinfo
	 

	 Name : uv_fs_access
	 

	 Name : uv_fs_chmod
	 

	 Name : uv_fs_chown
	 

	 Name : uv_fs_close
	 

	 Name : uv_fs_closedir
	 

	 Name : uv_fs_copyfile
	 

	 Name : uv_fs_event_getpath
	 

	 Name : uv_fs_event_init
	 

	 Name : uv_fs_event_start
	 

	 Name : uv_fs_event_stop
	 

	 Name : uv_fs_fchmod
	 

	 Name : uv_fs_fchown
	 

	 Name : uv_fs_fdatasync
	 

	 Name : uv_fs_fstat
	 

	 Name : uv_fs_fsync
	 

	 Name : uv_fs_ftruncate
	 

	 Name : uv_fs_futime
	 

	 Name : uv_fs_get_path
	 

	 Name : uv_fs_get_ptr
	 

	 Name : uv_fs_get_result
	 

	 Name : uv_fs_get_statbuf
	 

	 Name : uv_fs_get_system_error
	 

	 Name : uv_fs_get_type
	 

	 Name : uv_fs_lchown
	 

	 Name : uv_fs_link
	 

	 Name : uv_fs_lstat
	 

	 Name : uv_fs_lutime
	 

	 Name : uv_fs_mkdir
	 

	 Name : uv_fs_mkdtemp
	 

	 Name : uv_fs_mkstemp
	 

	 Name : uv_fs_open
	 

	 Name : uv_fs_opendir
	 

	 Name : uv_fs_poll_getpath
	 

	 Name : uv_fs_poll_init
	 

	 Name : uv_fs_poll_start
	 

	 Name : uv_fs_poll_stop
	 

	 Name : uv_fs_read
	 

	 Name : uv_fs_readdir
	 

	 Name : uv_fs_readlink
	 

	 Name : uv_fs_realpath
	 

	 Name : uv_fs_rename
	 

	 Name : uv_fs_req_cleanup
	 

	 Name : uv_fs_rmdir
	 

	 Name : uv_fs_scandir
	 

	 Name : uv_fs_scandir_next
	 

	 Name : uv_fs_sendfile
	 

	 Name : uv_fs_stat
	 

	 Name : uv_fs_statfs
	 

	 Name : uv_fs_symlink
	 

	 Name : uv_fs_unlink
	 

	 Name : uv_fs_utime
	 

	 Name : uv_fs_write
	 

	 Name : uv_get_available_memory
	 

	 Name : uv_get_constrained_memory
	 

	 Name : uv_get_free_memory
	 

	 Name : uv_get_osfhandle
	 

	 Name : uv_get_process_title
	 

	 Name : uv_get_total_memory
	 

	 Name : uv_getaddrinfo
	 

	 Name : uv_getnameinfo
	 

	 Name : uv_getrusage
	 

	 Name : uv_gettimeofday
	 

	 Name : uv_guess_handle
	 

	 Name : uv_handle_get_data
	 

	 Name : uv_handle_get_loop
	 

	 Name : uv_handle_get_type
	 

	 Name : uv_handle_set_data
	 

	 Name : uv_handle_size
	 

	 Name : uv_handle_type_name
	 

	 Name : uv_has_ref
	 

	 Name : uv_hrtime
	 

	 Name : uv_idle_init
	 

	 Name : uv_idle_start
	 

	 Name : uv_idle_stop
	 

	 Name : uv_if_indextoiid
	 

	 Name : uv_if_indextoname
	 

	 Name : uv_inet_ntop
	 

	 Name : uv_inet_pton
	 

	 Name : uv_interface_addresses
	 

	 Name : uv_ip4_addr
	 

	 Name : uv_ip4_name
	 

	 Name : uv_ip6_addr
	 

	 Name : uv_ip6_name
	 

	 Name : uv_ip_name
	 

	 Name : uv_is_active
	 

	 Name : uv_is_closing
	 

	 Name : uv_is_readable
	 

	 Name : uv_is_writable
	 

	 Name : uv_key_create
	 

	 Name : uv_key_delete
	 

	 Name : uv_key_get
	 

	 Name : uv_key_set
	 

	 Name : uv_kill
	 

	 Name : uv_library_shutdown
	 

	 Name : uv_listen
	 

	 Name : uv_loadavg
	 

	 Name : uv_loop_alive
	 

	 Name : uv_loop_close
	 

	 Name : uv_loop_configure
	 

	 Name : uv_loop_delete
	 

	 Name : uv_loop_fork
	 

	 Name : uv_loop_get_data
	 

	 Name : uv_loop_init
	 

	 Name : uv_loop_new
	 

	 Name : uv_loop_set_data
	 

	 Name : uv_loop_size
	 

	 Name : uv_metrics_idle_time
	 

	 Name : uv_metrics_info
	 

	 Name : uv_mutex_destroy
	 

	 Name : uv_mutex_init
	 

	 Name : uv_mutex_init_recursive
	 

	 Name : uv_mutex_lock
	 

	 Name : uv_mutex_trylock
	 

	 Name : uv_mutex_unlock
	 

	 Name : uv_now
	 

	 Name : uv_once
	 

	 Name : uv_open_osfhandle
	 

	 Name : uv_os_environ
	 

	 Name : uv_os_free_environ
	 

	 Name : uv_os_free_group
	 

	 Name : uv_os_free_passwd
	 

	 Name : uv_os_get_group
	 

	 Name : uv_os_get_passwd
	 

	 Name : uv_os_get_passwd2
	 

	 Name : uv_os_getenv
	 

	 Name : uv_os_gethostname
	 

	 Name : uv_os_getpid
	 

	 Name : uv_os_getppid
	 

	 Name : uv_os_getpriority
	 

	 Name : uv_os_homedir
	 

	 Name : uv_os_setenv
	 

	 Name : uv_os_setpriority
	 

	 Name : uv_os_tmpdir
	 

	 Name : uv_os_uname
	 

	 Name : uv_os_unsetenv
	 

	 Name : uv_pipe
	 

	 Name : uv_pipe_bind
	 

	 Name : uv_pipe_bind2
	 

	 Name : uv_pipe_chmod
	 

	 Name : uv_pipe_connect
	 

	 Name : uv_pipe_connect2
	 

	 Name : uv_pipe_getpeername
	 

	 Name : uv_pipe_getsockname
	 

	 Name : uv_pipe_init
	 

	 Name : uv_pipe_open
	 

	 Name : uv_pipe_pending_count
	 

	 Name : uv_pipe_pending_instances
	 

	 Name : uv_pipe_pending_type
	 

	 Name : uv_poll_init
	 

	 Name : uv_poll_init_socket
	 

	 Name : uv_poll_start
	 

	 Name : uv_poll_stop
	 

	 Name : uv_prepare_init
	 

	 Name : uv_prepare_start
	 

	 Name : uv_prepare_stop
	 

	 Name : uv_print_active_handles
	 

	 Name : uv_print_all_handles
	 

	 Name : uv_process_get_pid
	 

	 Name : uv_process_kill
	 

	 Name : uv_queue_work
	 

	 Name : uv_random
	 

	 Name : uv_read_start
	 

	 Name : uv_read_stop
	 

	 Name : uv_recv_buffer_size
	 

	 Name : uv_ref
	 

	 Name : uv_replace_allocator
	 

	 Name : uv_req_get_data
	 

	 Name : uv_req_get_type
	 

	 Name : uv_req_set_data
	 

	 Name : uv_req_size
	 

	 Name : uv_req_type_name
	 

	 Name : uv_resident_set_memory
	 

	 Name : uv_run
	 

	 Name : uv_rwlock_destroy
	 

	 Name : uv_rwlock_init
	 

	 Name : uv_rwlock_rdlock
	 

	 Name : uv_rwlock_rdunlock
	 

	 Name : uv_rwlock_tryrdlock
	 

	 Name : uv_rwlock_trywrlock
	 

	 Name : uv_rwlock_wrlock
	 

	 Name : uv_rwlock_wrunlock
	 

	 Name : uv_sem_destroy
	 

	 Name : uv_sem_init
	 

	 Name : uv_sem_post
	 

	 Name : uv_sem_trywait
	 

	 Name : uv_sem_wait
	 

	 Name : uv_send_buffer_size
	 

	 Name : uv_set_process_title
	 

	 Name : uv_setup_args
	 

	 Name : uv_shutdown
	 

	 Name : uv_signal_init
	 

	 Name : uv_signal_start
	 

	 Name : uv_signal_start_oneshot
	 

	 Name : uv_signal_stop
	 

	 Name : uv_sleep
	 

	 Name : uv_socketpair
	 

	 Name : uv_spawn
	 

	 Name : uv_stop
	 

	 Name : uv_stream_get_write_queue_size
	 

	 Name : uv_stream_set_blocking
	 

	 Name : uv_strerror
	 

	 Name : uv_strerror_r
	 

	 Name : uv_tcp_bind
	 

	 Name : uv_tcp_close_reset
	 

	 Name : uv_tcp_connect
	 

	 Name : uv_tcp_getpeername
	 

	 Name : uv_tcp_getsockname
	 

	 Name : uv_tcp_init
	 

	 Name : uv_tcp_init_ex
	 

	 Name : uv_tcp_keepalive
	 

	 Name : uv_tcp_nodelay
	 

	 Name : uv_tcp_open
	 

	 Name : uv_tcp_simultaneous_accepts
	 

	 Name : uv_thread_create
	 

	 Name : uv_thread_create_ex
	 

	 Name : uv_thread_equal
	 

	 Name : uv_thread_getaffinity
	 

	 Name : uv_thread_getcpu
	 

	 Name : uv_thread_join
	 

	 Name : uv_thread_self
	 

	 Name : uv_thread_setaffinity
	 

	 Name : uv_timer_again
	 

	 Name : uv_timer_get_due_in
	 

	 Name : uv_timer_get_repeat
	 

	 Name : uv_timer_init
	 

	 Name : uv_timer_set_repeat
	 

	 Name : uv_timer_start
	 

	 Name : uv_timer_stop
	 

	 Name : uv_translate_sys_error
	 

	 Name : uv_try_write
	 

	 Name : uv_try_write2
	 

	 Name : uv_tty_get_vterm_state
	 

	 Name : uv_tty_get_winsize
	 

	 Name : uv_tty_init
	 

	 Name : uv_tty_reset_mode
	 

	 Name : uv_tty_set_mode
	 

	 Name : uv_tty_set_vterm_state
	 

	 Name : uv_udp_bind
	 

	 Name : uv_udp_connect
	 

	 Name : uv_udp_get_send_queue_count
	 

	 Name : uv_udp_get_send_queue_size
	 

	 Name : uv_udp_getpeername
	 

	 Name : uv_udp_getsockname
	 

	 Name : uv_udp_init
	 

	 Name : uv_udp_init_ex
	 

	 Name : uv_udp_open
	 

	 Name : uv_udp_recv_start
	 

	 Name : uv_udp_recv_stop
	 

	 Name : uv_udp_send
	 

	 Name : uv_udp_set_broadcast
	 

	 Name : uv_udp_set_membership
	 

	 Name : uv_udp_set_multicast_interface
	 

	 Name : uv_udp_set_multicast_loop
	 

	 Name : uv_udp_set_multicast_ttl
	 

	 Name : uv_udp_set_source_membership
	 

	 Name : uv_udp_set_ttl
	 

	 Name : uv_udp_try_send
	 

	 Name : uv_udp_using_recvmmsg
	 

	 Name : uv_unref
	 

	 Name : uv_update_time
	 

	 Name : uv_uptime
	 

	 Name : uv_version
	 

	 Name : uv_version_string
	 

	 Name : uv_walk
	 

	 Name : uv_write
	 

	 Name : uv_write2
	 
[-] Export listing done
