LIBRARY "QQNT.dll"
EXPORTS
    ??$TryToCopyAndConvertArrayToCppBuffer@$0DAAAA@H@v8@@YA_NV?$Local@VArray@v8@@@0@PEAHI@Z=QQNT.original.dll.??$TryToCopyAndConvertArrayToCppBuffer@$0DAAAA@H@v8@@YA_NV?$Local@VArray@v8@@@0@PEAHI@Z
    ??$TryToCopyAndConvertArrayToCppBuffer@$0EAAAA@I@v8@@YA_NV?$Local@VArray@v8@@@0@PEAII@Z=QQNT.original.dll.??$TryToCopyAndConvertArrayToCppBuffer@$0EAAAA@I@v8@@YA_NV?$Local@VArray@v8@@@0@PEAII@Z
    ??$TryToCopyAndConvertArrayToCppBuffer@$0HAAAA@M@v8@@YA_NV?$Local@VArray@v8@@@0@PEAMI@Z=QQNT.original.dll.??$TryToCopyAndConvertArrayToCppBuffer@$0HAAAA@M@v8@@YA_NV?$Local@VArray@v8@@@0@PEAMI@Z
    ??$TryToCopyAndConvertArrayToCppBuffer@$0IAAAA@N@v8@@YA_NV?$Local@VArray@v8@@@0@PEANI@Z=QQNT.original.dll.??$TryToCopyAndConvertArrayToCppBuffer@$0IAAAA@N@v8@@YA_NV?$Local@VArray@v8@@@0@PEANI@Z
    ??$ValidateCallbackInfo@VArray@v8@@@internal@v8@@YA_NAEBV?$PropertyCallbackInfo@VArray@v8@@@1@@Z=QQNT.original.dll.??$ValidateCallbackInfo@VArray@v8@@@internal@v8@@YA_NAEBV?$PropertyCallbackInfo@VArray@v8@@@1@@Z
    ??$ValidateCallbackInfo@VBoolean@v8@@@internal@v8@@YA_NAEBV?$PropertyCallbackInfo@VBoolean@v8@@@1@@Z=QQNT.original.dll.??$ValidateCallbackInfo@VBoolean@v8@@@internal@v8@@YA_NAEBV?$PropertyCallbackInfo@VBoolean@v8@@@1@@Z
    ??$ValidateCallbackInfo@VInteger@v8@@@internal@v8@@YA_NAEBV?$PropertyCallbackInfo@VInteger@v8@@@1@@Z=QQNT.original.dll.??$ValidateCallbackInfo@VInteger@v8@@@internal@v8@@YA_NAEBV?$PropertyCallbackInfo@VInteger@v8@@@1@@Z
    ??$ValidateCallbackInfo@VValue@v8@@@internal@v8@@YA_NAEBV?$FunctionCallbackInfo@VValue@v8@@@1@@Z=QQNT.original.dll.??$ValidateCallbackInfo@VValue@v8@@@internal@v8@@YA_NAEBV?$FunctionCallbackInfo@VValue@v8@@@1@@Z
    ??$ValidateCallbackInfo@VValue@v8@@@internal@v8@@YA_NAEBV?$PropertyCallbackInfo@VValue@v8@@@1@@Z=QQNT.original.dll.??$ValidateCallbackInfo@VValue@v8@@@internal@v8@@YA_NAEBV?$PropertyCallbackInfo@VValue@v8@@@1@@Z
    ??$ValidateCallbackInfo@X@internal@v8@@YA_NAEBV?$FunctionCallbackInfo@X@1@@Z=QQNT.original.dll.??$ValidateCallbackInfo@X@internal@v8@@YA_NAEBV?$FunctionCallbackInfo@X@1@@Z
    ??$ValidateCallbackInfo@X@internal@v8@@YA_NAEBV?$PropertyCallbackInfo@X@1@@Z=QQNT.original.dll.??$ValidateCallbackInfo@X@internal@v8@@YA_NAEBV?$PropertyCallbackInfo@X@1@@Z
    ??0?$MemorySpan@$$CBD@v8@@QEAA@XZ=QQNT.original.dll.??0?$MemorySpan@$$CBD@v8@@QEAA@XZ
    ??0?$MemorySpan@$$CBE@v8@@QEAA@XZ=QQNT.original.dll.??0?$MemorySpan@$$CBE@v8@@QEAA@XZ
    ??0?$MemorySpan@$$CBV?$Local@VContext@v8@@@v8@@@v8@@QEAA@XZ=QQNT.original.dll.??0?$MemorySpan@$$CBV?$Local@VContext@v8@@@v8@@@v8@@QEAA@XZ
    ??0?$MemorySpan@$$CBV?$Local@VString@v8@@@v8@@@v8@@QEAA@XZ=QQNT.original.dll.??0?$MemorySpan@$$CBV?$Local@VString@v8@@@v8@@@v8@@QEAA@XZ
    ??0?$MemorySpan@$$CBV?$Local@VValue@v8@@@v8@@@v8@@QEAA@XZ=QQNT.original.dll.??0?$MemorySpan@$$CBV?$Local@VValue@v8@@@v8@@@v8@@QEAA@XZ
    ??0?$MemorySpan@$$CBV?$basic_string_view@DU?$char_traits@D@__Cr@std@@@__Cr@std@@@v8@@QEAA@XZ=QQNT.original.dll.??0?$MemorySpan@$$CBV?$basic_string_view@DU?$char_traits@D@__Cr@std@@@__Cr@std@@@v8@@QEAA@XZ
    ??0?$MemorySpan@$$CBVCFunction@v8@@@v8@@QEAA@XZ=QQNT.original.dll.??0?$MemorySpan@$$CBVCFunction@v8@@@v8@@QEAA@XZ
    ??0?$MemorySpan@$$CB_K@v8@@QEAA@XZ=QQNT.original.dll.??0?$MemorySpan@$$CB_K@v8@@QEAA@XZ
    ??0?$MemorySpan@E@v8@@QEAA@XZ=QQNT.original.dll.??0?$MemorySpan@E@v8@@QEAA@XZ
    ??0?$MemorySpan@V?$Handle@VMap@internal@v8@@@internal@v8@@@v8@@QEAA@XZ=QQNT.original.dll.??0?$MemorySpan@V?$Handle@VMap@internal@v8@@@internal@v8@@@v8@@QEAA@XZ
    ??0?$MemorySpan@V?$Handle@VObject@internal@v8@@@internal@v8@@@v8@@QEAA@XZ=QQNT.original.dll.??0?$MemorySpan@V?$Handle@VObject@internal@v8@@@internal@v8@@@v8@@QEAA@XZ
    ??0?$MemorySpan@V?$MaybeLocal@VValue@v8@@@v8@@@v8@@QEAA@XZ=QQNT.original.dll.??0?$MemorySpan@V?$MaybeLocal@VValue@v8@@@v8@@@v8@@QEAA@XZ
    ??0?$MemorySpan@_K@v8@@QEAA@XZ=QQNT.original.dll.??0?$MemorySpan@_K@v8@@QEAA@XZ
    ??0?$vector@UCpuProfileDeoptFrame@v8@@V?$allocator@UCpuProfileDeoptFrame@v8@@@__Cr@std@@@__Cr@std@@QEAA@$$QEAV012@@Z=QQNT.original.dll.??0?$vector@UCpuProfileDeoptFrame@v8@@V?$allocator@UCpuProfileDeoptFrame@v8@@@__Cr@std@@@__Cr@std@@QEAA@$$QEAV012@@Z
    ??0?$vector@UCpuProfileDeoptFrame@v8@@V?$allocator@UCpuProfileDeoptFrame@v8@@@__Cr@std@@@__Cr@std@@QEAA@$$QEAV012@AEBV?$allocator@UCpuProfileDeoptFrame@v8@@@12@@Z=QQNT.original.dll.??0?$vector@UCpuProfileDeoptFrame@v8@@V?$allocator@UCpuProfileDeoptFrame@v8@@@__Cr@std@@@__Cr@std@@QEAA@$$QEAV012@AEBV?$allocator@UCpuProfileDeoptFrame@v8@@@12@@Z
    ??0?$vector@UCpuProfileDeoptFrame@v8@@V?$allocator@UCpuProfileDeoptFrame@v8@@@__Cr@std@@@__Cr@std@@QEAA@AEBV012@@Z=QQNT.original.dll.??0?$vector@UCpuProfileDeoptFrame@v8@@V?$allocator@UCpuProfileDeoptFrame@v8@@@__Cr@std@@@__Cr@std@@QEAA@AEBV012@@Z
    ??0?$vector@UCpuProfileDeoptFrame@v8@@V?$allocator@UCpuProfileDeoptFrame@v8@@@__Cr@std@@@__Cr@std@@QEAA@AEBV012@AEBV?$allocator@UCpuProfileDeoptFrame@v8@@@12@@Z=QQNT.original.dll.??0?$vector@UCpuProfileDeoptFrame@v8@@V?$allocator@UCpuProfileDeoptFrame@v8@@@__Cr@std@@@__Cr@std@@QEAA@AEBV012@AEBV?$allocator@UCpuProfileDeoptFrame@v8@@@12@@Z
    ??0?$vector@UCpuProfileDeoptFrame@v8@@V?$allocator@UCpuProfileDeoptFrame@v8@@@__Cr@std@@@__Cr@std@@QEAA@AEBV?$allocator@UCpuProfileDeoptFrame@v8@@@12@@Z=QQNT.original.dll.??0?$vector@UCpuProfileDeoptFrame@v8@@V?$allocator@UCpuProfileDeoptFrame@v8@@@__Cr@std@@@__Cr@std@@QEAA@AEBV?$allocator@UCpuProfileDeoptFrame@v8@@@12@@Z
    ??0?$vector@UCpuProfileDeoptFrame@v8@@V?$allocator@UCpuProfileDeoptFrame@v8@@@__Cr@std@@@__Cr@std@@QEAA@V?$initializer_list@UCpuProfileDeoptFrame@v8@@@2@@Z=QQNT.original.dll.??0?$vector@UCpuProfileDeoptFrame@v8@@V?$allocator@UCpuProfileDeoptFrame@v8@@@__Cr@std@@@__Cr@std@@QEAA@V?$initializer_list@UCpuProfileDeoptFrame@v8@@@2@@Z
    ??0?$vector@UCpuProfileDeoptFrame@v8@@V?$allocator@UCpuProfileDeoptFrame@v8@@@__Cr@std@@@__Cr@std@@QEAA@V?$initializer_list@UCpuProfileDeoptFrame@v8@@@2@AEBV?$allocator@UCpuProfileDeoptFrame@v8@@@12@@Z=QQNT.original.dll.??0?$vector@UCpuProfileDeoptFrame@v8@@V?$allocator@UCpuProfileDeoptFrame@v8@@@__Cr@std@@@__Cr@std@@QEAA@V?$initializer_list@UCpuProfileDeoptFrame@v8@@@2@AEBV?$allocator@UCpuProfileDeoptFrame@v8@@@12@@Z
    ??0?$vector@UCpuProfileDeoptFrame@v8@@V?$allocator@UCpuProfileDeoptFrame@v8@@@__Cr@std@@@__Cr@std@@QEAA@XZ=QQNT.original.dll.??0?$vector@UCpuProfileDeoptFrame@v8@@V?$allocator@UCpuProfileDeoptFrame@v8@@@__Cr@std@@@__Cr@std@@QEAA@XZ
    ??0?$vector@UCpuProfileDeoptFrame@v8@@V?$allocator@UCpuProfileDeoptFrame@v8@@@__Cr@std@@@__Cr@std@@QEAA@_K@Z=QQNT.original.dll.??0?$vector@UCpuProfileDeoptFrame@v8@@V?$allocator@UCpuProfileDeoptFrame@v8@@@__Cr@std@@@__Cr@std@@QEAA@_K@Z
    ??0?$vector@UCpuProfileDeoptFrame@v8@@V?$allocator@UCpuProfileDeoptFrame@v8@@@__Cr@std@@@__Cr@std@@QEAA@_KAEBUCpuProfileDeoptFrame@v8@@@Z=QQNT.original.dll.??0?$vector@UCpuProfileDeoptFrame@v8@@V?$allocator@UCpuProfileDeoptFrame@v8@@@__Cr@std@@@__Cr@std@@QEAA@_KAEBUCpuProfileDeoptFrame@v8@@@Z
    ??0?$vector@UCpuProfileDeoptFrame@v8@@V?$allocator@UCpuProfileDeoptFrame@v8@@@__Cr@std@@@__Cr@std@@QEAA@_KAEBV?$allocator@UCpuProfileDeoptFrame@v8@@@12@@Z=QQNT.original.dll.??0?$vector@UCpuProfileDeoptFrame@v8@@V?$allocator@UCpuProfileDeoptFrame@v8@@@__Cr@std@@@__Cr@std@@QEAA@_KAEBV?$allocator@UCpuProfileDeoptFrame@v8@@@12@@Z
    ??0?$vector@UCpuProfileDeoptInfo@v8@@V?$allocator@UCpuProfileDeoptInfo@v8@@@__Cr@std@@@__Cr@std@@QEAA@$$QEAV012@@Z=QQNT.original.dll.??0?$vector@UCpuProfileDeoptInfo@v8@@V?$allocator@UCpuProfileDeoptInfo@v8@@@__Cr@std@@@__Cr@std@@QEAA@$$QEAV012@@Z
    ??0?$vector@UCpuProfileDeoptInfo@v8@@V?$allocator@UCpuProfileDeoptInfo@v8@@@__Cr@std@@@__Cr@std@@QEAA@$$QEAV012@AEBV?$allocator@UCpuProfileDeoptInfo@v8@@@12@@Z=QQNT.original.dll.??0?$vector@UCpuProfileDeoptInfo@v8@@V?$allocator@UCpuProfileDeoptInfo@v8@@@__Cr@std@@@__Cr@std@@QEAA@$$QEAV012@AEBV?$allocator@UCpuProfileDeoptInfo@v8@@@12@@Z
    ??0?$vector@UCpuProfileDeoptInfo@v8@@V?$allocator@UCpuProfileDeoptInfo@v8@@@__Cr@std@@@__Cr@std@@QEAA@AEBV012@@Z=QQNT.original.dll.??0?$vector@UCpuProfileDeoptInfo@v8@@V?$allocator@UCpuProfileDeoptInfo@v8@@@__Cr@std@@@__Cr@std@@QEAA@AEBV012@@Z
    ??0?$vector@UCpuProfileDeoptInfo@v8@@V?$allocator@UCpuProfileDeoptInfo@v8@@@__Cr@std@@@__Cr@std@@QEAA@AEBV012@AEBV?$allocator@UCpuProfileDeoptInfo@v8@@@12@@Z=QQNT.original.dll.??0?$vector@UCpuProfileDeoptInfo@v8@@V?$allocator@UCpuProfileDeoptInfo@v8@@@__Cr@std@@@__Cr@std@@QEAA@AEBV012@AEBV?$allocator@UCpuProfileDeoptInfo@v8@@@12@@Z
    ??0?$vector@UCpuProfileDeoptInfo@v8@@V?$allocator@UCpuProfileDeoptInfo@v8@@@__Cr@std@@@__Cr@std@@QEAA@AEBV?$allocator@UCpuProfileDeoptInfo@v8@@@12@@Z=QQNT.original.dll.??0?$vector@UCpuProfileDeoptInfo@v8@@V?$allocator@UCpuProfileDeoptInfo@v8@@@__Cr@std@@@__Cr@std@@QEAA@AEBV?$allocator@UCpuProfileDeoptInfo@v8@@@12@@Z
    ??0?$vector@UCpuProfileDeoptInfo@v8@@V?$allocator@UCpuProfileDeoptInfo@v8@@@__Cr@std@@@__Cr@std@@QEAA@V?$initializer_list@UCpuProfileDeoptInfo@v8@@@2@@Z=QQNT.original.dll.??0?$vector@UCpuProfileDeoptInfo@v8@@V?$allocator@UCpuProfileDeoptInfo@v8@@@__Cr@std@@@__Cr@std@@QEAA@V?$initializer_list@UCpuProfileDeoptInfo@v8@@@2@@Z
    ??0?$vector@UCpuProfileDeoptInfo@v8@@V?$allocator@UCpuProfileDeoptInfo@v8@@@__Cr@std@@@__Cr@std@@QEAA@V?$initializer_list@UCpuProfileDeoptInfo@v8@@@2@AEBV?$allocator@UCpuProfileDeoptInfo@v8@@@12@@Z=QQNT.original.dll.??0?$vector@UCpuProfileDeoptInfo@v8@@V?$allocator@UCpuProfileDeoptInfo@v8@@@__Cr@std@@@__Cr@std@@QEAA@V?$initializer_list@UCpuProfileDeoptInfo@v8@@@2@AEBV?$allocator@UCpuProfileDeoptInfo@v8@@@12@@Z
    ??0?$vector@UCpuProfileDeoptInfo@v8@@V?$allocator@UCpuProfileDeoptInfo@v8@@@__Cr@std@@@__Cr@std@@QEAA@XZ=QQNT.original.dll.??0?$vector@UCpuProfileDeoptInfo@v8@@V?$allocator@UCpuProfileDeoptInfo@v8@@@__Cr@std@@@__Cr@std@@QEAA@XZ
    ??0?$vector@UCpuProfileDeoptInfo@v8@@V?$allocator@UCpuProfileDeoptInfo@v8@@@__Cr@std@@@__Cr@std@@QEAA@_K@Z=QQNT.original.dll.??0?$vector@UCpuProfileDeoptInfo@v8@@V?$allocator@UCpuProfileDeoptInfo@v8@@@__Cr@std@@@__Cr@std@@QEAA@_K@Z
    ??0?$vector@UCpuProfileDeoptInfo@v8@@V?$allocator@UCpuProfileDeoptInfo@v8@@@__Cr@std@@@__Cr@std@@QEAA@_KAEBUCpuProfileDeoptInfo@v8@@@Z=QQNT.original.dll.??0?$vector@UCpuProfileDeoptInfo@v8@@V?$allocator@UCpuProfileDeoptInfo@v8@@@__Cr@std@@@__Cr@std@@QEAA@_KAEBUCpuProfileDeoptInfo@v8@@@Z
    ??0?$vector@UCpuProfileDeoptInfo@v8@@V?$allocator@UCpuProfileDeoptInfo@v8@@@__Cr@std@@@__Cr@std@@QEAA@_KAEBV?$allocator@UCpuProfileDeoptInfo@v8@@@12@@Z=QQNT.original.dll.??0?$vector@UCpuProfileDeoptInfo@v8@@V?$allocator@UCpuProfileDeoptInfo@v8@@@__Cr@std@@@__Cr@std@@QEAA@_KAEBV?$allocator@UCpuProfileDeoptInfo@v8@@@12@@Z
    ??0ActivityControl@v8@@QEAA@AEBV01@@Z=QQNT.original.dll.??0ActivityControl@v8@@QEAA@AEBV01@@Z
    ??0ActivityControl@v8@@QEAA@XZ=QQNT.original.dll.??0ActivityControl@v8@@QEAA@XZ
    ??0AllocationProfile@v8@@QEAA@AEBV01@@Z=QQNT.original.dll.??0AllocationProfile@v8@@QEAA@AEBV01@@Z
    ??0AllocationProfile@v8@@QEAA@XZ=QQNT.original.dll.??0AllocationProfile@v8@@QEAA@XZ
    ??0Allocator@ArrayBuffer@v8@@QEAA@AEBV012@@Z=QQNT.original.dll.??0Allocator@ArrayBuffer@v8@@QEAA@AEBV012@@Z
    ??0Allocator@ArrayBuffer@v8@@QEAA@XZ=QQNT.original.dll.??0Allocator@ArrayBuffer@v8@@QEAA@XZ
    ??0AllowJavascriptExecutionScope@Isolate@v8@@QEAA@PEAV12@@Z=QQNT.original.dll.??0AllowJavascriptExecutionScope@Isolate@v8@@QEAA@PEAV12@@Z
    ??0ArrayBufferAllocator@node@@QEAA@$$QEAV01@@Z=QQNT.original.dll.??0ArrayBufferAllocator@node@@QEAA@$$QEAV01@@Z
    ??0ArrayBufferAllocator@node@@QEAA@AEBV01@@Z=QQNT.original.dll.??0ArrayBufferAllocator@node@@QEAA@AEBV01@@Z
    ??0ArrayBufferAllocator@node@@QEAA@XZ=QQNT.original.dll.??0ArrayBufferAllocator@node@@QEAA@XZ
    ??0AsyncResource@node@@QEAA@PEAVIsolate@v8@@V?$Local@VObject@v8@@@3@PEBDN@Z=QQNT.original.dll.??0AsyncResource@node@@QEAA@PEAVIsolate@v8@@V?$Local@VObject@v8@@@3@PEBDN@Z
    ??0BackupIncumbentScope@Context@v8@@QEAA@V?$Local@VContext@v8@@@2@@Z=QQNT.original.dll.??0BackupIncumbentScope@Context@v8@@QEAA@V?$Local@VContext@v8@@@2@@Z
    ??0Binary@protocol@v8_inspector@@AEAA@V?$shared_ptr@V?$vector@EV?$allocator@E@__Cr@std@@@__Cr@std@@@__Cr@std@@@Z=QQNT.original.dll.??0Binary@protocol@v8_inspector@@AEAA@V?$shared_ptr@V?$vector@EV?$allocator@E@__Cr@std@@@__Cr@std@@@__Cr@std@@@Z
    ??0Binary@protocol@v8_inspector@@QEAA@$$QEAV012@@Z=QQNT.original.dll.??0Binary@protocol@v8_inspector@@QEAA@$$QEAV012@@Z
    ??0Binary@protocol@v8_inspector@@QEAA@AEBV012@@Z=QQNT.original.dll.??0Binary@protocol@v8_inspector@@QEAA@AEBV012@@Z
    ??0Binary@protocol@v8_inspector@@QEAA@XZ=QQNT.original.dll.??0Binary@protocol@v8_inspector@@QEAA@XZ
    ??0CFunction@v8@@QEAA@PEBXPEBVCFunctionInfo@1@@Z=QQNT.original.dll.??0CFunction@v8@@QEAA@PEBXPEBVCFunctionInfo@1@@Z
    ??0CFunction@v8@@QEAA@XZ=QQNT.original.dll.??0CFunction@v8@@QEAA@XZ
    ??0CFunctionInfo@v8@@QEAA@AEBVCTypeInfo@1@IPEBV21@W4Int64Representation@01@@Z=QQNT.original.dll.??0CFunctionInfo@v8@@QEAA@AEBVCTypeInfo@1@IPEBV21@W4Int64Representation@01@@Z
    ??0CachedData@ScriptCompiler@v8@@QEAA@PEBEHW4BufferPolicy@012@@Z=QQNT.original.dll.??0CachedData@ScriptCompiler@v8@@QEAA@PEBEHW4BufferPolicy@012@@Z
    ??0CachedData@ScriptCompiler@v8@@QEAA@XZ=QQNT.original.dll.??0CachedData@ScriptCompiler@v8@@QEAA@XZ
    ??0CallbackScope@AsyncResource@node@@QEAA@PEAV12@@Z=QQNT.original.dll.??0CallbackScope@AsyncResource@node@@QEAA@PEAV12@@Z
    ??0CallbackScope@node@@QEAA@PEAVEnvironment@1@V?$Local@VObject@v8@@@v8@@Uasync_context@1@@Z=QQNT.original.dll.??0CallbackScope@node@@QEAA@PEAVEnvironment@1@V?$Local@VObject@v8@@@v8@@Uasync_context@1@@Z
    ??0CallbackScope@node@@QEAA@PEAVIsolate@v8@@V?$Local@VObject@v8@@@3@Uasync_context@1@@Z=QQNT.original.dll.??0CallbackScope@node@@QEAA@PEAVIsolate@v8@@V?$Local@VObject@v8@@@3@Uasync_context@1@@Z
    ??0Channel@V8Inspector@v8_inspector@@QEAA@AEBV012@@Z=QQNT.original.dll.??0Channel@V8Inspector@v8_inspector@@QEAA@AEBV012@@Z
    ??0Channel@V8Inspector@v8_inspector@@QEAA@XZ=QQNT.original.dll.??0Channel@V8Inspector@v8_inspector@@QEAA@XZ
    ??0CodeEventHandler@v8@@QEAA@PEAVIsolate@1@@Z=QQNT.original.dll.??0CodeEventHandler@v8@@QEAA@PEAVIsolate@1@@Z
    ??0CommonEnvironmentSetup@node@@AEAA@PEAVMultiIsolatePlatform@1@PEAV?$vector@V?$basic_string@DU?$char_traits@D@__Cr@std@@V?$allocator@D@23@@__Cr@std@@V?$allocator@V?$basic_string@DU?$char_traits@D@__Cr@std@@V?$allocator@D@23@@__Cr@std@@@23@@__Cr@std@@PEBVEmbedderSnapshotData@1@IV?$function@$$A6APEAVEnvironment@node@@PEBVCommonEnvironmentSetup@2@@Z@45@PEBUSnapshotConfig@1@@Z=QQNT.original.dll.??0CommonEnvironmentSetup@node@@AEAA@PEAVMultiIsolatePlatform@1@PEAV?$vector@V?$basic_string@DU?$char_traits@D@__Cr@std@@V?$allocator@D@23@@__Cr@std@@V?$allocator@V?$basic_string@DU?$char_traits@D@__Cr@std@@V?$allocator@D@23@@__Cr@std@@@23@@__Cr@std@@PEBVEmbedderSnapshotData@1@IV?$function@$$A6APEAVEnvironment@node@@PEBVCommonEnvironmentSetup@2@@Z@45@PEBUSnapshotConfig@1@@Z
    ??0CommonEnvironmentSetup@node@@AEAA@PEAVMultiIsolatePlatform@1@PEAV?$vector@V?$basic_string@DU?$char_traits@D@__Cr@std@@V?$allocator@D@23@@__Cr@std@@V?$allocator@V?$basic_string@DU?$char_traits@D@__Cr@std@@V?$allocator@D@23@@__Cr@std@@@23@@__Cr@std@@V?$function@$$A6APEAVEnvironment@node@@PEBVCommonEnvironmentSetup@2@@Z@45@@Z=QQNT.original.dll.??0CommonEnvironmentSetup@node@@AEAA@PEAVMultiIsolatePlatform@1@PEAV?$vector@V?$basic_string@DU?$char_traits@D@__Cr@std@@V?$allocator@D@23@@__Cr@std@@V?$allocator@V?$basic_string@DU?$char_traits@D@__Cr@std@@V?$allocator@D@23@@__Cr@std@@@23@@__Cr@std@@V?$function@$$A6APEAVEnvironment@node@@PEBVCommonEnvironmentSetup@2@@Z@45@@Z
    ??0CompilationDependencies@compiler@internal@v8@@QEAA@$$QEAV0123@@Z=QQNT.original.dll.??0CompilationDependencies@compiler@internal@v8@@QEAA@$$QEAV0123@@Z
    ??0CompilationDependencies@compiler@internal@v8@@QEAA@AEBV0123@@Z=QQNT.original.dll.??0CompilationDependencies@compiler@internal@v8@@QEAA@AEBV0123@@Z
    ??0CompilationDependencies@compiler@internal@v8@@QEAA@PEAVJSHeapBroker@123@PEAVZone@23@@Z=QQNT.original.dll.??0CompilationDependencies@compiler@internal@v8@@QEAA@PEAVJSHeapBroker@123@PEAVZone@23@@Z
    ??0CompiledWasmModule@v8@@AEAA@V?$shared_ptr@VNativeModule@wasm@internal@v8@@@__Cr@std@@PEBD_K@Z=QQNT.original.dll.??0CompiledWasmModule@v8@@AEAA@V?$shared_ptr@VNativeModule@wasm@internal@v8@@@__Cr@std@@PEBD_K@Z
    ??0CompiledWasmModule@v8@@QEAA@$$QEAV01@@Z=QQNT.original.dll.??0CompiledWasmModule@v8@@QEAA@$$QEAV01@@Z
    ??0CompiledWasmModule@v8@@QEAA@AEBV01@@Z=QQNT.original.dll.??0CompiledWasmModule@v8@@QEAA@AEBV01@@Z
    ??0ConsumeCodeCacheTask@ScriptCompiler@v8@@AEAA@V?$unique_ptr@VBackgroundDeserializeTask@internal@v8@@U?$default_delete@VBackgroundDeserializeTask@internal@v8@@@__Cr@std@@@__Cr@std@@@Z=QQNT.original.dll.??0ConsumeCodeCacheTask@ScriptCompiler@v8@@AEAA@V?$unique_ptr@VBackgroundDeserializeTask@internal@v8@@U?$default_delete@VBackgroundDeserializeTask@internal@v8@@@__Cr@std@@@__Cr@std@@@Z
    ??0CppHeap@v8@@AEAA@XZ=QQNT.original.dll.??0CppHeap@v8@@AEAA@XZ
    ??0CppHeap@v8@@QEAA@AEBV01@@Z=QQNT.original.dll.??0CppHeap@v8@@QEAA@AEBV01@@Z
    ??0CppHeapCreateParams@v8@@QEAA@V?$vector@V?$unique_ptr@VCustomSpaceBase@cppgc@@U?$default_delete@VCustomSpaceBase@cppgc@@@__Cr@std@@@__Cr@std@@V?$allocator@V?$unique_ptr@VCustomSpaceBase@cppgc@@U?$default_delete@VCustomSpaceBase@cppgc@@@__Cr@std@@@__Cr@std@@@23@@__Cr@std@@@Z=QQNT.original.dll.??0CppHeapCreateParams@v8@@QEAA@V?$vector@V?$unique_ptr@VCustomSpaceBase@cppgc@@U?$default_delete@VCustomSpaceBase@cppgc@@@__Cr@std@@@__Cr@std@@V?$allocator@V?$unique_ptr@VCustomSpaceBase@cppgc@@U?$default_delete@VCustomSpaceBase@cppgc@@@__Cr@std@@@__Cr@std@@@23@@__Cr@std@@@Z
    ??0CpuProfileDeoptInfo@v8@@QEAA@$$QEAU01@@Z=QQNT.original.dll.??0CpuProfileDeoptInfo@v8@@QEAA@$$QEAU01@@Z
    ??0CpuProfileDeoptInfo@v8@@QEAA@AEBU01@@Z=QQNT.original.dll.??0CpuProfileDeoptInfo@v8@@QEAA@AEBU01@@Z
    ??0CpuProfileDeoptInfo@v8@@QEAA@XZ=QQNT.original.dll.??0CpuProfileDeoptInfo@v8@@QEAA@XZ
    ??0CpuProfilingOptions@v8@@QEAA@$$QEAV01@@Z=QQNT.original.dll.??0CpuProfilingOptions@v8@@QEAA@$$QEAV01@@Z
    ??0CpuProfilingOptions@v8@@QEAA@W4CpuProfilingMode@1@IHV?$MaybeLocal@VContext@v8@@@1@@Z=QQNT.original.dll.??0CpuProfilingOptions@v8@@QEAA@W4CpuProfilingMode@1@IHV?$MaybeLocal@VContext@v8@@@1@@Z
    ??0CreateParams@Isolate@v8@@QEAA@$$QEAU012@@Z=QQNT.original.dll.??0CreateParams@Isolate@v8@@QEAA@$$QEAU012@@Z
    ??0CreateParams@Isolate@v8@@QEAA@AEBU012@@Z=QQNT.original.dll.??0CreateParams@Isolate@v8@@QEAA@AEBU012@@Z
    ??0CreateParams@Isolate@v8@@QEAA@XZ=QQNT.original.dll.??0CreateParams@Isolate@v8@@QEAA@XZ
    ??0CrossThreadPersistentRegion@internal@cppgc@@QEAA@AEBVFatalOutOfMemoryHandler@12@@Z=QQNT.original.dll.??0CrossThreadPersistentRegion@internal@cppgc@@QEAA@AEBVFatalOutOfMemoryHandler@12@@Z
    ??0DeepSerializationResult@v8_inspector@@QEAA@$$QEAU01@@Z=QQNT.original.dll.??0DeepSerializationResult@v8_inspector@@QEAA@$$QEAU01@@Z
    ??0DeepSerializationResult@v8_inspector@@QEAA@V?$unique_ptr@UDeepSerializedValue@v8_inspector@@U?$default_delete@UDeepSerializedValue@v8_inspector@@@__Cr@std@@@__Cr@std@@@Z=QQNT.original.dll.??0DeepSerializationResult@v8_inspector@@QEAA@V?$unique_ptr@UDeepSerializedValue@v8_inspector@@U?$default_delete@UDeepSerializedValue@v8_inspector@@@__Cr@std@@@__Cr@std@@@Z
    ??0DeepSerializationResult@v8_inspector@@QEAA@V?$unique_ptr@VStringBuffer@v8_inspector@@U?$default_delete@VStringBuffer@v8_inspector@@@__Cr@std@@@__Cr@std@@@Z=QQNT.original.dll.??0DeepSerializationResult@v8_inspector@@QEAA@V?$unique_ptr@VStringBuffer@v8_inspector@@U?$default_delete@VStringBuffer@v8_inspector@@@__Cr@std@@@__Cr@std@@@Z
    ??0DeepSerializedValue@v8_inspector@@QEAA@$$QEAU01@@Z=QQNT.original.dll.??0DeepSerializedValue@v8_inspector@@QEAA@$$QEAU01@@Z
    ??0DeepSerializedValue@v8_inspector@@QEAA@V?$unique_ptr@VStringBuffer@v8_inspector@@U?$default_delete@VStringBuffer@v8_inspector@@@__Cr@std@@@__Cr@std@@V?$MaybeLocal@VValue@v8@@@v8@@@Z=QQNT.original.dll.??0DeepSerializedValue@v8_inspector@@QEAA@V?$unique_ptr@VStringBuffer@v8_inspector@@U?$default_delete@VStringBuffer@v8_inspector@@@__Cr@std@@@__Cr@std@@V?$MaybeLocal@VValue@v8@@@v8@@@Z
    ??0Delegate@ValueDeserializer@v8@@QEAA@AEBV012@@Z=QQNT.original.dll.??0Delegate@ValueDeserializer@v8@@QEAA@AEBV012@@Z
    ??0Delegate@ValueDeserializer@v8@@QEAA@XZ=QQNT.original.dll.??0Delegate@ValueDeserializer@v8@@QEAA@XZ
    ??0Delegate@ValueSerializer@v8@@QEAA@AEBV012@@Z=QQNT.original.dll.??0Delegate@ValueSerializer@v8@@QEAA@AEBV012@@Z
    ??0Delegate@ValueSerializer@v8@@QEAA@XZ=QQNT.original.dll.??0Delegate@ValueSerializer@v8@@QEAA@XZ
    ??0DisallowGarbageCollectionScope@subtle@cppgc@@QEAA@AEAVHeapHandle@2@@Z=QQNT.original.dll.??0DisallowGarbageCollectionScope@subtle@cppgc@@QEAA@AEAVHeapHandle@2@@Z
    ??0DisallowJavascriptExecutionScope@Isolate@v8@@QEAA@PEAV12@W4OnFailure@012@@Z=QQNT.original.dll.??0DisallowJavascriptExecutionScope@Isolate@v8@@QEAA@PEAV12@W4OnFailure@012@@Z
    ??0DiscardedSamplesDelegate@v8@@QEAA@AEBV01@@Z=QQNT.original.dll.??0DiscardedSamplesDelegate@v8@@QEAA@AEBV01@@Z
    ??0DiscardedSamplesDelegate@v8@@QEAA@XZ=QQNT.original.dll.??0DiscardedSamplesDelegate@v8@@QEAA@XZ
    ??0Domain@API@Schema@protocol@v8_inspector@@QEAA@$$QEAV01234@@Z=QQNT.original.dll.??0Domain@API@Schema@protocol@v8_inspector@@QEAA@$$QEAV01234@@Z
    ??0Domain@API@Schema@protocol@v8_inspector@@QEAA@AEBV01234@@Z=QQNT.original.dll.??0Domain@API@Schema@protocol@v8_inspector@@QEAA@AEBV01234@@Z
    ??0Domain@API@Schema@protocol@v8_inspector@@QEAA@XZ=QQNT.original.dll.??0Domain@API@Schema@protocol@v8_inspector@@QEAA@XZ
    ??0EmbedderGraph@v8@@QEAA@AEBV01@@Z=QQNT.original.dll.??0EmbedderGraph@v8@@QEAA@AEBV01@@Z
    ??0EmbedderGraph@v8@@QEAA@XZ=QQNT.original.dll.??0EmbedderGraph@v8@@QEAA@XZ
    ??0EmbedderRootsHandler@v8@@QEAA@AEBV01@@Z=QQNT.original.dll.??0EmbedderRootsHandler@v8@@QEAA@AEBV01@@Z
    ??0EmbedderRootsHandler@v8@@QEAA@XZ=QQNT.original.dll.??0EmbedderRootsHandler@v8@@QEAA@XZ
    ??0EmbedderStateScope@v8@@QEAA@PEAVIsolate@1@V?$Local@VContext@v8@@@1@W4EmbedderStateTag@1@@Z=QQNT.original.dll.??0EmbedderStateScope@v8@@QEAA@PEAVIsolate@1@V?$Local@VContext@v8@@@1@W4EmbedderStateTag@1@@Z
    ??0EscapableHandleScope@v8@@QEAA@PEAVIsolate@1@@Z=QQNT.original.dll.??0EscapableHandleScope@v8@@QEAA@PEAVIsolate@1@@Z
    ??0EscapableHandleScopeBase@v8@@QEAA@PEAVIsolate@1@@Z=QQNT.original.dll.??0EscapableHandleScopeBase@v8@@QEAA@PEAVIsolate@1@@Z
    ??0EvaluateResult@V8InspectorSession@v8_inspector@@QEAA@XZ=QQNT.original.dll.??0EvaluateResult@V8InspectorSession@v8_inspector@@QEAA@XZ
    ??0Exported@protocol@v8_inspector@@QEAA@AEBV012@@Z=QQNT.original.dll.??0Exported@protocol@v8_inspector@@QEAA@AEBV012@@Z
    ??0Exported@protocol@v8_inspector@@QEAA@XZ=QQNT.original.dll.??0Exported@protocol@v8_inspector@@QEAA@XZ
    ??0Extension@v8@@QEAA@PEBD0HPEAPEBDH@Z=QQNT.original.dll.??0Extension@v8@@QEAA@PEBD0HPEAPEBDH@Z
    ??0ExtensionConfiguration@v8@@QEAA@HQEAPEBD@Z=QQNT.original.dll.??0ExtensionConfiguration@v8@@QEAA@HQEAPEBD@Z
    ??0ExtensionConfiguration@v8@@QEAA@XZ=QQNT.original.dll.??0ExtensionConfiguration@v8@@QEAA@XZ
    ??0ExternalOneByteStringResource@String@v8@@IEAA@XZ=QQNT.original.dll.??0ExternalOneByteStringResource@String@v8@@IEAA@XZ
    ??0ExternalResourceVisitor@v8@@QEAA@AEBV01@@Z=QQNT.original.dll.??0ExternalResourceVisitor@v8@@QEAA@AEBV01@@Z
    ??0ExternalResourceVisitor@v8@@QEAA@XZ=QQNT.original.dll.??0ExternalResourceVisitor@v8@@QEAA@XZ
    ??0ExternalSourceStream@ScriptCompiler@v8@@QEAA@AEBV012@@Z=QQNT.original.dll.??0ExternalSourceStream@ScriptCompiler@v8@@QEAA@AEBV012@@Z
    ??0ExternalSourceStream@ScriptCompiler@v8@@QEAA@XZ=QQNT.original.dll.??0ExternalSourceStream@ScriptCompiler@v8@@QEAA@XZ
    ??0ExternalStringResource@String@v8@@IEAA@XZ=QQNT.original.dll.??0ExternalStringResource@String@v8@@IEAA@XZ
    ??0ExternalStringResourceBase@String@v8@@IEAA@XZ=QQNT.original.dll.??0ExternalStringResourceBase@String@v8@@IEAA@XZ
    ??0GCInfoTable@internal@cppgc@@QEAA@AEAVPageAllocator@v8@@AEAVFatalOutOfMemoryHandler@12@@Z=QQNT.original.dll.??0GCInfoTable@internal@cppgc@@QEAA@AEAVPageAllocator@v8@@AEAVFatalOutOfMemoryHandler@12@@Z
    ??0HandleScope@v8@@QEAA@PEAVIsolate@1@@Z=QQNT.original.dll.??0HandleScope@v8@@QEAA@PEAVIsolate@1@@Z
    ??0Heap@cppgc@@AEAA@XZ=QQNT.original.dll.??0Heap@cppgc@@AEAA@XZ
    ??0Heap@cppgc@@QEAA@AEBV01@@Z=QQNT.original.dll.??0Heap@cppgc@@QEAA@AEBV01@@Z
    ??0HeapCodeStatistics@v8@@QEAA@XZ=QQNT.original.dll.??0HeapCodeStatistics@v8@@QEAA@XZ
    ??0HeapObjectStatistics@v8@@QEAA@XZ=QQNT.original.dll.??0HeapObjectStatistics@v8@@QEAA@XZ
    ??0HeapSpaceStatistics@v8@@QEAA@XZ=QQNT.original.dll.??0HeapSpaceStatistics@v8@@QEAA@XZ
    ??0HeapStatistics@v8@@QEAA@XZ=QQNT.original.dll.??0HeapStatistics@v8@@QEAA@XZ
    ??0InitializationResult@node@@AEAA@XZ=QQNT.original.dll.??0InitializationResult@node@@AEAA@XZ
    ??0InitializationResult@node@@QEAA@AEBV01@@Z=QQNT.original.dll.??0InitializationResult@node@@QEAA@AEBV01@@Z
    ??0Inspectable@V8InspectorSession@v8_inspector@@QEAA@AEBV012@@Z=QQNT.original.dll.??0Inspectable@V8InspectorSession@v8_inspector@@QEAA@AEBV012@@Z
    ??0Inspectable@V8InspectorSession@v8_inspector@@QEAA@XZ=QQNT.original.dll.??0Inspectable@V8InspectorSession@v8_inspector@@QEAA@XZ
    ??0IsolatePlatformDelegate@node@@QEAA@$$QEAV01@@Z=QQNT.original.dll.??0IsolatePlatformDelegate@node@@QEAA@$$QEAV01@@Z
    ??0IsolatePlatformDelegate@node@@QEAA@AEBV01@@Z=QQNT.original.dll.??0IsolatePlatformDelegate@node@@QEAA@AEBV01@@Z
    ??0IsolatePlatformDelegate@node@@QEAA@XZ=QQNT.original.dll.??0IsolatePlatformDelegate@node@@QEAA@XZ
    ??0JitPageReference@ThreadIsolation@internal@v8@@QEAA@$$QEAV0123@@Z=QQNT.original.dll.??0JitPageReference@ThreadIsolation@internal@v8@@QEAA@$$QEAV0123@@Z
    ??0JitPageReference@ThreadIsolation@internal@v8@@QEAA@PEAVJitPage@123@_K@Z=QQNT.original.dll.??0JitPageReference@ThreadIsolation@internal@v8@@QEAA@PEAVJitPage@123@_K@Z
    ??0Location@v8@@QEAA@HH@Z=QQNT.original.dll.??0Location@v8@@QEAA@HH@Z
    ??0Locker@v8@@QEAA@PEAVIsolate@1@@Z=QQNT.original.dll.??0Locker@v8@@QEAA@PEAVIsolate@1@@Z
    ??0LongTaskStats@metrics@v8@@QEAA@XZ=QQNT.original.dll.??0LongTaskStats@metrics@v8@@QEAA@XZ
    ??0MeasureMemoryDelegate@v8@@QEAA@AEBV01@@Z=QQNT.original.dll.??0MeasureMemoryDelegate@v8@@QEAA@AEBV01@@Z
    ??0MeasureMemoryDelegate@v8@@QEAA@XZ=QQNT.original.dll.??0MeasureMemoryDelegate@v8@@QEAA@XZ
    ??0MicrotaskQueue@v8@@AEAA@XZ=QQNT.original.dll.??0MicrotaskQueue@v8@@AEAA@XZ
    ??0MicrotasksScope@v8@@QEAA@PEAVIsolate@1@PEAVMicrotaskQueue@1@W4Type@01@@Z=QQNT.original.dll.??0MicrotasksScope@v8@@QEAA@PEAVIsolate@1@PEAVMicrotaskQueue@1@W4Type@01@@Z
    ??0MicrotasksScope@v8@@QEAA@V?$Local@VContext@v8@@@1@W4Type@01@@Z=QQNT.original.dll.??0MicrotasksScope@v8@@QEAA@V?$Local@VContext@v8@@@1@W4Type@01@@Z
    ??0ModuleWrap@loader@node@@AEAA@PEAVRealm@2@V?$Local@VObject@v8@@@v8@@V?$Local@VModule@v8@@@5@V?$Local@VString@v8@@@5@1V?$Local@VValue@v8@@@5@@Z=QQNT.original.dll.??0ModuleWrap@loader@node@@AEAA@PEAVRealm@2@V?$Local@VObject@v8@@@v8@@V?$Local@VModule@v8@@@5@V?$Local@VString@v8@@@5@1V?$Local@VValue@v8@@@5@@Z
    ??0MultiIsolatePlatform@node@@QEAA@AEBV01@@Z=QQNT.original.dll.??0MultiIsolatePlatform@node@@QEAA@AEBV01@@Z
    ??0MultiIsolatePlatform@node@@QEAA@XZ=QQNT.original.dll.??0MultiIsolatePlatform@node@@QEAA@XZ
    ??0NameProvider@cppgc@@QEAA@AEBV01@@Z=QQNT.original.dll.??0NameProvider@cppgc@@QEAA@AEBV01@@Z
    ??0NameProvider@cppgc@@QEAA@XZ=QQNT.original.dll.??0NameProvider@cppgc@@QEAA@XZ
    ??0NoGarbageCollectionScope@subtle@cppgc@@QEAA@AEAVHeapHandle@2@@Z=QQNT.original.dll.??0NoGarbageCollectionScope@subtle@cppgc@@QEAA@AEAVHeapHandle@2@@Z
    ??0OptimizingCompileDispatcherQueue@internal@v8@@QEAA@H@Z=QQNT.original.dll.??0OptimizingCompileDispatcherQueue@internal@v8@@QEAA@H@Z
    ??0OutputStream@v8@@QEAA@AEBV01@@Z=QQNT.original.dll.??0OutputStream@v8@@QEAA@AEBV01@@Z
    ??0OutputStream@v8@@QEAA@XZ=QQNT.original.dll.??0OutputStream@v8@@QEAA@XZ
    ??0OverrideEmbedderStackStateScope@testing@cppgc@@QEAA@AEAVHeapHandle@2@W4EmbedderStackState@2@@Z=QQNT.original.dll.??0OverrideEmbedderStackStateScope@testing@cppgc@@QEAA@AEAVHeapHandle@2@W4EmbedderStackState@2@@Z
    ??0PersistentHandleVisitor@v8@@QEAA@AEBV01@@Z=QQNT.original.dll.??0PersistentHandleVisitor@v8@@QEAA@AEBV01@@Z
    ??0PersistentHandleVisitor@v8@@QEAA@XZ=QQNT.original.dll.??0PersistentHandleVisitor@v8@@QEAA@XZ
    ??0PersistentRegion@internal@cppgc@@QEAA@AEBVHeapBase@12@AEBVFatalOutOfMemoryHandler@12@@Z=QQNT.original.dll.??0PersistentRegion@internal@cppgc@@QEAA@AEBVHeapBase@12@AEBVFatalOutOfMemoryHandler@12@@Z
    ??0PersistentRegionBase@internal@cppgc@@IEAA@AEBVFatalOutOfMemoryHandler@12@@Z=QQNT.original.dll.??0PersistentRegionBase@internal@cppgc@@IEAA@AEBVFatalOutOfMemoryHandler@12@@Z
    ??0PersistentRegionLock@internal@cppgc@@QEAA@XZ=QQNT.original.dll.??0PersistentRegionLock@internal@cppgc@@QEAA@XZ
    ??0Platform@cppgc@@QEAA@AEBV01@@Z=QQNT.original.dll.??0Platform@cppgc@@QEAA@AEBV01@@Z
    ??0Platform@cppgc@@QEAA@XZ=QQNT.original.dll.??0Platform@cppgc@@QEAA@XZ
    ??0PrefinalizerRegistration@internal@cppgc@@QEAA@PEAXP6A_NAEBVLivenessBroker@2@0@Z@Z=QQNT.original.dll.??0PrefinalizerRegistration@internal@cppgc@@QEAA@PEAXP6A_NAEBVLivenessBroker@2@0@Z@Z
    ??0PropertyDescriptor@v8@@QEAA@V?$Local@VValue@v8@@@1@0@Z=QQNT.original.dll.??0PropertyDescriptor@v8@@QEAA@V?$Local@VValue@v8@@@1@0@Z
    ??0PropertyDescriptor@v8@@QEAA@V?$Local@VValue@v8@@@1@@Z=QQNT.original.dll.??0PropertyDescriptor@v8@@QEAA@V?$Local@VValue@v8@@@1@@Z
    ??0PropertyDescriptor@v8@@QEAA@V?$Local@VValue@v8@@@1@_N@Z=QQNT.original.dll.??0PropertyDescriptor@v8@@QEAA@V?$Local@VValue@v8@@@1@_N@Z
    ??0PropertyDescriptor@v8@@QEAA@XZ=QQNT.original.dll.??0PropertyDescriptor@v8@@QEAA@XZ
    ??0Recorder@metrics@v8@@QEAA@AEBV012@@Z=QQNT.original.dll.??0Recorder@metrics@v8@@QEAA@AEBV012@@Z
    ??0Recorder@metrics@v8@@QEAA@XZ=QQNT.original.dll.??0Recorder@metrics@v8@@QEAA@XZ
    ??0RegisterState@v8@@QEAA@AEBU01@@Z=QQNT.original.dll.??0RegisterState@v8@@QEAA@AEBU01@@Z
    ??0RegisterState@v8@@QEAA@XZ=QQNT.original.dll.??0RegisterState@v8@@QEAA@XZ
    ??0RemoteObject@API@Runtime@protocol@v8_inspector@@QEAA@$$QEAV01234@@Z=QQNT.original.dll.??0RemoteObject@API@Runtime@protocol@v8_inspector@@QEAA@$$QEAV01234@@Z
    ??0RemoteObject@API@Runtime@protocol@v8_inspector@@QEAA@AEBV01234@@Z=QQNT.original.dll.??0RemoteObject@API@Runtime@protocol@v8_inspector@@QEAA@AEBV01234@@Z
    ??0RemoteObject@API@Runtime@protocol@v8_inspector@@QEAA@XZ=QQNT.original.dll.??0RemoteObject@API@Runtime@protocol@v8_inspector@@QEAA@XZ
    ??0ResourceConstraints@v8@@QEAA@XZ=QQNT.original.dll.??0ResourceConstraints@v8@@QEAA@XZ
    ??0RootVisitor@internal@cppgc@@QEAA@AEBV012@@Z=QQNT.original.dll.??0RootVisitor@internal@cppgc@@QEAA@AEBV012@@Z
    ??0RootVisitor@internal@cppgc@@QEAA@VKey@Visitor@2@@Z=QQNT.original.dll.??0RootVisitor@internal@cppgc@@QEAA@VKey@Visitor@2@@Z
    ??0SameThreadEnabledCheckingPolicyBase@internal@cppgc@@QEAA@XZ=QQNT.original.dll.??0SameThreadEnabledCheckingPolicyBase@internal@cppgc@@QEAA@XZ
    ??0Scope@Isolate@v8@@QEAA@PEAV12@@Z=QQNT.original.dll.??0Scope@Isolate@v8@@QEAA@PEAV12@@Z
    ??0ScriptOrigin@v8@@QEAA@V?$Local@VValue@v8@@@1@HH_NH0111V?$Local@VData@v8@@@1@@Z=QQNT.original.dll.??0ScriptOrigin@v8@@QEAA@V?$Local@VValue@v8@@@1@HH_NH0111V?$Local@VData@v8@@@1@@Z
    ??0ScriptStreamingTask@ScriptCompiler@v8@@AEAA@PEAUScriptStreamingData@internal@2@@Z=QQNT.original.dll.??0ScriptStreamingTask@ScriptCompiler@v8@@AEAA@PEAUScriptStreamingData@internal@2@@Z
    ??0SealHandleScope@v8@@QEAA@PEAVIsolate@1@@Z=QQNT.original.dll.??0SealHandleScope@v8@@QEAA@PEAVIsolate@1@@Z
    ??0SearchMatch@API@Debugger@protocol@v8_inspector@@QEAA@$$QEAV01234@@Z=QQNT.original.dll.??0SearchMatch@API@Debugger@protocol@v8_inspector@@QEAA@$$QEAV01234@@Z
    ??0SearchMatch@API@Debugger@protocol@v8_inspector@@QEAA@AEBV01234@@Z=QQNT.original.dll.??0SearchMatch@API@Debugger@protocol@v8_inspector@@QEAA@AEBV01234@@Z
    ??0SearchMatch@API@Debugger@protocol@v8_inspector@@QEAA@XZ=QQNT.original.dll.??0SearchMatch@API@Debugger@protocol@v8_inspector@@QEAA@XZ
    ??0SharedMemoryStatistics@v8@@QEAA@XZ=QQNT.original.dll.??0SharedMemoryStatistics@v8@@QEAA@XZ
    ??0SharedValueConveyor@v8@@AEAA@PEAVIsolate@1@@Z=QQNT.original.dll.??0SharedValueConveyor@v8@@AEAA@PEAVIsolate@1@@Z
    ??0SharedValueConveyor@v8@@QEAA@$$QEAV01@@Z=QQNT.original.dll.??0SharedValueConveyor@v8@@QEAA@$$QEAV01@@Z
    ??0SnapshotCreator@v8@@QEAA@AEBUCreateParams@Isolate@1@@Z=QQNT.original.dll.??0SnapshotCreator@v8@@QEAA@AEBUCreateParams@Isolate@1@@Z
    ??0SnapshotCreator@v8@@QEAA@PEAVIsolate@1@AEBUCreateParams@21@@Z=QQNT.original.dll.??0SnapshotCreator@v8@@QEAA@PEAVIsolate@1@AEBUCreateParams@21@@Z
    ??0SnapshotCreator@v8@@QEAA@PEAVIsolate@1@PEB_JPEBVStartupData@1@_N@Z=QQNT.original.dll.??0SnapshotCreator@v8@@QEAA@PEAVIsolate@1@PEB_JPEBVStartupData@1@_N@Z
    ??0SnapshotCreator@v8@@QEAA@PEB_JPEBVStartupData@1@@Z=QQNT.original.dll.??0SnapshotCreator@v8@@QEAA@PEB_JPEBVStartupData@1@@Z
    ??0SourceLocation@v8@@AEAA@PEBD0_K@Z=QQNT.original.dll.??0SourceLocation@v8@@AEAA@PEBD0_K@Z
    ??0SourceLocation@v8@@QEAA@XZ=QQNT.original.dll.??0SourceLocation@v8@@QEAA@XZ
    ??0StackTrace@API@Runtime@protocol@v8_inspector@@QEAA@$$QEAV01234@@Z=QQNT.original.dll.??0StackTrace@API@Runtime@protocol@v8_inspector@@QEAA@$$QEAV01234@@Z
    ??0StackTrace@API@Runtime@protocol@v8_inspector@@QEAA@AEBV01234@@Z=QQNT.original.dll.??0StackTrace@API@Runtime@protocol@v8_inspector@@QEAA@AEBV01234@@Z
    ??0StackTrace@API@Runtime@protocol@v8_inspector@@QEAA@XZ=QQNT.original.dll.??0StackTrace@API@Runtime@protocol@v8_inspector@@QEAA@XZ
    ??0StackTraceId@API@Runtime@protocol@v8_inspector@@QEAA@$$QEAV01234@@Z=QQNT.original.dll.??0StackTraceId@API@Runtime@protocol@v8_inspector@@QEAA@$$QEAV01234@@Z
    ??0StackTraceId@API@Runtime@protocol@v8_inspector@@QEAA@AEBV01234@@Z=QQNT.original.dll.??0StackTraceId@API@Runtime@protocol@v8_inspector@@QEAA@AEBV01234@@Z
    ??0StackTraceId@API@Runtime@protocol@v8_inspector@@QEAA@XZ=QQNT.original.dll.??0StackTraceId@API@Runtime@protocol@v8_inspector@@QEAA@XZ
    ??0StandaloneTestingHeap@testing@cppgc@@QEAA@AEAVHeapHandle@2@@Z=QQNT.original.dll.??0StandaloneTestingHeap@testing@cppgc@@QEAA@AEAVHeapHandle@2@@Z
    ??0StreamedSource@ScriptCompiler@v8@@QEAA@V?$unique_ptr@VExternalSourceStream@ScriptCompiler@v8@@U?$default_delete@VExternalSourceStream@ScriptCompiler@v8@@@__Cr@std@@@__Cr@std@@W4Encoding@012@@Z=QQNT.original.dll.??0StreamedSource@ScriptCompiler@v8@@QEAA@V?$unique_ptr@VExternalSourceStream@ScriptCompiler@v8@@U?$default_delete@VExternalSourceStream@ScriptCompiler@v8@@@__Cr@std@@@__Cr@std@@W4Encoding@012@@Z
    ??0String16@v8_inspector@@QEAA@PEBD@Z=QQNT.original.dll.??0String16@v8_inspector@@QEAA@PEBD@Z
    ??0String16@v8_inspector@@QEAA@PEB_S@Z=QQNT.original.dll.??0String16@v8_inspector@@QEAA@PEB_S@Z
    ??0StringBuffer@v8_inspector@@QEAA@AEBV01@@Z=QQNT.original.dll.??0StringBuffer@v8_inspector@@QEAA@AEBV01@@Z
    ??0StringBuffer@v8_inspector@@QEAA@XZ=QQNT.original.dll.??0StringBuffer@v8_inspector@@QEAA@XZ
    ??0StringView@v8_inspector@@QEAA@PEBE_K@Z=QQNT.original.dll.??0StringView@v8_inspector@@QEAA@PEBE_K@Z
    ??0StringView@v8_inspector@@QEAA@PEBG_K@Z=QQNT.original.dll.??0StringView@v8_inspector@@QEAA@PEBG_K@Z
    ??0StringView@v8_inspector@@QEAA@XZ=QQNT.original.dll.??0StringView@v8_inspector@@QEAA@XZ
    ??0StrongRootAllocatorBase@internal@v8@@IEAA@PEAVHeap@12@@Z=QQNT.original.dll.??0StrongRootAllocatorBase@internal@v8@@IEAA@PEAVHeap@12@@Z
    ??0StrongRootAllocatorBase@internal@v8@@IEAA@PEAVIsolate@12@@Z=QQNT.original.dll.??0StrongRootAllocatorBase@internal@v8@@IEAA@PEAVIsolate@12@@Z
    ??0StrongRootAllocatorBase@internal@v8@@IEAA@PEAVIsolate@2@@Z=QQNT.original.dll.??0StrongRootAllocatorBase@internal@v8@@IEAA@PEAVIsolate@2@@Z
    ??0StrongRootAllocatorBase@internal@v8@@IEAA@PEAVLocalHeap@12@@Z=QQNT.original.dll.??0StrongRootAllocatorBase@internal@v8@@IEAA@PEAVLocalHeap@12@@Z
    ??0StrongRootAllocatorBase@internal@v8@@IEAA@PEAVLocalIsolate@12@@Z=QQNT.original.dll.??0StrongRootAllocatorBase@internal@v8@@IEAA@PEAVLocalIsolate@12@@Z
    ??0SuppressMicrotaskExecutionScope@Isolate@v8@@QEAA@PEAV12@PEAVMicrotaskQueue@2@@Z=QQNT.original.dll.??0SuppressMicrotaskExecutionScope@Isolate@v8@@QEAA@PEAV12@PEAVMicrotaskQueue@2@@Z
    ??0SuspendTagCheckingScope@base@heap@@QEAA@XZ=QQNT.original.dll.??0SuspendTagCheckingScope@base@heap@@QEAA@XZ
    ??0TickSample@internal@v8@@QEAA@XZ=QQNT.original.dll.??0TickSample@internal@v8@@QEAA@XZ
    ??0TryCatch@v8@@QEAA@PEAVIsolate@1@@Z=QQNT.original.dll.??0TryCatch@v8@@QEAA@PEAVIsolate@1@@Z
    ??0TypecheckWitness@v8@@QEAA@PEAVIsolate@1@@Z=QQNT.original.dll.??0TypecheckWitness@v8@@QEAA@PEAVIsolate@1@@Z
    ??0Unlocker@v8@@QEAA@PEAVIsolate@1@@Z=QQNT.original.dll.??0Unlocker@v8@@QEAA@PEAVIsolate@1@@Z
    ??0Utf8Value@String@v8@@QEAA@PEAVIsolate@2@V?$Local@VValue@v8@@@2@W4WriteOptions@12@@Z=QQNT.original.dll.??0Utf8Value@String@v8@@QEAA@PEAVIsolate@2@V?$Local@VValue@v8@@@2@W4WriteOptions@12@@Z
    ??0V8ContextInfo@v8_inspector@@QEAA@V?$Local@VContext@v8@@@v8@@HVStringView@1@@Z=QQNT.original.dll.??0V8ContextInfo@v8_inspector@@QEAA@V?$Local@VContext@v8@@@v8@@HVStringView@1@@Z
    ??0V8DebuggerId@v8_inspector@@AEAA@U?$pair@_J_J@__Cr@std@@@Z=QQNT.original.dll.??0V8DebuggerId@v8_inspector@@AEAA@U?$pair@_J_J@__Cr@std@@@Z
    ??0V8DebuggerId@v8_inspector@@QEAA@XZ=QQNT.original.dll.??0V8DebuggerId@v8_inspector@@QEAA@XZ
    ??0V8Inspector@v8_inspector@@QEAA@AEBV01@@Z=QQNT.original.dll.??0V8Inspector@v8_inspector@@QEAA@AEBV01@@Z
    ??0V8Inspector@v8_inspector@@QEAA@XZ=QQNT.original.dll.??0V8Inspector@v8_inspector@@QEAA@XZ
    ??0V8InspectorClient@v8_inspector@@QEAA@AEBV01@@Z=QQNT.original.dll.??0V8InspectorClient@v8_inspector@@QEAA@AEBV01@@Z
    ??0V8InspectorClient@v8_inspector@@QEAA@XZ=QQNT.original.dll.??0V8InspectorClient@v8_inspector@@QEAA@XZ
    ??0V8InspectorSession@v8_inspector@@QEAA@AEBV01@@Z=QQNT.original.dll.??0V8InspectorSession@v8_inspector@@QEAA@AEBV01@@Z
    ??0V8InspectorSession@v8_inspector@@QEAA@XZ=QQNT.original.dll.??0V8InspectorSession@v8_inspector@@QEAA@XZ
    ??0V8SerializationDuplicateTracker@v8_inspector@@QEAA@V?$Local@VContext@v8@@@v8@@@Z=QQNT.original.dll.??0V8SerializationDuplicateTracker@v8_inspector@@QEAA@V?$Local@VContext@v8@@@v8@@@Z
    ??0V8StackFrame@v8_inspector@@QEAA@XZ=QQNT.original.dll.??0V8StackFrame@v8_inspector@@QEAA@XZ
    ??0V8StackTrace@v8_inspector@@QEAA@AEBV01@@Z=QQNT.original.dll.??0V8StackTrace@v8_inspector@@QEAA@AEBV01@@Z
    ??0V8StackTrace@v8_inspector@@QEAA@XZ=QQNT.original.dll.??0V8StackTrace@v8_inspector@@QEAA@XZ
    ??0V8StackTraceId@v8_inspector@@QEAA@VStringView@1@@Z=QQNT.original.dll.??0V8StackTraceId@v8_inspector@@QEAA@VStringView@1@@Z
    ??0V8StackTraceId@v8_inspector@@QEAA@XZ=QQNT.original.dll.??0V8StackTraceId@v8_inspector@@QEAA@XZ
    ??0V8StackTraceId@v8_inspector@@QEAA@_KU?$pair@_J_J@__Cr@std@@@Z=QQNT.original.dll.??0V8StackTraceId@v8_inspector@@QEAA@_KU?$pair@_J_J@__Cr@std@@@Z
    ??0V8StackTraceId@v8_inspector@@QEAA@_KU?$pair@_J_J@__Cr@std@@_N@Z=QQNT.original.dll.??0V8StackTraceId@v8_inspector@@QEAA@_KU?$pair@_J_J@__Cr@std@@_N@Z
    ??0Value@String@v8@@QEAA@PEAVIsolate@2@V?$Local@VValue@v8@@@2@@Z=QQNT.original.dll.??0Value@String@v8@@QEAA@PEAVIsolate@2@V?$Local@VValue@v8@@@2@@Z
    ??0ValueDeserializer@v8@@QEAA@PEAVIsolate@1@PEBE_K@Z=QQNT.original.dll.??0ValueDeserializer@v8@@QEAA@PEAVIsolate@1@PEBE_K@Z
    ??0ValueDeserializer@v8@@QEAA@PEAVIsolate@1@PEBE_KPEAVDelegate@01@@Z=QQNT.original.dll.??0ValueDeserializer@v8@@QEAA@PEAVIsolate@1@PEBE_KPEAVDelegate@01@@Z
    ??0ValueSerializer@v8@@QEAA@PEAVIsolate@1@@Z=QQNT.original.dll.??0ValueSerializer@v8@@QEAA@PEAVIsolate@1@@Z
    ??0ValueSerializer@v8@@QEAA@PEAVIsolate@1@PEAVDelegate@01@@Z=QQNT.original.dll.??0ValueSerializer@v8@@QEAA@PEAVIsolate@1@PEAVDelegate@01@@Z
    ??0ValueView@String@v8@@QEAA@PEAVIsolate@2@V?$Local@VString@v8@@@2@@Z=QQNT.original.dll.??0ValueView@String@v8@@QEAA@PEAVIsolate@2@V?$Local@VString@v8@@@2@@Z
    ??0Visitor@cppgc@@QEAA@AEBV01@@Z=QQNT.original.dll.??0Visitor@cppgc@@QEAA@AEBV01@@Z
    ??0Visitor@cppgc@@QEAA@VKey@01@@Z=QQNT.original.dll.??0Visitor@cppgc@@QEAA@VKey@01@@Z
    ??0WasmStreaming@v8@@QEAA@V?$unique_ptr@VWasmStreamingImpl@WasmStreaming@v8@@U?$default_delete@VWasmStreamingImpl@WasmStreaming@v8@@@__Cr@std@@@__Cr@std@@@Z=QQNT.original.dll.??0WasmStreaming@v8@@QEAA@V?$unique_ptr@VWasmStreamingImpl@WasmStreaming@v8@@U?$default_delete@VWasmStreamingImpl@WasmStreaming@v8@@@__Cr@std@@@__Cr@std@@@Z
    ??1?$vector@UCpuProfileDeoptFrame@v8@@V?$allocator@UCpuProfileDeoptFrame@v8@@@__Cr@std@@@__Cr@std@@QEAA@XZ=QQNT.original.dll.??1?$vector@UCpuProfileDeoptFrame@v8@@V?$allocator@UCpuProfileDeoptFrame@v8@@@__Cr@std@@@__Cr@std@@QEAA@XZ
    ??1?$vector@UCpuProfileDeoptInfo@v8@@V?$allocator@UCpuProfileDeoptInfo@v8@@@__Cr@std@@@__Cr@std@@QEAA@XZ=QQNT.original.dll.??1?$vector@UCpuProfileDeoptInfo@v8@@V?$allocator@UCpuProfileDeoptInfo@v8@@@__Cr@std@@@__Cr@std@@QEAA@XZ
    ??1ActivityControl@v8@@UEAA@XZ=QQNT.original.dll.??1ActivityControl@v8@@UEAA@XZ
    ??1AllocationProfile@v8@@UEAA@XZ=QQNT.original.dll.??1AllocationProfile@v8@@UEAA@XZ
    ??1Allocator@ArrayBuffer@v8@@UEAA@XZ=QQNT.original.dll.??1Allocator@ArrayBuffer@v8@@UEAA@XZ
    ??1AllowJavascriptExecutionScope@Isolate@v8@@QEAA@XZ=QQNT.original.dll.??1AllowJavascriptExecutionScope@Isolate@v8@@QEAA@XZ
    ??1ArrayBufferAllocator@node@@UEAA@XZ=QQNT.original.dll.??1ArrayBufferAllocator@node@@UEAA@XZ
    ??1AsyncResource@node@@UEAA@XZ=QQNT.original.dll.??1AsyncResource@node@@UEAA@XZ
    ??1BackingStore@v8@@QEAA@XZ=QQNT.original.dll.??1BackingStore@v8@@QEAA@XZ
    ??1BackupIncumbentScope@Context@v8@@QEAA@XZ=QQNT.original.dll.??1BackupIncumbentScope@Context@v8@@QEAA@XZ
    ??1Binary@protocol@v8_inspector@@QEAA@XZ=QQNT.original.dll.??1Binary@protocol@v8_inspector@@QEAA@XZ
    ??1CachedData@ScriptCompiler@v8@@QEAA@XZ=QQNT.original.dll.??1CachedData@ScriptCompiler@v8@@QEAA@XZ
    ??1CallbackScope@AsyncResource@node@@QEAA@XZ=QQNT.original.dll.??1CallbackScope@AsyncResource@node@@QEAA@XZ
    ??1CallbackScope@node@@QEAA@XZ=QQNT.original.dll.??1CallbackScope@node@@QEAA@XZ
    ??1Channel@V8Inspector@v8_inspector@@UEAA@XZ=QQNT.original.dll.??1Channel@V8Inspector@v8_inspector@@UEAA@XZ
    ??1CodeEventHandler@v8@@UEAA@XZ=QQNT.original.dll.??1CodeEventHandler@v8@@UEAA@XZ
    ??1CommonEnvironmentSetup@node@@QEAA@XZ=QQNT.original.dll.??1CommonEnvironmentSetup@node@@QEAA@XZ
    ??1CompilationDependencies@compiler@internal@v8@@QEAA@XZ=QQNT.original.dll.??1CompilationDependencies@compiler@internal@v8@@QEAA@XZ
    ??1CompiledWasmModule@v8@@QEAA@XZ=QQNT.original.dll.??1CompiledWasmModule@v8@@QEAA@XZ
    ??1ConsumeCodeCacheTask@ScriptCompiler@v8@@QEAA@XZ=QQNT.original.dll.??1ConsumeCodeCacheTask@ScriptCompiler@v8@@QEAA@XZ
    ??1CppHeap@v8@@UEAA@XZ=QQNT.original.dll.??1CppHeap@v8@@UEAA@XZ
    ??1CppHeapCreateParams@v8@@QEAA@XZ=QQNT.original.dll.??1CppHeapCreateParams@v8@@QEAA@XZ
    ??1CpuProfileDeoptInfo@v8@@QEAA@XZ=QQNT.original.dll.??1CpuProfileDeoptInfo@v8@@QEAA@XZ
    ??1CpuProfilingOptions@v8@@QEAA@XZ=QQNT.original.dll.??1CpuProfilingOptions@v8@@QEAA@XZ
    ??1CreateParams@Isolate@v8@@QEAA@XZ=QQNT.original.dll.??1CreateParams@Isolate@v8@@QEAA@XZ
    ??1CrossThreadPersistentRegion@internal@cppgc@@QEAA@XZ=QQNT.original.dll.??1CrossThreadPersistentRegion@internal@cppgc@@QEAA@XZ
    ??1DeepSerializationResult@v8_inspector@@QEAA@XZ=QQNT.original.dll.??1DeepSerializationResult@v8_inspector@@QEAA@XZ
    ??1DeepSerializedValue@v8_inspector@@QEAA@XZ=QQNT.original.dll.??1DeepSerializedValue@v8_inspector@@QEAA@XZ
    ??1Delegate@ValueDeserializer@v8@@UEAA@XZ=QQNT.original.dll.??1Delegate@ValueDeserializer@v8@@UEAA@XZ
    ??1Delegate@ValueSerializer@v8@@UEAA@XZ=QQNT.original.dll.??1Delegate@ValueSerializer@v8@@UEAA@XZ
    ??1DisallowGarbageCollectionScope@subtle@cppgc@@QEAA@XZ=QQNT.original.dll.??1DisallowGarbageCollectionScope@subtle@cppgc@@QEAA@XZ
    ??1DisallowJavascriptExecutionScope@Isolate@v8@@QEAA@XZ=QQNT.original.dll.??1DisallowJavascriptExecutionScope@Isolate@v8@@QEAA@XZ
    ??1DiscardedSamplesDelegate@v8@@UEAA@XZ=QQNT.original.dll.??1DiscardedSamplesDelegate@v8@@UEAA@XZ
    ??1Domain@API@Schema@protocol@v8_inspector@@UEAA@XZ=QQNT.original.dll.??1Domain@API@Schema@protocol@v8_inspector@@UEAA@XZ
    ??1EmbedderGraph@v8@@UEAA@XZ=QQNT.original.dll.??1EmbedderGraph@v8@@UEAA@XZ
    ??1EmbedderRootsHandler@v8@@UEAA@XZ=QQNT.original.dll.??1EmbedderRootsHandler@v8@@UEAA@XZ
    ??1EmbedderStateScope@v8@@QEAA@XZ=QQNT.original.dll.??1EmbedderStateScope@v8@@QEAA@XZ
    ??1EscapableHandleScope@v8@@QEAA@XZ=QQNT.original.dll.??1EscapableHandleScope@v8@@QEAA@XZ
    ??1EscapableHandleScopeBase@v8@@QEAA@XZ=QQNT.original.dll.??1EscapableHandleScopeBase@v8@@QEAA@XZ
    ??1Exported@protocol@v8_inspector@@UEAA@XZ=QQNT.original.dll.??1Exported@protocol@v8_inspector@@UEAA@XZ
    ??1Extension@v8@@UEAA@XZ=QQNT.original.dll.??1Extension@v8@@UEAA@XZ
    ??1ExternalOneByteStringResource@String@v8@@UEAA@XZ=QQNT.original.dll.??1ExternalOneByteStringResource@String@v8@@UEAA@XZ
    ??1ExternalResourceVisitor@v8@@UEAA@XZ=QQNT.original.dll.??1ExternalResourceVisitor@v8@@UEAA@XZ
    ??1ExternalSourceStream@ScriptCompiler@v8@@UEAA@XZ=QQNT.original.dll.??1ExternalSourceStream@ScriptCompiler@v8@@UEAA@XZ
    ??1ExternalStringResource@String@v8@@UEAA@XZ=QQNT.original.dll.??1ExternalStringResource@String@v8@@UEAA@XZ
    ??1ExternalStringResourceBase@String@v8@@UEAA@XZ=QQNT.original.dll.??1ExternalStringResourceBase@String@v8@@UEAA@XZ
    ??1GCInfoTable@internal@cppgc@@QEAA@XZ=QQNT.original.dll.??1GCInfoTable@internal@cppgc@@QEAA@XZ
    ??1HandleScope@v8@@QEAA@XZ=QQNT.original.dll.??1HandleScope@v8@@QEAA@XZ
    ??1Heap@cppgc@@UEAA@XZ=QQNT.original.dll.??1Heap@cppgc@@UEAA@XZ
    ??1InitializationResult@node@@UEAA@XZ=QQNT.original.dll.??1InitializationResult@node@@UEAA@XZ
    ??1Inspectable@V8InspectorSession@v8_inspector@@UEAA@XZ=QQNT.original.dll.??1Inspectable@V8InspectorSession@v8_inspector@@UEAA@XZ
    ??1JitPageReference@ThreadIsolation@internal@v8@@QEAA@XZ=QQNT.original.dll.??1JitPageReference@ThreadIsolation@internal@v8@@QEAA@XZ
    ??1Locker@v8@@QEAA@XZ=QQNT.original.dll.??1Locker@v8@@QEAA@XZ
    ??1MeasureMemoryDelegate@v8@@UEAA@XZ=QQNT.original.dll.??1MeasureMemoryDelegate@v8@@UEAA@XZ
    ??1MicrotaskQueue@v8@@UEAA@XZ=QQNT.original.dll.??1MicrotaskQueue@v8@@UEAA@XZ
    ??1MicrotasksScope@v8@@QEAA@XZ=QQNT.original.dll.??1MicrotasksScope@v8@@QEAA@XZ
    ??1ModuleWrap@loader@node@@EEAA@XZ=QQNT.original.dll.??1ModuleWrap@loader@node@@EEAA@XZ
    ??1MultiIsolatePlatform@node@@UEAA@XZ=QQNT.original.dll.??1MultiIsolatePlatform@node@@UEAA@XZ
    ??1NameProvider@cppgc@@UEAA@XZ=QQNT.original.dll.??1NameProvider@cppgc@@UEAA@XZ
    ??1NoGarbageCollectionScope@subtle@cppgc@@QEAA@XZ=QQNT.original.dll.??1NoGarbageCollectionScope@subtle@cppgc@@QEAA@XZ
    ??1OptimizingCompileDispatcherQueue@internal@v8@@QEAA@XZ=QQNT.original.dll.??1OptimizingCompileDispatcherQueue@internal@v8@@QEAA@XZ
    ??1OutputStream@v8@@UEAA@XZ=QQNT.original.dll.??1OutputStream@v8@@UEAA@XZ
    ??1OverrideEmbedderStackStateScope@testing@cppgc@@QEAA@XZ=QQNT.original.dll.??1OverrideEmbedderStackStateScope@testing@cppgc@@QEAA@XZ
    ??1PersistentHandleVisitor@v8@@UEAA@XZ=QQNT.original.dll.??1PersistentHandleVisitor@v8@@UEAA@XZ
    ??1PersistentRegion@internal@cppgc@@QEAA@XZ=QQNT.original.dll.??1PersistentRegion@internal@cppgc@@QEAA@XZ
    ??1PersistentRegionBase@internal@cppgc@@QEAA@XZ=QQNT.original.dll.??1PersistentRegionBase@internal@cppgc@@QEAA@XZ
    ??1PersistentRegionLock@internal@cppgc@@QEAA@XZ=QQNT.original.dll.??1PersistentRegionLock@internal@cppgc@@QEAA@XZ
    ??1Platform@cppgc@@UEAA@XZ=QQNT.original.dll.??1Platform@cppgc@@UEAA@XZ
    ??1PropertyDescriptor@v8@@QEAA@XZ=QQNT.original.dll.??1PropertyDescriptor@v8@@QEAA@XZ
    ??1Recorder@metrics@v8@@UEAA@XZ=QQNT.original.dll.??1Recorder@metrics@v8@@UEAA@XZ
    ??1RegisterState@v8@@QEAA@XZ=QQNT.original.dll.??1RegisterState@v8@@QEAA@XZ
    ??1RemoteObject@API@Runtime@protocol@v8_inspector@@UEAA@XZ=QQNT.original.dll.??1RemoteObject@API@Runtime@protocol@v8_inspector@@UEAA@XZ
    ??1RootVisitor@internal@cppgc@@UEAA@XZ=QQNT.original.dll.??1RootVisitor@internal@cppgc@@UEAA@XZ
    ??1Scope@Isolate@v8@@QEAA@XZ=QQNT.original.dll.??1Scope@Isolate@v8@@QEAA@XZ
    ??1SealHandleScope@v8@@QEAA@XZ=QQNT.original.dll.??1SealHandleScope@v8@@QEAA@XZ
    ??1SearchMatch@API@Debugger@protocol@v8_inspector@@UEAA@XZ=QQNT.original.dll.??1SearchMatch@API@Debugger@protocol@v8_inspector@@UEAA@XZ
    ??1SharedValueConveyor@v8@@QEAA@XZ=QQNT.original.dll.??1SharedValueConveyor@v8@@QEAA@XZ
    ??1SnapshotCreator@v8@@QEAA@XZ=QQNT.original.dll.??1SnapshotCreator@v8@@QEAA@XZ
    ??1StackTrace@API@Runtime@protocol@v8_inspector@@UEAA@XZ=QQNT.original.dll.??1StackTrace@API@Runtime@protocol@v8_inspector@@UEAA@XZ
    ??1StackTraceId@API@Runtime@protocol@v8_inspector@@UEAA@XZ=QQNT.original.dll.??1StackTraceId@API@Runtime@protocol@v8_inspector@@UEAA@XZ
    ??1StreamedSource@ScriptCompiler@v8@@QEAA@XZ=QQNT.original.dll.??1StreamedSource@ScriptCompiler@v8@@QEAA@XZ
    ??1StringBuffer@v8_inspector@@UEAA@XZ=QQNT.original.dll.??1StringBuffer@v8_inspector@@UEAA@XZ
    ??1SuppressMicrotaskExecutionScope@Isolate@v8@@QEAA@XZ=QQNT.original.dll.??1SuppressMicrotaskExecutionScope@Isolate@v8@@QEAA@XZ
    ??1SuspendTagCheckingScope@base@heap@@QEAA@XZ=QQNT.original.dll.??1SuspendTagCheckingScope@base@heap@@QEAA@XZ
    ??1TryCatch@v8@@QEAA@XZ=QQNT.original.dll.??1TryCatch@v8@@QEAA@XZ
    ??1Unlocker@v8@@QEAA@XZ=QQNT.original.dll.??1Unlocker@v8@@QEAA@XZ
    ??1Utf8Value@String@v8@@QEAA@XZ=QQNT.original.dll.??1Utf8Value@String@v8@@QEAA@XZ
    ??1V8Inspector@v8_inspector@@UEAA@XZ=QQNT.original.dll.??1V8Inspector@v8_inspector@@UEAA@XZ
    ??1V8InspectorClient@v8_inspector@@UEAA@XZ=QQNT.original.dll.??1V8InspectorClient@v8_inspector@@UEAA@XZ
    ??1V8InspectorSession@v8_inspector@@UEAA@XZ=QQNT.original.dll.??1V8InspectorSession@v8_inspector@@UEAA@XZ
    ??1V8StackTrace@v8_inspector@@UEAA@XZ=QQNT.original.dll.??1V8StackTrace@v8_inspector@@UEAA@XZ
    ??1Value@String@v8@@QEAA@XZ=QQNT.original.dll.??1Value@String@v8@@QEAA@XZ
    ??1ValueDeserializer@v8@@QEAA@XZ=QQNT.original.dll.??1ValueDeserializer@v8@@QEAA@XZ
    ??1ValueSerializer@v8@@QEAA@XZ=QQNT.original.dll.??1ValueSerializer@v8@@QEAA@XZ
    ??1ValueView@String@v8@@QEAA@XZ=QQNT.original.dll.??1ValueView@String@v8@@QEAA@XZ
    ??1Visitor@cppgc@@UEAA@XZ=QQNT.original.dll.??1Visitor@cppgc@@UEAA@XZ
    ??1WasmStreaming@v8@@QEAA@XZ=QQNT.original.dll.??1WasmStreaming@v8@@QEAA@XZ
    ??2GlobalGCInfoTable@internal@cppgc@@CAPEAX_K@Z=QQNT.original.dll.??2GlobalGCInfoTable@internal@cppgc@@CAPEAX_K@Z
    ??2HandleScope@v8@@CAPEAX_K@Z=QQNT.original.dll.??2HandleScope@v8@@CAPEAX_K@Z
    ??2TryCatch@v8@@CAPEAX_K@Z=QQNT.original.dll.??2TryCatch@v8@@CAPEAX_K@Z
    ??3BackingStore@v8@@SAXPEAX@Z=QQNT.original.dll.??3BackingStore@v8@@SAXPEAX@Z
    ??3GlobalGCInfoTable@internal@cppgc@@CAXPEAX_K@Z=QQNT.original.dll.??3GlobalGCInfoTable@internal@cppgc@@CAXPEAX_K@Z
    ??3HandleScope@v8@@CAXPEAX_K@Z=QQNT.original.dll.??3HandleScope@v8@@CAXPEAX_K@Z
    ??3TryCatch@v8@@CAXPEAX_K@Z=QQNT.original.dll.??3TryCatch@v8@@CAXPEAX_K@Z
    ??4?$CTypeInfoBuilder@H$S@v8@@QEAAAEAV01@$$QEAV01@@Z=QQNT.original.dll.??4?$CTypeInfoBuilder@H$S@v8@@QEAAAEAV01@$$QEAV01@@Z
    ??4?$CTypeInfoBuilder@H$S@v8@@QEAAAEAV01@AEBV01@@Z=QQNT.original.dll.??4?$CTypeInfoBuilder@H$S@v8@@QEAAAEAV01@AEBV01@@Z
    ??4?$CTypeInfoBuilder@I$S@v8@@QEAAAEAV01@$$QEAV01@@Z=QQNT.original.dll.??4?$CTypeInfoBuilder@I$S@v8@@QEAAAEAV01@$$QEAV01@@Z
    ??4?$CTypeInfoBuilder@I$S@v8@@QEAAAEAV01@AEBV01@@Z=QQNT.original.dll.??4?$CTypeInfoBuilder@I$S@v8@@QEAAAEAV01@AEBV01@@Z
    ??4?$CTypeInfoBuilder@M$S@v8@@QEAAAEAV01@$$QEAV01@@Z=QQNT.original.dll.??4?$CTypeInfoBuilder@M$S@v8@@QEAAAEAV01@$$QEAV01@@Z
    ??4?$CTypeInfoBuilder@M$S@v8@@QEAAAEAV01@AEBV01@@Z=QQNT.original.dll.??4?$CTypeInfoBuilder@M$S@v8@@QEAAAEAV01@AEBV01@@Z
    ??4?$CTypeInfoBuilder@N$S@v8@@QEAAAEAV01@$$QEAV01@@Z=QQNT.original.dll.??4?$CTypeInfoBuilder@N$S@v8@@QEAAAEAV01@$$QEAV01@@Z
    ??4?$CTypeInfoBuilder@N$S@v8@@QEAAAEAV01@AEBV01@@Z=QQNT.original.dll.??4?$CTypeInfoBuilder@N$S@v8@@QEAAAEAV01@AEBV01@@Z
    ??4?$MemorySpan@$$CBD@v8@@QEAAAEAV01@$$QEAV01@@Z=QQNT.original.dll.??4?$MemorySpan@$$CBD@v8@@QEAAAEAV01@$$QEAV01@@Z
    ??4?$MemorySpan@$$CBD@v8@@QEAAAEAV01@AEBV01@@Z=QQNT.original.dll.??4?$MemorySpan@$$CBD@v8@@QEAAAEAV01@AEBV01@@Z
    ??4?$MemorySpan@$$CBE@v8@@QEAAAEAV01@$$QEAV01@@Z=QQNT.original.dll.??4?$MemorySpan@$$CBE@v8@@QEAAAEAV01@$$QEAV01@@Z
    ??4?$MemorySpan@$$CBE@v8@@QEAAAEAV01@AEBV01@@Z=QQNT.original.dll.??4?$MemorySpan@$$CBE@v8@@QEAAAEAV01@AEBV01@@Z
    ??4?$MemorySpan@$$CBV?$Local@VContext@v8@@@v8@@@v8@@QEAAAEAV01@$$QEAV01@@Z=QQNT.original.dll.??4?$MemorySpan@$$CBV?$Local@VContext@v8@@@v8@@@v8@@QEAAAEAV01@$$QEAV01@@Z
    ??4?$MemorySpan@$$CBV?$Local@VContext@v8@@@v8@@@v8@@QEAAAEAV01@AEBV01@@Z=QQNT.original.dll.??4?$MemorySpan@$$CBV?$Local@VContext@v8@@@v8@@@v8@@QEAAAEAV01@AEBV01@@Z
    ??4?$MemorySpan@$$CBV?$Local@VString@v8@@@v8@@@v8@@QEAAAEAV01@$$QEAV01@@Z=QQNT.original.dll.??4?$MemorySpan@$$CBV?$Local@VString@v8@@@v8@@@v8@@QEAAAEAV01@$$QEAV01@@Z
    ??4?$MemorySpan@$$CBV?$Local@VString@v8@@@v8@@@v8@@QEAAAEAV01@AEBV01@@Z=QQNT.original.dll.??4?$MemorySpan@$$CBV?$Local@VString@v8@@@v8@@@v8@@QEAAAEAV01@AEBV01@@Z
    ??4?$MemorySpan@$$CBV?$Local@VValue@v8@@@v8@@@v8@@QEAAAEAV01@$$QEAV01@@Z=QQNT.original.dll.??4?$MemorySpan@$$CBV?$Local@VValue@v8@@@v8@@@v8@@QEAAAEAV01@$$QEAV01@@Z
    ??4?$MemorySpan@$$CBV?$Local@VValue@v8@@@v8@@@v8@@QEAAAEAV01@AEBV01@@Z=QQNT.original.dll.??4?$MemorySpan@$$CBV?$Local@VValue@v8@@@v8@@@v8@@QEAAAEAV01@AEBV01@@Z
    ??4?$MemorySpan@$$CBV?$basic_string_view@DU?$char_traits@D@__Cr@std@@@__Cr@std@@@v8@@QEAAAEAV01@$$QEAV01@@Z=QQNT.original.dll.??4?$MemorySpan@$$CBV?$basic_string_view@DU?$char_traits@D@__Cr@std@@@__Cr@std@@@v8@@QEAAAEAV01@$$QEAV01@@Z
    ??4?$MemorySpan@$$CBV?$basic_string_view@DU?$char_traits@D@__Cr@std@@@__Cr@std@@@v8@@QEAAAEAV01@AEBV01@@Z=QQNT.original.dll.??4?$MemorySpan@$$CBV?$basic_string_view@DU?$char_traits@D@__Cr@std@@@__Cr@std@@@v8@@QEAAAEAV01@AEBV01@@Z
    ??4?$MemorySpan@$$CBVCFunction@v8@@@v8@@QEAAAEAV01@$$QEAV01@@Z=QQNT.original.dll.??4?$MemorySpan@$$CBVCFunction@v8@@@v8@@QEAAAEAV01@$$QEAV01@@Z
    ??4?$MemorySpan@$$CBVCFunction@v8@@@v8@@QEAAAEAV01@AEBV01@@Z=QQNT.original.dll.??4?$MemorySpan@$$CBVCFunction@v8@@@v8@@QEAAAEAV01@AEBV01@@Z
    ??4?$MemorySpan@$$CB_K@v8@@QEAAAEAV01@$$QEAV01@@Z=QQNT.original.dll.??4?$MemorySpan@$$CB_K@v8@@QEAAAEAV01@$$QEAV01@@Z
    ??4?$MemorySpan@$$CB_K@v8@@QEAAAEAV01@AEBV01@@Z=QQNT.original.dll.??4?$MemorySpan@$$CB_K@v8@@QEAAAEAV01@AEBV01@@Z
    ??4?$MemorySpan@E@v8@@QEAAAEAV01@$$QEAV01@@Z=QQNT.original.dll.??4?$MemorySpan@E@v8@@QEAAAEAV01@$$QEAV01@@Z
    ??4?$MemorySpan@E@v8@@QEAAAEAV01@AEBV01@@Z=QQNT.original.dll.??4?$MemorySpan@E@v8@@QEAAAEAV01@AEBV01@@Z
    ??4?$MemorySpan@V?$Handle@VMap@internal@v8@@@internal@v8@@@v8@@QEAAAEAV01@$$QEAV01@@Z=QQNT.original.dll.??4?$MemorySpan@V?$Handle@VMap@internal@v8@@@internal@v8@@@v8@@QEAAAEAV01@$$QEAV01@@Z
    ??4?$MemorySpan@V?$Handle@VMap@internal@v8@@@internal@v8@@@v8@@QEAAAEAV01@AEBV01@@Z=QQNT.original.dll.??4?$MemorySpan@V?$Handle@VMap@internal@v8@@@internal@v8@@@v8@@QEAAAEAV01@AEBV01@@Z
    ??4?$MemorySpan@V?$Handle@VObject@internal@v8@@@internal@v8@@@v8@@QEAAAEAV01@$$QEAV01@@Z=QQNT.original.dll.??4?$MemorySpan@V?$Handle@VObject@internal@v8@@@internal@v8@@@v8@@QEAAAEAV01@$$QEAV01@@Z
    ??4?$MemorySpan@V?$Handle@VObject@internal@v8@@@internal@v8@@@v8@@QEAAAEAV01@AEBV01@@Z=QQNT.original.dll.??4?$MemorySpan@V?$Handle@VObject@internal@v8@@@internal@v8@@@v8@@QEAAAEAV01@AEBV01@@Z
    ??4?$MemorySpan@V?$MaybeLocal@VValue@v8@@@v8@@@v8@@QEAAAEAV01@$$QEAV01@@Z=QQNT.original.dll.??4?$MemorySpan@V?$MaybeLocal@VValue@v8@@@v8@@@v8@@QEAAAEAV01@$$QEAV01@@Z
    ??4?$MemorySpan@V?$MaybeLocal@VValue@v8@@@v8@@@v8@@QEAAAEAV01@AEBV01@@Z=QQNT.original.dll.??4?$MemorySpan@V?$MaybeLocal@VValue@v8@@@v8@@@v8@@QEAAAEAV01@AEBV01@@Z
    ??4?$MemorySpan@_K@v8@@QEAAAEAV01@$$QEAV01@@Z=QQNT.original.dll.??4?$MemorySpan@_K@v8@@QEAAAEAV01@$$QEAV01@@Z
    ??4?$MemorySpan@_K@v8@@QEAAAEAV01@AEBV01@@Z=QQNT.original.dll.??4?$MemorySpan@_K@v8@@QEAAAEAV01@AEBV01@@Z
    ??4?$vector@UCpuProfileDeoptFrame@v8@@V?$allocator@UCpuProfileDeoptFrame@v8@@@__Cr@std@@@__Cr@std@@QEAAAEAV012@$$QEAV012@@Z=QQNT.original.dll.??4?$vector@UCpuProfileDeoptFrame@v8@@V?$allocator@UCpuProfileDeoptFrame@v8@@@__Cr@std@@@__Cr@std@@QEAAAEAV012@$$QEAV012@@Z
    ??4?$vector@UCpuProfileDeoptFrame@v8@@V?$allocator@UCpuProfileDeoptFrame@v8@@@__Cr@std@@@__Cr@std@@QEAAAEAV012@AEBV012@@Z=QQNT.original.dll.??4?$vector@UCpuProfileDeoptFrame@v8@@V?$allocator@UCpuProfileDeoptFrame@v8@@@__Cr@std@@@__Cr@std@@QEAAAEAV012@AEBV012@@Z
    ??4?$vector@UCpuProfileDeoptFrame@v8@@V?$allocator@UCpuProfileDeoptFrame@v8@@@__Cr@std@@@__Cr@std@@QEAAAEAV012@V?$initializer_list@UCpuProfileDeoptFrame@v8@@@2@@Z=QQNT.original.dll.??4?$vector@UCpuProfileDeoptFrame@v8@@V?$allocator@UCpuProfileDeoptFrame@v8@@@__Cr@std@@@__Cr@std@@QEAAAEAV012@V?$initializer_list@UCpuProfileDeoptFrame@v8@@@2@@Z
    ??4?$vector@UCpuProfileDeoptInfo@v8@@V?$allocator@UCpuProfileDeoptInfo@v8@@@__Cr@std@@@__Cr@std@@QEAAAEAV012@$$QEAV012@@Z=QQNT.original.dll.??4?$vector@UCpuProfileDeoptInfo@v8@@V?$allocator@UCpuProfileDeoptInfo@v8@@@__Cr@std@@@__Cr@std@@QEAAAEAV012@$$QEAV012@@Z
    ??4?$vector@UCpuProfileDeoptInfo@v8@@V?$allocator@UCpuProfileDeoptInfo@v8@@@__Cr@std@@@__Cr@std@@QEAAAEAV012@AEBV012@@Z=QQNT.original.dll.??4?$vector@UCpuProfileDeoptInfo@v8@@V?$allocator@UCpuProfileDeoptInfo@v8@@@__Cr@std@@@__Cr@std@@QEAAAEAV012@AEBV012@@Z
    ??4?$vector@UCpuProfileDeoptInfo@v8@@V?$allocator@UCpuProfileDeoptInfo@v8@@@__Cr@std@@@__Cr@std@@QEAAAEAV012@V?$initializer_list@UCpuProfileDeoptInfo@v8@@@2@@Z=QQNT.original.dll.??4?$vector@UCpuProfileDeoptInfo@v8@@V?$allocator@UCpuProfileDeoptInfo@v8@@@__Cr@std@@@__Cr@std@@QEAAAEAV012@V?$initializer_list@UCpuProfileDeoptInfo@v8@@@2@@Z
    ??4ActivityControl@v8@@QEAAAEAV01@AEBV01@@Z=QQNT.original.dll.??4ActivityControl@v8@@QEAAAEAV01@AEBV01@@Z
    ??4AgeTable@internal@cppgc@@QEAAAEAV012@$$QEAV012@@Z=QQNT.original.dll.??4AgeTable@internal@cppgc@@QEAAAEAV012@$$QEAV012@@Z
    ??4AgeTable@internal@cppgc@@QEAAAEAV012@AEBV012@@Z=QQNT.original.dll.??4AgeTable@internal@cppgc@@QEAAAEAV012@AEBV012@@Z
    ??4AllocationHandle@cppgc@@QEAAAEAV01@$$QEAV01@@Z=QQNT.original.dll.??4AllocationHandle@cppgc@@QEAAAEAV01@$$QEAV01@@Z
    ??4AllocationHandle@cppgc@@QEAAAEAV01@AEBV01@@Z=QQNT.original.dll.??4AllocationHandle@cppgc@@QEAAAEAV01@AEBV01@@Z
    ??4AllocationProfile@v8@@QEAAAEAV01@AEBV01@@Z=QQNT.original.dll.??4AllocationProfile@v8@@QEAAAEAV01@AEBV01@@Z
    ??4Allocator@ArrayBuffer@v8@@QEAAAEAV012@AEBV012@@Z=QQNT.original.dll.??4Allocator@ArrayBuffer@v8@@QEAAAEAV012@AEBV012@@Z
    ??4Array@v8@@QEAAAEAV01@$$QEAV01@@Z=QQNT.original.dll.??4Array@v8@@QEAAAEAV01@$$QEAV01@@Z
    ??4Array@v8@@QEAAAEAV01@AEBV01@@Z=QQNT.original.dll.??4Array@v8@@QEAAAEAV01@AEBV01@@Z
    ??4ArrayBuffer@v8@@QEAAAEAV01@$$QEAV01@@Z=QQNT.original.dll.??4ArrayBuffer@v8@@QEAAAEAV01@$$QEAV01@@Z
    ??4ArrayBuffer@v8@@QEAAAEAV01@AEBV01@@Z=QQNT.original.dll.??4ArrayBuffer@v8@@QEAAAEAV01@AEBV01@@Z
    ??4ArrayBufferAllocator@node@@QEAAAEAV01@$$QEAV01@@Z=QQNT.original.dll.??4ArrayBufferAllocator@node@@QEAAAEAV01@$$QEAV01@@Z
    ??4ArrayBufferAllocator@node@@QEAAAEAV01@AEBV01@@Z=QQNT.original.dll.??4ArrayBufferAllocator@node@@QEAAAEAV01@AEBV01@@Z
    ??4ArrayBufferView@v8@@QEAAAEAV01@$$QEAV01@@Z=QQNT.original.dll.??4ArrayBufferView@v8@@QEAAAEAV01@$$QEAV01@@Z
    ??4ArrayBufferView@v8@@QEAAAEAV01@AEBV01@@Z=QQNT.original.dll.??4ArrayBufferView@v8@@QEAAAEAV01@AEBV01@@Z
    ??4AtomicsWaitWakeHandle@Isolate@v8@@QEAAAEAV012@$$QEAV012@@Z=QQNT.original.dll.??4AtomicsWaitWakeHandle@Isolate@v8@@QEAAAEAV012@$$QEAV012@@Z
    ??4AtomicsWaitWakeHandle@Isolate@v8@@QEAAAEAV012@AEBV012@@Z=QQNT.original.dll.??4AtomicsWaitWakeHandle@Isolate@v8@@QEAAAEAV012@AEBV012@@Z
    ??4BackingStore@v8@@QEAAAEAV01@AEBV01@@Z=QQNT.original.dll.??4BackingStore@v8@@QEAAAEAV01@AEBV01@@Z
    ??4BackupIncumbentScope@Context@v8@@QEAAAEAV012@AEBV012@@Z=QQNT.original.dll.??4BackupIncumbentScope@Context@v8@@QEAAAEAV012@AEBV012@@Z
    ??4BaseObjectSizeTrait@internal@cppgc@@QEAAAEAU012@$$QEAU012@@Z=QQNT.original.dll.??4BaseObjectSizeTrait@internal@cppgc@@QEAAAEAU012@$$QEAU012@@Z
    ??4BaseObjectSizeTrait@internal@cppgc@@QEAAAEAU012@AEBU012@@Z=QQNT.original.dll.??4BaseObjectSizeTrait@internal@cppgc@@QEAAAEAU012@AEBU012@@Z
    ??4BigInt64Array@v8@@QEAAAEAV01@$$QEAV01@@Z=QQNT.original.dll.??4BigInt64Array@v8@@QEAAAEAV01@$$QEAV01@@Z
    ??4BigInt64Array@v8@@QEAAAEAV01@AEBV01@@Z=QQNT.original.dll.??4BigInt64Array@v8@@QEAAAEAV01@AEBV01@@Z
    ??4BigInt@v8@@QEAAAEAV01@$$QEAV01@@Z=QQNT.original.dll.??4BigInt@v8@@QEAAAEAV01@$$QEAV01@@Z
    ??4BigInt@v8@@QEAAAEAV01@AEBV01@@Z=QQNT.original.dll.??4BigInt@v8@@QEAAAEAV01@AEBV01@@Z
    ??4BigIntObject@v8@@QEAAAEAV01@$$QEAV01@@Z=QQNT.original.dll.??4BigIntObject@v8@@QEAAAEAV01@$$QEAV01@@Z
    ??4BigIntObject@v8@@QEAAAEAV01@AEBV01@@Z=QQNT.original.dll.??4BigIntObject@v8@@QEAAAEAV01@AEBV01@@Z
    ??4BigUint64Array@v8@@QEAAAEAV01@$$QEAV01@@Z=QQNT.original.dll.??4BigUint64Array@v8@@QEAAAEAV01@$$QEAV01@@Z
    ??4BigUint64Array@v8@@QEAAAEAV01@AEBV01@@Z=QQNT.original.dll.??4BigUint64Array@v8@@QEAAAEAV01@AEBV01@@Z
    ??4Binary@protocol@v8_inspector@@QEAAAEAV012@$$QEAV012@@Z=QQNT.original.dll.??4Binary@protocol@v8_inspector@@QEAAAEAV012@$$QEAV012@@Z
    ??4Binary@protocol@v8_inspector@@QEAAAEAV012@AEBV012@@Z=QQNT.original.dll.??4Binary@protocol@v8_inspector@@QEAAAEAV012@AEBV012@@Z
    ??4Boolean@v8@@QEAAAEAV01@$$QEAV01@@Z=QQNT.original.dll.??4Boolean@v8@@QEAAAEAV01@$$QEAV01@@Z
    ??4Boolean@v8@@QEAAAEAV01@AEBV01@@Z=QQNT.original.dll.??4Boolean@v8@@QEAAAEAV01@AEBV01@@Z
    ??4BooleanObject@v8@@QEAAAEAV01@$$QEAV01@@Z=QQNT.original.dll.??4BooleanObject@v8@@QEAAAEAV01@$$QEAV01@@Z
    ??4BooleanObject@v8@@QEAAAEAV01@AEBV01@@Z=QQNT.original.dll.??4BooleanObject@v8@@QEAAAEAV01@AEBV01@@Z
    ??4CFunction@v8@@QEAAAEAV01@$$QEAV01@@Z=QQNT.original.dll.??4CFunction@v8@@QEAAAEAV01@$$QEAV01@@Z
    ??4CFunction@v8@@QEAAAEAV01@AEBV01@@Z=QQNT.original.dll.??4CFunction@v8@@QEAAAEAV01@AEBV01@@Z
    ??4CageBaseGlobal@internal@cppgc@@QEAAAEAV012@$$QEAV012@@Z=QQNT.original.dll.??4CageBaseGlobal@internal@cppgc@@QEAAAEAV012@$$QEAV012@@Z
    ??4CageBaseGlobal@internal@cppgc@@QEAAAEAV012@AEBV012@@Z=QQNT.original.dll.??4CageBaseGlobal@internal@cppgc@@QEAAAEAV012@AEBV012@@Z
    ??4CagedHeapBase@internal@cppgc@@QEAAAEAV012@$$QEAV012@@Z=QQNT.original.dll.??4CagedHeapBase@internal@cppgc@@QEAAAEAV012@$$QEAV012@@Z
    ??4CagedHeapBase@internal@cppgc@@QEAAAEAV012@AEBV012@@Z=QQNT.original.dll.??4CagedHeapBase@internal@cppgc@@QEAAAEAV012@AEBV012@@Z
    ??4Channel@V8Inspector@v8_inspector@@QEAAAEAV012@AEBV012@@Z=QQNT.original.dll.??4Channel@V8Inspector@v8_inspector@@QEAAAEAV012@AEBV012@@Z
    ??4CodeEvent@v8@@QEAAAEAV01@$$QEAV01@@Z=QQNT.original.dll.??4CodeEvent@v8@@QEAAAEAV01@$$QEAV01@@Z
    ??4CodeEvent@v8@@QEAAAEAV01@AEBV01@@Z=QQNT.original.dll.??4CodeEvent@v8@@QEAAAEAV01@AEBV01@@Z
    ??4CompileHintsCollector@v8@@QEAAAEAV01@$$QEAV01@@Z=QQNT.original.dll.??4CompileHintsCollector@v8@@QEAAAEAV01@$$QEAV01@@Z
    ??4CompileHintsCollector@v8@@QEAAAEAV01@AEBV01@@Z=QQNT.original.dll.??4CompileHintsCollector@v8@@QEAAAEAV01@AEBV01@@Z
    ??4Context@v8@@QEAAAEAV01@$$QEAV01@@Z=QQNT.original.dll.??4Context@v8@@QEAAAEAV01@$$QEAV01@@Z
    ??4Context@v8@@QEAAAEAV01@AEBV01@@Z=QQNT.original.dll.??4Context@v8@@QEAAAEAV01@AEBV01@@Z
    ??4CppHeap@v8@@QEAAAEAV01@AEBV01@@Z=QQNT.original.dll.??4CppHeap@v8@@QEAAAEAV01@AEBV01@@Z
    ??4CpuProfile@v8@@QEAAAEAV01@$$QEAV01@@Z=QQNT.original.dll.??4CpuProfile@v8@@QEAAAEAV01@$$QEAV01@@Z
    ??4CpuProfile@v8@@QEAAAEAV01@AEBV01@@Z=QQNT.original.dll.??4CpuProfile@v8@@QEAAAEAV01@AEBV01@@Z
    ??4CpuProfileDeoptInfo@v8@@QEAAAEAU01@$$QEAU01@@Z=QQNT.original.dll.??4CpuProfileDeoptInfo@v8@@QEAAAEAU01@$$QEAU01@@Z
    ??4CpuProfileDeoptInfo@v8@@QEAAAEAU01@AEBU01@@Z=QQNT.original.dll.??4CpuProfileDeoptInfo@v8@@QEAAAEAU01@AEBU01@@Z
    ??4CpuProfileNode@v8@@QEAAAEAV01@$$QEAV01@@Z=QQNT.original.dll.??4CpuProfileNode@v8@@QEAAAEAV01@$$QEAV01@@Z
    ??4CpuProfileNode@v8@@QEAAAEAV01@AEBV01@@Z=QQNT.original.dll.??4CpuProfileNode@v8@@QEAAAEAV01@AEBV01@@Z
    ??4CpuProfilingOptions@v8@@QEAAAEAV01@$$QEAV01@@Z=QQNT.original.dll.??4CpuProfilingOptions@v8@@QEAAAEAV01@$$QEAV01@@Z
    ??4CreateParams@Isolate@v8@@QEAAAEAU012@$$QEAU012@@Z=QQNT.original.dll.??4CreateParams@Isolate@v8@@QEAAAEAU012@$$QEAU012@@Z
    ??4CreateParams@Isolate@v8@@QEAAAEAU012@AEBU012@@Z=QQNT.original.dll.??4CreateParams@Isolate@v8@@QEAAAEAU012@AEBU012@@Z
    ??4Data@v8@@QEAAAEAV01@$$QEAV01@@Z=QQNT.original.dll.??4Data@v8@@QEAAAEAV01@$$QEAV01@@Z
    ??4Data@v8@@QEAAAEAV01@AEBV01@@Z=QQNT.original.dll.??4Data@v8@@QEAAAEAV01@AEBV01@@Z
    ??4DataView@v8@@QEAAAEAV01@$$QEAV01@@Z=QQNT.original.dll.??4DataView@v8@@QEAAAEAV01@$$QEAV01@@Z
    ??4DataView@v8@@QEAAAEAV01@AEBV01@@Z=QQNT.original.dll.??4DataView@v8@@QEAAAEAV01@AEBV01@@Z
    ??4Date@v8@@QEAAAEAV01@$$QEAV01@@Z=QQNT.original.dll.??4Date@v8@@QEAAAEAV01@$$QEAV01@@Z
    ??4Date@v8@@QEAAAEAV01@AEBV01@@Z=QQNT.original.dll.??4Date@v8@@QEAAAEAV01@AEBV01@@Z
    ??4DeepSerializationResult@v8_inspector@@QEAAAEAU01@$$QEAU01@@Z=QQNT.original.dll.??4DeepSerializationResult@v8_inspector@@QEAAAEAU01@$$QEAU01@@Z
    ??4DeepSerializedValue@v8_inspector@@QEAAAEAU01@$$QEAU01@@Z=QQNT.original.dll.??4DeepSerializedValue@v8_inspector@@QEAAAEAU01@$$QEAU01@@Z
    ??4Delegate@ValueDeserializer@v8@@QEAAAEAV012@AEBV012@@Z=QQNT.original.dll.??4Delegate@ValueDeserializer@v8@@QEAAAEAV012@AEBV012@@Z
    ??4Delegate@ValueSerializer@v8@@QEAAAEAV012@AEBV012@@Z=QQNT.original.dll.??4Delegate@ValueSerializer@v8@@QEAAAEAV012@AEBV012@@Z
    ??4DeleteACHHandle@node@@QEAAAEAU01@$$QEAU01@@Z=QQNT.original.dll.??4DeleteACHHandle@node@@QEAAAEAU01@$$QEAU01@@Z
    ??4DeleteACHHandle@node@@QEAAAEAU01@AEBU01@@Z=QQNT.original.dll.??4DeleteACHHandle@node@@QEAAAEAU01@AEBU01@@Z
    ??4DictionaryTemplate@v8@@QEAAAEAV01@$$QEAV01@@Z=QQNT.original.dll.??4DictionaryTemplate@v8@@QEAAAEAV01@$$QEAV01@@Z
    ??4DictionaryTemplate@v8@@QEAAAEAV01@AEBV01@@Z=QQNT.original.dll.??4DictionaryTemplate@v8@@QEAAAEAV01@AEBV01@@Z
    ??4DiscardedSamplesDelegate@v8@@QEAAAEAV01@AEBV01@@Z=QQNT.original.dll.??4DiscardedSamplesDelegate@v8@@QEAAAEAV01@AEBV01@@Z
    ??4Domain@API@Schema@protocol@v8_inspector@@QEAAAEAV01234@$$QEAV01234@@Z=QQNT.original.dll.??4Domain@API@Schema@protocol@v8_inspector@@QEAAAEAV01234@$$QEAV01234@@Z
    ??4Domain@API@Schema@protocol@v8_inspector@@QEAAAEAV01234@AEBV01234@@Z=QQNT.original.dll.??4Domain@API@Schema@protocol@v8_inspector@@QEAAAEAV01234@AEBV01234@@Z
    ??4EmbedderGraph@v8@@QEAAAEAV01@AEBV01@@Z=QQNT.original.dll.??4EmbedderGraph@v8@@QEAAAEAV01@AEBV01@@Z
    ??4EmbedderRootsHandler@v8@@QEAAAEAV01@AEBV01@@Z=QQNT.original.dll.??4EmbedderRootsHandler@v8@@QEAAAEAV01@AEBV01@@Z
    ??4EnsureGCInfoIndexTrait@internal@cppgc@@QEAAAEAU012@$$QEAU012@@Z=QQNT.original.dll.??4EnsureGCInfoIndexTrait@internal@cppgc@@QEAAAEAU012@$$QEAU012@@Z
    ??4EnsureGCInfoIndexTrait@internal@cppgc@@QEAAAEAU012@AEBU012@@Z=QQNT.original.dll.??4EnsureGCInfoIndexTrait@internal@cppgc@@QEAAAEAU012@AEBU012@@Z
    ??4EvaluateResult@V8InspectorSession@v8_inspector@@QEAAAEAU012@$$QEAU012@@Z=QQNT.original.dll.??4EvaluateResult@V8InspectorSession@v8_inspector@@QEAAAEAU012@$$QEAU012@@Z
    ??4EvaluateResult@V8InspectorSession@v8_inspector@@QEAAAEAU012@AEBU012@@Z=QQNT.original.dll.??4EvaluateResult@V8InspectorSession@v8_inspector@@QEAAAEAU012@AEBU012@@Z
    ??4Exception@v8@@QEAAAEAV01@$$QEAV01@@Z=QQNT.original.dll.??4Exception@v8@@QEAAAEAV01@$$QEAV01@@Z
    ??4Exception@v8@@QEAAAEAV01@AEBV01@@Z=QQNT.original.dll.??4Exception@v8@@QEAAAEAV01@AEBV01@@Z
    ??4Exported@protocol@v8_inspector@@QEAAAEAV012@AEBV012@@Z=QQNT.original.dll.??4Exported@protocol@v8_inspector@@QEAAAEAV012@AEBV012@@Z
    ??4External@v8@@QEAAAEAV01@$$QEAV01@@Z=QQNT.original.dll.??4External@v8@@QEAAAEAV01@$$QEAV01@@Z
    ??4External@v8@@QEAAAEAV01@AEBV01@@Z=QQNT.original.dll.??4External@v8@@QEAAAEAV01@AEBV01@@Z
    ??4ExternalResourceVisitor@v8@@QEAAAEAV01@AEBV01@@Z=QQNT.original.dll.??4ExternalResourceVisitor@v8@@QEAAAEAV01@AEBV01@@Z
    ??4ExternalSourceStream@ScriptCompiler@v8@@QEAAAEAV012@AEBV012@@Z=QQNT.original.dll.??4ExternalSourceStream@ScriptCompiler@v8@@QEAAAEAV012@AEBV012@@Z
    ??4FixedArray@v8@@QEAAAEAV01@$$QEAV01@@Z=QQNT.original.dll.??4FixedArray@v8@@QEAAAEAV01@$$QEAV01@@Z
    ??4FixedArray@v8@@QEAAAEAV01@AEBV01@@Z=QQNT.original.dll.??4FixedArray@v8@@QEAAAEAV01@AEBV01@@Z
    ??4Float16Array@v8@@QEAAAEAV01@$$QEAV01@@Z=QQNT.original.dll.??4Float16Array@v8@@QEAAAEAV01@$$QEAV01@@Z
    ??4Float16Array@v8@@QEAAAEAV01@AEBV01@@Z=QQNT.original.dll.??4Float16Array@v8@@QEAAAEAV01@AEBV01@@Z
    ??4Float32Array@v8@@QEAAAEAV01@$$QEAV01@@Z=QQNT.original.dll.??4Float32Array@v8@@QEAAAEAV01@$$QEAV01@@Z
    ??4Float32Array@v8@@QEAAAEAV01@AEBV01@@Z=QQNT.original.dll.??4Float32Array@v8@@QEAAAEAV01@AEBV01@@Z
    ??4Float64Array@v8@@QEAAAEAV01@$$QEAV01@@Z=QQNT.original.dll.??4Float64Array@v8@@QEAAAEAV01@$$QEAV01@@Z
    ??4Float64Array@v8@@QEAAAEAV01@AEBV01@@Z=QQNT.original.dll.??4Float64Array@v8@@QEAAAEAV01@AEBV01@@Z
    ??4Function@v8@@QEAAAEAV01@$$QEAV01@@Z=QQNT.original.dll.??4Function@v8@@QEAAAEAV01@$$QEAV01@@Z
    ??4Function@v8@@QEAAAEAV01@AEBV01@@Z=QQNT.original.dll.??4Function@v8@@QEAAAEAV01@AEBV01@@Z
    ??4FunctionTemplate@v8@@QEAAAEAV01@$$QEAV01@@Z=QQNT.original.dll.??4FunctionTemplate@v8@@QEAAAEAV01@$$QEAV01@@Z
    ??4FunctionTemplate@v8@@QEAAAEAV01@AEBV01@@Z=QQNT.original.dll.??4FunctionTemplate@v8@@QEAAAEAV01@AEBV01@@Z
    ??4Heap@cppgc@@QEAAAEAV01@AEBV01@@Z=QQNT.original.dll.??4Heap@cppgc@@QEAAAEAV01@AEBV01@@Z
    ??4HeapCodeStatistics@v8@@QEAAAEAV01@$$QEAV01@@Z=QQNT.original.dll.??4HeapCodeStatistics@v8@@QEAAAEAV01@$$QEAV01@@Z
    ??4HeapCodeStatistics@v8@@QEAAAEAV01@AEBV01@@Z=QQNT.original.dll.??4HeapCodeStatistics@v8@@QEAAAEAV01@AEBV01@@Z
    ??4HeapGraphEdge@v8@@QEAAAEAV01@$$QEAV01@@Z=QQNT.original.dll.??4HeapGraphEdge@v8@@QEAAAEAV01@$$QEAV01@@Z
    ??4HeapGraphEdge@v8@@QEAAAEAV01@AEBV01@@Z=QQNT.original.dll.??4HeapGraphEdge@v8@@QEAAAEAV01@AEBV01@@Z
    ??4HeapGraphNode@v8@@QEAAAEAV01@$$QEAV01@@Z=QQNT.original.dll.??4HeapGraphNode@v8@@QEAAAEAV01@$$QEAV01@@Z
    ??4HeapGraphNode@v8@@QEAAAEAV01@AEBV01@@Z=QQNT.original.dll.??4HeapGraphNode@v8@@QEAAAEAV01@AEBV01@@Z
    ??4HeapObjectStatistics@v8@@QEAAAEAV01@$$QEAV01@@Z=QQNT.original.dll.??4HeapObjectStatistics@v8@@QEAAAEAV01@$$QEAV01@@Z
    ??4HeapObjectStatistics@v8@@QEAAAEAV01@AEBV01@@Z=QQNT.original.dll.??4HeapObjectStatistics@v8@@QEAAAEAV01@AEBV01@@Z
    ??4HeapSnapshot@v8@@QEAAAEAV01@$$QEAV01@@Z=QQNT.original.dll.??4HeapSnapshot@v8@@QEAAAEAV01@$$QEAV01@@Z
    ??4HeapSnapshot@v8@@QEAAAEAV01@AEBV01@@Z=QQNT.original.dll.??4HeapSnapshot@v8@@QEAAAEAV01@AEBV01@@Z
    ??4HeapSpaceStatistics@v8@@QEAAAEAV01@$$QEAV01@@Z=QQNT.original.dll.??4HeapSpaceStatistics@v8@@QEAAAEAV01@$$QEAV01@@Z
    ??4HeapSpaceStatistics@v8@@QEAAAEAV01@AEBV01@@Z=QQNT.original.dll.??4HeapSpaceStatistics@v8@@QEAAAEAV01@AEBV01@@Z
    ??4HeapState@subtle@cppgc@@QEAAAEAV012@$$QEAV012@@Z=QQNT.original.dll.??4HeapState@subtle@cppgc@@QEAAAEAV012@$$QEAV012@@Z
    ??4HeapState@subtle@cppgc@@QEAAAEAV012@AEBV012@@Z=QQNT.original.dll.??4HeapState@subtle@cppgc@@QEAAAEAV012@AEBV012@@Z
    ??4HeapStatistics@v8@@QEAAAEAV01@$$QEAV01@@Z=QQNT.original.dll.??4HeapStatistics@v8@@QEAAAEAV01@$$QEAV01@@Z
    ??4HeapStatistics@v8@@QEAAAEAV01@AEBV01@@Z=QQNT.original.dll.??4HeapStatistics@v8@@QEAAAEAV01@AEBV01@@Z
    ??4InitializationResult@node@@QEAAAEAV01@AEBV01@@Z=QQNT.original.dll.??4InitializationResult@node@@QEAAAEAV01@AEBV01@@Z
    ??4Inspectable@V8InspectorSession@v8_inspector@@QEAAAEAV012@AEBV012@@Z=QQNT.original.dll.??4Inspectable@V8InspectorSession@v8_inspector@@QEAAAEAV012@AEBV012@@Z
    ??4Int16Array@v8@@QEAAAEAV01@$$QEAV01@@Z=QQNT.original.dll.??4Int16Array@v8@@QEAAAEAV01@$$QEAV01@@Z
    ??4Int16Array@v8@@QEAAAEAV01@AEBV01@@Z=QQNT.original.dll.??4Int16Array@v8@@QEAAAEAV01@AEBV01@@Z
    ??4Int32@v8@@QEAAAEAV01@$$QEAV01@@Z=QQNT.original.dll.??4Int32@v8@@QEAAAEAV01@$$QEAV01@@Z
    ??4Int32@v8@@QEAAAEAV01@AEBV01@@Z=QQNT.original.dll.??4Int32@v8@@QEAAAEAV01@AEBV01@@Z
    ??4Int32Array@v8@@QEAAAEAV01@$$QEAV01@@Z=QQNT.original.dll.??4Int32Array@v8@@QEAAAEAV01@$$QEAV01@@Z
    ??4Int32Array@v8@@QEAAAEAV01@AEBV01@@Z=QQNT.original.dll.??4Int32Array@v8@@QEAAAEAV01@AEBV01@@Z
    ??4Int8Array@v8@@QEAAAEAV01@$$QEAV01@@Z=QQNT.original.dll.??4Int8Array@v8@@QEAAAEAV01@$$QEAV01@@Z
    ??4Int8Array@v8@@QEAAAEAV01@AEBV01@@Z=QQNT.original.dll.??4Int8Array@v8@@QEAAAEAV01@AEBV01@@Z
    ??4Integer@v8@@QEAAAEAV01@$$QEAV01@@Z=QQNT.original.dll.??4Integer@v8@@QEAAAEAV01@$$QEAV01@@Z
    ??4Integer@v8@@QEAAAEAV01@AEBV01@@Z=QQNT.original.dll.??4Integer@v8@@QEAAAEAV01@AEBV01@@Z
    ??4IsolatePlatformDelegate@node@@QEAAAEAV01@$$QEAV01@@Z=QQNT.original.dll.??4IsolatePlatformDelegate@node@@QEAAAEAV01@$$QEAV01@@Z
    ??4IsolatePlatformDelegate@node@@QEAAAEAV01@AEBV01@@Z=QQNT.original.dll.??4IsolatePlatformDelegate@node@@QEAAAEAV01@AEBV01@@Z
    ??4JSON@v8@@QEAAAEAV01@$$QEAV01@@Z=QQNT.original.dll.??4JSON@v8@@QEAAAEAV01@$$QEAV01@@Z
    ??4JSON@v8@@QEAAAEAV01@AEBV01@@Z=QQNT.original.dll.??4JSON@v8@@QEAAAEAV01@AEBV01@@Z
    ??4LivenessBroker@cppgc@@QEAAAEAV01@$$QEAV01@@Z=QQNT.original.dll.??4LivenessBroker@cppgc@@QEAAAEAV01@$$QEAV01@@Z
    ??4LivenessBroker@cppgc@@QEAAAEAV01@AEBV01@@Z=QQNT.original.dll.??4LivenessBroker@cppgc@@QEAAAEAV01@AEBV01@@Z
    ??4Location@v8@@QEAAAEAV01@$$QEAV01@@Z=QQNT.original.dll.??4Location@v8@@QEAAAEAV01@$$QEAV01@@Z
    ??4Location@v8@@QEAAAEAV01@AEBV01@@Z=QQNT.original.dll.??4Location@v8@@QEAAAEAV01@AEBV01@@Z
    ??4LongTaskStats@metrics@v8@@QEAAAEAU012@$$QEAU012@@Z=QQNT.original.dll.??4LongTaskStats@metrics@v8@@QEAAAEAU012@$$QEAU012@@Z
    ??4LongTaskStats@metrics@v8@@QEAAAEAU012@AEBU012@@Z=QQNT.original.dll.??4LongTaskStats@metrics@v8@@QEAAAEAU012@AEBU012@@Z
    ??4Map@v8@@QEAAAEAV01@$$QEAV01@@Z=QQNT.original.dll.??4Map@v8@@QEAAAEAV01@$$QEAV01@@Z
    ??4Map@v8@@QEAAAEAV01@AEBV01@@Z=QQNT.original.dll.??4Map@v8@@QEAAAEAV01@AEBV01@@Z
    ??4MeasureMemoryDelegate@v8@@QEAAAEAV01@AEBV01@@Z=QQNT.original.dll.??4MeasureMemoryDelegate@v8@@QEAAAEAV01@AEBV01@@Z
    ??4Message@v8@@QEAAAEAV01@$$QEAV01@@Z=QQNT.original.dll.??4Message@v8@@QEAAAEAV01@$$QEAV01@@Z
    ??4Message@v8@@QEAAAEAV01@AEBV01@@Z=QQNT.original.dll.??4Message@v8@@QEAAAEAV01@AEBV01@@Z
    ??4Module@v8@@QEAAAEAV01@$$QEAV01@@Z=QQNT.original.dll.??4Module@v8@@QEAAAEAV01@$$QEAV01@@Z
    ??4Module@v8@@QEAAAEAV01@AEBV01@@Z=QQNT.original.dll.??4Module@v8@@QEAAAEAV01@AEBV01@@Z
    ??4ModuleRequest@v8@@QEAAAEAV01@$$QEAV01@@Z=QQNT.original.dll.??4ModuleRequest@v8@@QEAAAEAV01@$$QEAV01@@Z
    ??4ModuleRequest@v8@@QEAAAEAV01@AEBV01@@Z=QQNT.original.dll.??4ModuleRequest@v8@@QEAAAEAV01@AEBV01@@Z
    ??4MultiIsolatePlatform@node@@QEAAAEAV01@AEBV01@@Z=QQNT.original.dll.??4MultiIsolatePlatform@node@@QEAAAEAV01@AEBV01@@Z
    ??4Name@v8@@QEAAAEAV01@$$QEAV01@@Z=QQNT.original.dll.??4Name@v8@@QEAAAEAV01@$$QEAV01@@Z
    ??4Name@v8@@QEAAAEAV01@AEBV01@@Z=QQNT.original.dll.??4Name@v8@@QEAAAEAV01@AEBV01@@Z
    ??4NameProvider@cppgc@@QEAAAEAV01@AEBV01@@Z=QQNT.original.dll.??4NameProvider@cppgc@@QEAAAEAV01@AEBV01@@Z
    ??4NameTraitBase@internal@cppgc@@QEAAAEAV012@$$QEAV012@@Z=QQNT.original.dll.??4NameTraitBase@internal@cppgc@@QEAAAEAV012@$$QEAV012@@Z
    ??4NameTraitBase@internal@cppgc@@QEAAAEAV012@AEBV012@@Z=QQNT.original.dll.??4NameTraitBase@internal@cppgc@@QEAAAEAV012@AEBV012@@Z
    ??4Number@v8@@QEAAAEAV01@$$QEAV01@@Z=QQNT.original.dll.??4Number@v8@@QEAAAEAV01@$$QEAV01@@Z
    ??4Number@v8@@QEAAAEAV01@AEBV01@@Z=QQNT.original.dll.??4Number@v8@@QEAAAEAV01@AEBV01@@Z
    ??4NumberObject@v8@@QEAAAEAV01@$$QEAV01@@Z=QQNT.original.dll.??4NumberObject@v8@@QEAAAEAV01@$$QEAV01@@Z
    ??4NumberObject@v8@@QEAAAEAV01@AEBV01@@Z=QQNT.original.dll.??4NumberObject@v8@@QEAAAEAV01@AEBV01@@Z
    ??4Numeric@v8@@QEAAAEAV01@$$QEAV01@@Z=QQNT.original.dll.??4Numeric@v8@@QEAAAEAV01@$$QEAV01@@Z
    ??4Numeric@v8@@QEAAAEAV01@AEBV01@@Z=QQNT.original.dll.??4Numeric@v8@@QEAAAEAV01@AEBV01@@Z
    ??4Object@v8@@QEAAAEAV01@$$QEAV01@@Z=QQNT.original.dll.??4Object@v8@@QEAAAEAV01@$$QEAV01@@Z
    ??4Object@v8@@QEAAAEAV01@AEBV01@@Z=QQNT.original.dll.??4Object@v8@@QEAAAEAV01@AEBV01@@Z
    ??4ObjectTemplate@v8@@QEAAAEAV01@$$QEAV01@@Z=QQNT.original.dll.??4ObjectTemplate@v8@@QEAAAEAV01@$$QEAV01@@Z
    ??4ObjectTemplate@v8@@QEAAAEAV01@AEBV01@@Z=QQNT.original.dll.??4ObjectTemplate@v8@@QEAAAEAV01@AEBV01@@Z
    ??4OutputStream@v8@@QEAAAEAV01@AEBV01@@Z=QQNT.original.dll.??4OutputStream@v8@@QEAAAEAV01@AEBV01@@Z
    ??4PersistentHandleVisitor@v8@@QEAAAEAV01@AEBV01@@Z=QQNT.original.dll.??4PersistentHandleVisitor@v8@@QEAAAEAV01@AEBV01@@Z
    ??4PersistentRegionLock@internal@cppgc@@QEAAAEAV012@AEBV012@@Z=QQNT.original.dll.??4PersistentRegionLock@internal@cppgc@@QEAAAEAV012@AEBV012@@Z
    ??4Platform@cppgc@@QEAAAEAV01@AEBV01@@Z=QQNT.original.dll.??4Platform@cppgc@@QEAAAEAV01@AEBV01@@Z
    ??4PrefinalizerRegistration@internal@cppgc@@QEAAAEAV012@$$QEAV012@@Z=QQNT.original.dll.??4PrefinalizerRegistration@internal@cppgc@@QEAAAEAV012@$$QEAV012@@Z
    ??4PrefinalizerRegistration@internal@cppgc@@QEAAAEAV012@AEBV012@@Z=QQNT.original.dll.??4PrefinalizerRegistration@internal@cppgc@@QEAAAEAV012@AEBV012@@Z
    ??4Primitive@v8@@QEAAAEAV01@$$QEAV01@@Z=QQNT.original.dll.??4Primitive@v8@@QEAAAEAV01@$$QEAV01@@Z
    ??4Primitive@v8@@QEAAAEAV01@AEBV01@@Z=QQNT.original.dll.??4Primitive@v8@@QEAAAEAV01@AEBV01@@Z
    ??4PrimitiveArray@v8@@QEAAAEAV01@$$QEAV01@@Z=QQNT.original.dll.??4PrimitiveArray@v8@@QEAAAEAV01@$$QEAV01@@Z
    ??4PrimitiveArray@v8@@QEAAAEAV01@AEBV01@@Z=QQNT.original.dll.??4PrimitiveArray@v8@@QEAAAEAV01@AEBV01@@Z
    ??4Private@v8@@QEAAAEAV01@$$QEAV01@@Z=QQNT.original.dll.??4Private@v8@@QEAAAEAV01@$$QEAV01@@Z
    ??4Private@v8@@QEAAAEAV01@AEBV01@@Z=QQNT.original.dll.??4Private@v8@@QEAAAEAV01@AEBV01@@Z
    ??4ProcessHeapStatistics@cppgc@@QEAAAEAV01@$$QEAV01@@Z=QQNT.original.dll.??4ProcessHeapStatistics@cppgc@@QEAAAEAV01@$$QEAV01@@Z
    ??4ProcessHeapStatistics@cppgc@@QEAAAEAV01@AEBV01@@Z=QQNT.original.dll.??4ProcessHeapStatistics@cppgc@@QEAAAEAV01@AEBV01@@Z
    ??4Promise@v8@@QEAAAEAV01@$$QEAV01@@Z=QQNT.original.dll.??4Promise@v8@@QEAAAEAV01@$$QEAV01@@Z
    ??4Promise@v8@@QEAAAEAV01@AEBV01@@Z=QQNT.original.dll.??4Promise@v8@@QEAAAEAV01@AEBV01@@Z
    ??4Proxy@v8@@QEAAAEAV01@$$QEAV01@@Z=QQNT.original.dll.??4Proxy@v8@@QEAAAEAV01@$$QEAV01@@Z
    ??4Proxy@v8@@QEAAAEAV01@AEBV01@@Z=QQNT.original.dll.??4Proxy@v8@@QEAAAEAV01@AEBV01@@Z
    ??4Recorder@metrics@v8@@QEAAAEAV012@AEBV012@@Z=QQNT.original.dll.??4Recorder@metrics@v8@@QEAAAEAV012@AEBV012@@Z
    ??4RegExp@v8@@QEAAAEAV01@$$QEAV01@@Z=QQNT.original.dll.??4RegExp@v8@@QEAAAEAV01@$$QEAV01@@Z
    ??4RegExp@v8@@QEAAAEAV01@AEBV01@@Z=QQNT.original.dll.??4RegExp@v8@@QEAAAEAV01@AEBV01@@Z
    ??4RegisterState@v8@@QEAAAEAU01@AEBU01@@Z=QQNT.original.dll.??4RegisterState@v8@@QEAAAEAU01@AEBU01@@Z
    ??4RemoteObject@API@Runtime@protocol@v8_inspector@@QEAAAEAV01234@$$QEAV01234@@Z=QQNT.original.dll.??4RemoteObject@API@Runtime@protocol@v8_inspector@@QEAAAEAV01234@$$QEAV01234@@Z
    ??4RemoteObject@API@Runtime@protocol@v8_inspector@@QEAAAEAV01234@AEBV01234@@Z=QQNT.original.dll.??4RemoteObject@API@Runtime@protocol@v8_inspector@@QEAAAEAV01234@AEBV01234@@Z
    ??4Resolver@Promise@v8@@QEAAAEAV012@$$QEAV012@@Z=QQNT.original.dll.??4Resolver@Promise@v8@@QEAAAEAV012@$$QEAV012@@Z
    ??4Resolver@Promise@v8@@QEAAAEAV012@AEBV012@@Z=QQNT.original.dll.??4Resolver@Promise@v8@@QEAAAEAV012@AEBV012@@Z
    ??4ResourceConstraints@v8@@QEAAAEAV01@$$QEAV01@@Z=QQNT.original.dll.??4ResourceConstraints@v8@@QEAAAEAV01@$$QEAV01@@Z
    ??4ResourceConstraints@v8@@QEAAAEAV01@AEBV01@@Z=QQNT.original.dll.??4ResourceConstraints@v8@@QEAAAEAV01@AEBV01@@Z
    ??4RootVisitor@internal@cppgc@@QEAAAEAV012@AEBV012@@Z=QQNT.original.dll.??4RootVisitor@internal@cppgc@@QEAAAEAV012@AEBV012@@Z
    ??4SameThreadEnabledCheckingPolicyBase@internal@cppgc@@QEAAAEAV012@$$QEAV012@@Z=QQNT.original.dll.??4SameThreadEnabledCheckingPolicyBase@internal@cppgc@@QEAAAEAV012@$$QEAV012@@Z
    ??4SameThreadEnabledCheckingPolicyBase@internal@cppgc@@QEAAAEAV012@AEBV012@@Z=QQNT.original.dll.??4SameThreadEnabledCheckingPolicyBase@internal@cppgc@@QEAAAEAV012@AEBV012@@Z
    ??4Script@v8@@QEAAAEAV01@$$QEAV01@@Z=QQNT.original.dll.??4Script@v8@@QEAAAEAV01@$$QEAV01@@Z
    ??4Script@v8@@QEAAAEAV01@AEBV01@@Z=QQNT.original.dll.??4Script@v8@@QEAAAEAV01@AEBV01@@Z
    ??4ScriptCompiler@v8@@QEAAAEAV01@$$QEAV01@@Z=QQNT.original.dll.??4ScriptCompiler@v8@@QEAAAEAV01@$$QEAV01@@Z
    ??4ScriptCompiler@v8@@QEAAAEAV01@AEBV01@@Z=QQNT.original.dll.??4ScriptCompiler@v8@@QEAAAEAV01@AEBV01@@Z
    ??4ScriptOrModule@v8@@QEAAAEAV01@$$QEAV01@@Z=QQNT.original.dll.??4ScriptOrModule@v8@@QEAAAEAV01@$$QEAV01@@Z
    ??4ScriptOrModule@v8@@QEAAAEAV01@AEBV01@@Z=QQNT.original.dll.??4ScriptOrModule@v8@@QEAAAEAV01@AEBV01@@Z
    ??4ScriptStreamingTask@ScriptCompiler@v8@@QEAAAEAV012@$$QEAV012@@Z=QQNT.original.dll.??4ScriptStreamingTask@ScriptCompiler@v8@@QEAAAEAV012@$$QEAV012@@Z
    ??4ScriptStreamingTask@ScriptCompiler@v8@@QEAAAEAV012@AEBV012@@Z=QQNT.original.dll.??4ScriptStreamingTask@ScriptCompiler@v8@@QEAAAEAV012@AEBV012@@Z
    ??4SearchMatch@API@Debugger@protocol@v8_inspector@@QEAAAEAV01234@$$QEAV01234@@Z=QQNT.original.dll.??4SearchMatch@API@Debugger@protocol@v8_inspector@@QEAAAEAV01234@$$QEAV01234@@Z
    ??4SearchMatch@API@Debugger@protocol@v8_inspector@@QEAAAEAV01234@AEBV01234@@Z=QQNT.original.dll.??4SearchMatch@API@Debugger@protocol@v8_inspector@@QEAAAEAV01234@AEBV01234@@Z
    ??4Set@v8@@QEAAAEAV01@$$QEAV01@@Z=QQNT.original.dll.??4Set@v8@@QEAAAEAV01@$$QEAV01@@Z
    ??4Set@v8@@QEAAAEAV01@AEBV01@@Z=QQNT.original.dll.??4Set@v8@@QEAAAEAV01@AEBV01@@Z
    ??4SharedArrayBuffer@v8@@QEAAAEAV01@$$QEAV01@@Z=QQNT.original.dll.??4SharedArrayBuffer@v8@@QEAAAEAV01@$$QEAV01@@Z
    ??4SharedArrayBuffer@v8@@QEAAAEAV01@AEBV01@@Z=QQNT.original.dll.??4SharedArrayBuffer@v8@@QEAAAEAV01@AEBV01@@Z
    ??4SharedMemoryStatistics@v8@@QEAAAEAV01@$$QEAV01@@Z=QQNT.original.dll.??4SharedMemoryStatistics@v8@@QEAAAEAV01@$$QEAV01@@Z
    ??4SharedMemoryStatistics@v8@@QEAAAEAV01@AEBV01@@Z=QQNT.original.dll.??4SharedMemoryStatistics@v8@@QEAAAEAV01@AEBV01@@Z
    ??4SharedValueConveyor@v8@@QEAAAEAV01@$$QEAV01@@Z=QQNT.original.dll.??4SharedValueConveyor@v8@@QEAAAEAV01@$$QEAV01@@Z
    ??4Signature@v8@@QEAAAEAV01@$$QEAV01@@Z=QQNT.original.dll.??4Signature@v8@@QEAAAEAV01@$$QEAV01@@Z
    ??4Signature@v8@@QEAAAEAV01@AEBV01@@Z=QQNT.original.dll.??4Signature@v8@@QEAAAEAV01@AEBV01@@Z
    ??4SourceLocation@v8@@QEAAAEAV01@$$QEAV01@@Z=QQNT.original.dll.??4SourceLocation@v8@@QEAAAEAV01@$$QEAV01@@Z
    ??4SourceLocation@v8@@QEAAAEAV01@AEBV01@@Z=QQNT.original.dll.??4SourceLocation@v8@@QEAAAEAV01@AEBV01@@Z
    ??4StackFrame@v8@@QEAAAEAV01@$$QEAV01@@Z=QQNT.original.dll.??4StackFrame@v8@@QEAAAEAV01@$$QEAV01@@Z
    ??4StackFrame@v8@@QEAAAEAV01@AEBV01@@Z=QQNT.original.dll.??4StackFrame@v8@@QEAAAEAV01@AEBV01@@Z
    ??4StackTrace@API@Runtime@protocol@v8_inspector@@QEAAAEAV01234@$$QEAV01234@@Z=QQNT.original.dll.??4StackTrace@API@Runtime@protocol@v8_inspector@@QEAAAEAV01234@$$QEAV01234@@Z
    ??4StackTrace@API@Runtime@protocol@v8_inspector@@QEAAAEAV01234@AEBV01234@@Z=QQNT.original.dll.??4StackTrace@API@Runtime@protocol@v8_inspector@@QEAAAEAV01234@AEBV01234@@Z
    ??4StackTrace@v8@@QEAAAEAV01@$$QEAV01@@Z=QQNT.original.dll.??4StackTrace@v8@@QEAAAEAV01@$$QEAV01@@Z
    ??4StackTrace@v8@@QEAAAEAV01@AEBV01@@Z=QQNT.original.dll.??4StackTrace@v8@@QEAAAEAV01@AEBV01@@Z
    ??4StackTraceId@API@Runtime@protocol@v8_inspector@@QEAAAEAV01234@$$QEAV01234@@Z=QQNT.original.dll.??4StackTraceId@API@Runtime@protocol@v8_inspector@@QEAAAEAV01234@$$QEAV01234@@Z
    ??4StackTraceId@API@Runtime@protocol@v8_inspector@@QEAAAEAV01234@AEBV01234@@Z=QQNT.original.dll.??4StackTraceId@API@Runtime@protocol@v8_inspector@@QEAAAEAV01234@AEBV01234@@Z
    ??4StartupData@v8@@QEAAAEAV01@$$QEAV01@@Z=QQNT.original.dll.??4StartupData@v8@@QEAAAEAV01@$$QEAV01@@Z
    ??4StartupData@v8@@QEAAAEAV01@AEBV01@@Z=QQNT.original.dll.??4StartupData@v8@@QEAAAEAV01@AEBV01@@Z
    ??4String@v8@@QEAAAEAV01@$$QEAV01@@Z=QQNT.original.dll.??4String@v8@@QEAAAEAV01@$$QEAV01@@Z
    ??4String@v8@@QEAAAEAV01@AEBV01@@Z=QQNT.original.dll.??4String@v8@@QEAAAEAV01@AEBV01@@Z
    ??4StringBuffer@v8_inspector@@QEAAAEAV01@AEBV01@@Z=QQNT.original.dll.??4StringBuffer@v8_inspector@@QEAAAEAV01@AEBV01@@Z
    ??4StringObject@v8@@QEAAAEAV01@$$QEAV01@@Z=QQNT.original.dll.??4StringObject@v8@@QEAAAEAV01@$$QEAV01@@Z
    ??4StringObject@v8@@QEAAAEAV01@AEBV01@@Z=QQNT.original.dll.??4StringObject@v8@@QEAAAEAV01@AEBV01@@Z
    ??4StringView@v8_inspector@@QEAAAEAV01@$$QEAV01@@Z=QQNT.original.dll.??4StringView@v8_inspector@@QEAAAEAV01@$$QEAV01@@Z
    ??4StringView@v8_inspector@@QEAAAEAV01@AEBV01@@Z=QQNT.original.dll.??4StringView@v8_inspector@@QEAAAEAV01@AEBV01@@Z
    ??4StrongRootAllocatorBase@internal@v8@@QEAAAEAV012@$$QEAV012@@Z=QQNT.original.dll.??4StrongRootAllocatorBase@internal@v8@@QEAAAEAV012@$$QEAV012@@Z
    ??4StrongRootAllocatorBase@internal@v8@@QEAAAEAV012@AEBV012@@Z=QQNT.original.dll.??4StrongRootAllocatorBase@internal@v8@@QEAAAEAV012@AEBV012@@Z
    ??4SuspendTagCheckingScope@base@heap@@QEAAAEAV012@AEBV012@@Z=QQNT.original.dll.??4SuspendTagCheckingScope@base@heap@@QEAAAEAV012@AEBV012@@Z
    ??4Symbol@v8@@QEAAAEAV01@$$QEAV01@@Z=QQNT.original.dll.??4Symbol@v8@@QEAAAEAV01@$$QEAV01@@Z
    ??4Symbol@v8@@QEAAAEAV01@AEBV01@@Z=QQNT.original.dll.??4Symbol@v8@@QEAAAEAV01@AEBV01@@Z
    ??4SymbolObject@v8@@QEAAAEAV01@$$QEAV01@@Z=QQNT.original.dll.??4SymbolObject@v8@@QEAAAEAV01@$$QEAV01@@Z
    ??4SymbolObject@v8@@QEAAAEAV01@AEBV01@@Z=QQNT.original.dll.??4SymbolObject@v8@@QEAAAEAV01@AEBV01@@Z
    ??4Template@v8@@QEAAAEAV01@$$QEAV01@@Z=QQNT.original.dll.??4Template@v8@@QEAAAEAV01@$$QEAV01@@Z
    ??4Template@v8@@QEAAAEAV01@AEBV01@@Z=QQNT.original.dll.??4Template@v8@@QEAAAEAV01@AEBV01@@Z
    ??4ThreadIsolation@internal@v8@@QEAAAEAV012@$$QEAV012@@Z=QQNT.original.dll.??4ThreadIsolation@internal@v8@@QEAAAEAV012@$$QEAV012@@Z
    ??4ThreadIsolation@internal@v8@@QEAAAEAV012@AEBV012@@Z=QQNT.original.dll.??4ThreadIsolation@internal@v8@@QEAAAEAV012@AEBV012@@Z
    ??4TickSample@internal@v8@@QEAAAEAU012@$$QEAU012@@Z=QQNT.original.dll.??4TickSample@internal@v8@@QEAAAEAU012@$$QEAU012@@Z
    ??4TickSample@internal@v8@@QEAAAEAU012@AEBU012@@Z=QQNT.original.dll.??4TickSample@internal@v8@@QEAAAEAU012@AEBU012@@Z
    ??4TraceTraitFromInnerAddressImpl@internal@cppgc@@QEAAAEAU012@$$QEAU012@@Z=QQNT.original.dll.??4TraceTraitFromInnerAddressImpl@internal@cppgc@@QEAAAEAU012@$$QEAU012@@Z
    ??4TraceTraitFromInnerAddressImpl@internal@cppgc@@QEAAAEAU012@AEBU012@@Z=QQNT.original.dll.??4TraceTraitFromInnerAddressImpl@internal@cppgc@@QEAAAEAU012@AEBU012@@Z
    ??4TypecheckWitness@v8@@QEAAAEAV01@$$QEAV01@@Z=QQNT.original.dll.??4TypecheckWitness@v8@@QEAAAEAV01@$$QEAV01@@Z
    ??4TypecheckWitness@v8@@QEAAAEAV01@AEBV01@@Z=QQNT.original.dll.??4TypecheckWitness@v8@@QEAAAEAV01@AEBV01@@Z
    ??4TypedArray@v8@@QEAAAEAV01@$$QEAV01@@Z=QQNT.original.dll.??4TypedArray@v8@@QEAAAEAV01@$$QEAV01@@Z
    ??4TypedArray@v8@@QEAAAEAV01@AEBV01@@Z=QQNT.original.dll.??4TypedArray@v8@@QEAAAEAV01@AEBV01@@Z
    ??4Uint16Array@v8@@QEAAAEAV01@$$QEAV01@@Z=QQNT.original.dll.??4Uint16Array@v8@@QEAAAEAV01@$$QEAV01@@Z
    ??4Uint16Array@v8@@QEAAAEAV01@AEBV01@@Z=QQNT.original.dll.??4Uint16Array@v8@@QEAAAEAV01@AEBV01@@Z
    ??4Uint32@v8@@QEAAAEAV01@$$QEAV01@@Z=QQNT.original.dll.??4Uint32@v8@@QEAAAEAV01@$$QEAV01@@Z
    ??4Uint32@v8@@QEAAAEAV01@AEBV01@@Z=QQNT.original.dll.??4Uint32@v8@@QEAAAEAV01@AEBV01@@Z
    ??4Uint32Array@v8@@QEAAAEAV01@$$QEAV01@@Z=QQNT.original.dll.??4Uint32Array@v8@@QEAAAEAV01@$$QEAV01@@Z
    ??4Uint32Array@v8@@QEAAAEAV01@AEBV01@@Z=QQNT.original.dll.??4Uint32Array@v8@@QEAAAEAV01@AEBV01@@Z
    ??4Uint8Array@v8@@QEAAAEAV01@$$QEAV01@@Z=QQNT.original.dll.??4Uint8Array@v8@@QEAAAEAV01@$$QEAV01@@Z
    ??4Uint8Array@v8@@QEAAAEAV01@AEBV01@@Z=QQNT.original.dll.??4Uint8Array@v8@@QEAAAEAV01@AEBV01@@Z
    ??4Uint8ClampedArray@v8@@QEAAAEAV01@$$QEAV01@@Z=QQNT.original.dll.??4Uint8ClampedArray@v8@@QEAAAEAV01@$$QEAV01@@Z
    ??4Uint8ClampedArray@v8@@QEAAAEAV01@AEBV01@@Z=QQNT.original.dll.??4Uint8ClampedArray@v8@@QEAAAEAV01@AEBV01@@Z
    ??4UnboundModuleScript@v8@@QEAAAEAV01@$$QEAV01@@Z=QQNT.original.dll.??4UnboundModuleScript@v8@@QEAAAEAV01@$$QEAV01@@Z
    ??4UnboundModuleScript@v8@@QEAAAEAV01@AEBV01@@Z=QQNT.original.dll.??4UnboundModuleScript@v8@@QEAAAEAV01@AEBV01@@Z
    ??4UnboundScript@v8@@QEAAAEAV01@$$QEAV01@@Z=QQNT.original.dll.??4UnboundScript@v8@@QEAAAEAV01@$$QEAV01@@Z
    ??4UnboundScript@v8@@QEAAAEAV01@AEBV01@@Z=QQNT.original.dll.??4UnboundScript@v8@@QEAAAEAV01@AEBV01@@Z
    ??4Unlocker@v8@@QEAAAEAV01@AEBV01@@Z=QQNT.original.dll.??4Unlocker@v8@@QEAAAEAV01@AEBV01@@Z
    ??4Unwinder@v8@@QEAAAEAV01@$$QEAV01@@Z=QQNT.original.dll.??4Unwinder@v8@@QEAAAEAV01@$$QEAV01@@Z
    ??4Unwinder@v8@@QEAAAEAV01@AEBV01@@Z=QQNT.original.dll.??4Unwinder@v8@@QEAAAEAV01@AEBV01@@Z
    ??4V8@v8@@QEAAAEAV01@$$QEAV01@@Z=QQNT.original.dll.??4V8@v8@@QEAAAEAV01@$$QEAV01@@Z
    ??4V8@v8@@QEAAAEAV01@AEBV01@@Z=QQNT.original.dll.??4V8@v8@@QEAAAEAV01@AEBV01@@Z
    ??4V8DebuggerId@v8_inspector@@QEAAAEAV01@AEBV01@@Z=QQNT.original.dll.??4V8DebuggerId@v8_inspector@@QEAAAEAV01@AEBV01@@Z
    ??4V8Inspector@v8_inspector@@QEAAAEAV01@AEBV01@@Z=QQNT.original.dll.??4V8Inspector@v8_inspector@@QEAAAEAV01@AEBV01@@Z
    ??4V8InspectorClient@v8_inspector@@QEAAAEAV01@AEBV01@@Z=QQNT.original.dll.??4V8InspectorClient@v8_inspector@@QEAAAEAV01@AEBV01@@Z
    ??4V8InspectorSession@v8_inspector@@QEAAAEAV01@AEBV01@@Z=QQNT.original.dll.??4V8InspectorSession@v8_inspector@@QEAAAEAV01@AEBV01@@Z
    ??4V8StackFrame@v8_inspector@@QEAAAEAU01@$$QEAU01@@Z=QQNT.original.dll.??4V8StackFrame@v8_inspector@@QEAAAEAU01@$$QEAU01@@Z
    ??4V8StackFrame@v8_inspector@@QEAAAEAU01@AEBU01@@Z=QQNT.original.dll.??4V8StackFrame@v8_inspector@@QEAAAEAU01@AEBU01@@Z
    ??4V8StackTrace@v8_inspector@@QEAAAEAV01@AEBV01@@Z=QQNT.original.dll.??4V8StackTrace@v8_inspector@@QEAAAEAV01@AEBV01@@Z
    ??4V8StackTraceId@v8_inspector@@QEAAAEAU01@$$QEAU01@@Z=QQNT.original.dll.??4V8StackTraceId@v8_inspector@@QEAAAEAU01@$$QEAU01@@Z
    ??4V8StackTraceId@v8_inspector@@QEAAAEAU01@AEBU01@@Z=QQNT.original.dll.??4V8StackTraceId@v8_inspector@@QEAAAEAU01@AEBU01@@Z
    ??4Value@v8@@QEAAAEAV01@$$QEAV01@@Z=QQNT.original.dll.??4Value@v8@@QEAAAEAV01@$$QEAV01@@Z
    ??4Value@v8@@QEAAAEAV01@AEBV01@@Z=QQNT.original.dll.??4Value@v8@@QEAAAEAV01@AEBV01@@Z
    ??4Version@internal@v8@@QEAAAEAV012@$$QEAV012@@Z=QQNT.original.dll.??4Version@internal@v8@@QEAAAEAV012@$$QEAV012@@Z
    ??4Version@internal@v8@@QEAAAEAV012@AEBV012@@Z=QQNT.original.dll.??4Version@internal@v8@@QEAAAEAV012@AEBV012@@Z
    ??4Visitor@cppgc@@QEAAAEAV01@AEBV01@@Z=QQNT.original.dll.??4Visitor@cppgc@@QEAAAEAV01@AEBV01@@Z
    ??4WasmMemoryObject@v8@@QEAAAEAV01@$$QEAV01@@Z=QQNT.original.dll.??4WasmMemoryObject@v8@@QEAAAEAV01@$$QEAV01@@Z
    ??4WasmMemoryObject@v8@@QEAAAEAV01@AEBV01@@Z=QQNT.original.dll.??4WasmMemoryObject@v8@@QEAAAEAV01@AEBV01@@Z
    ??4WasmModuleObject@v8@@QEAAAEAV01@$$QEAV01@@Z=QQNT.original.dll.??4WasmModuleObject@v8@@QEAAAEAV01@$$QEAV01@@Z
    ??4WasmModuleObject@v8@@QEAAAEAV01@AEBV01@@Z=QQNT.original.dll.??4WasmModuleObject@v8@@QEAAAEAV01@AEBV01@@Z
    ??4WriteBarrier@internal@cppgc@@QEAAAEAV012@$$QEAV012@@Z=QQNT.original.dll.??4WriteBarrier@internal@cppgc@@QEAAAEAV012@$$QEAV012@@Z
    ??4WriteBarrier@internal@cppgc@@QEAAAEAV012@AEBV012@@Z=QQNT.original.dll.??4WriteBarrier@internal@cppgc@@QEAAAEAV012@AEBV012@@Z
    ??4WriteBarrierTypeForCagedHeapPolicy@internal@cppgc@@QEAAAEAV012@$$QEAV012@@Z=QQNT.original.dll.??4WriteBarrierTypeForCagedHeapPolicy@internal@cppgc@@QEAAAEAV012@$$QEAV012@@Z
    ??4WriteBarrierTypeForCagedHeapPolicy@internal@cppgc@@QEAAAEAV012@AEBV012@@Z=QQNT.original.dll.??4WriteBarrierTypeForCagedHeapPolicy@internal@cppgc@@QEAAAEAV012@AEBV012@@Z
    ??4WriteBarrierTypeForNonCagedHeapPolicy@internal@cppgc@@QEAAAEAV012@$$QEAV012@@Z=QQNT.original.dll.??4WriteBarrierTypeForNonCagedHeapPolicy@internal@cppgc@@QEAAAEAV012@$$QEAV012@@Z
    ??4WriteBarrierTypeForNonCagedHeapPolicy@internal@cppgc@@QEAAAEAV012@AEBV012@@Z=QQNT.original.dll.??4WriteBarrierTypeForNonCagedHeapPolicy@internal@cppgc@@QEAAAEAV012@AEBV012@@Z
    ??A?$MemorySpan@$$CBV?$Local@VContext@v8@@@v8@@@v8@@QEBAAEBV?$Local@VContext@v8@@@1@_K@Z=QQNT.original.dll.??A?$MemorySpan@$$CBV?$Local@VContext@v8@@@v8@@@v8@@QEBAAEBV?$Local@VContext@v8@@@1@_K@Z
    ??A?$MemorySpan@$$CBV?$Local@VString@v8@@@v8@@@v8@@QEBAAEBV?$Local@VString@v8@@@1@_K@Z=QQNT.original.dll.??A?$MemorySpan@$$CBV?$Local@VString@v8@@@v8@@@v8@@QEBAAEBV?$Local@VString@v8@@@1@_K@Z
    ??A?$MemorySpan@$$CB_K@v8@@QEBAAEB_K_K@Z=QQNT.original.dll.??A?$MemorySpan@$$CB_K@v8@@QEBAAEB_K_K@Z
    ??A?$MemorySpan@V?$Handle@VMap@internal@v8@@@internal@v8@@@v8@@QEBAAEAV?$Handle@VMap@internal@v8@@@internal@1@_K@Z=QQNT.original.dll.??A?$MemorySpan@V?$Handle@VMap@internal@v8@@@internal@v8@@@v8@@QEBAAEAV?$Handle@VMap@internal@v8@@@internal@1@_K@Z
    ??A?$MemorySpan@V?$MaybeLocal@VValue@v8@@@v8@@@v8@@QEBAAEAV?$MaybeLocal@VValue@v8@@@1@_K@Z=QQNT.original.dll.??A?$MemorySpan@V?$MaybeLocal@VValue@v8@@@v8@@@v8@@QEBAAEAV?$MaybeLocal@VValue@v8@@@1@_K@Z
    ??A?$MemorySpan@_K@v8@@QEBAAEA_K_K@Z=QQNT.original.dll.??A?$MemorySpan@_K@v8@@QEBAAEA_K_K@Z
    ??A?$vector@UCpuProfileDeoptFrame@v8@@V?$allocator@UCpuProfileDeoptFrame@v8@@@__Cr@std@@@__Cr@std@@QEAAAEAUCpuProfileDeoptFrame@v8@@_K@Z=QQNT.original.dll.??A?$vector@UCpuProfileDeoptFrame@v8@@V?$allocator@UCpuProfileDeoptFrame@v8@@@__Cr@std@@@__Cr@std@@QEAAAEAUCpuProfileDeoptFrame@v8@@_K@Z
    ??A?$vector@UCpuProfileDeoptFrame@v8@@V?$allocator@UCpuProfileDeoptFrame@v8@@@__Cr@std@@@__Cr@std@@QEBAAEBUCpuProfileDeoptFrame@v8@@_K@Z=QQNT.original.dll.??A?$vector@UCpuProfileDeoptFrame@v8@@V?$allocator@UCpuProfileDeoptFrame@v8@@@__Cr@std@@@__Cr@std@@QEBAAEBUCpuProfileDeoptFrame@v8@@_K@Z
    ??A?$vector@UCpuProfileDeoptInfo@v8@@V?$allocator@UCpuProfileDeoptInfo@v8@@@__Cr@std@@@__Cr@std@@QEAAAEAUCpuProfileDeoptInfo@v8@@_K@Z=QQNT.original.dll.??A?$vector@UCpuProfileDeoptInfo@v8@@V?$allocator@UCpuProfileDeoptInfo@v8@@@__Cr@std@@@__Cr@std@@QEAAAEAUCpuProfileDeoptInfo@v8@@_K@Z
    ??A?$vector@UCpuProfileDeoptInfo@v8@@V?$allocator@UCpuProfileDeoptInfo@v8@@@__Cr@std@@@__Cr@std@@QEBAAEBUCpuProfileDeoptInfo@v8@@_K@Z=QQNT.original.dll.??A?$vector@UCpuProfileDeoptInfo@v8@@V?$allocator@UCpuProfileDeoptInfo@v8@@@__Cr@std@@@__Cr@std@@QEBAAEBUCpuProfileDeoptInfo@v8@@_K@Z
    ??DUtf8Value@String@v8@@QEAAPEADXZ=QQNT.original.dll.??DUtf8Value@String@v8@@QEAAPEADXZ
    ??DUtf8Value@String@v8@@QEBAPEBDXZ=QQNT.original.dll.??DUtf8Value@String@v8@@QEBAPEBDXZ
    ??DValue@String@v8@@QEAAPEAGXZ=QQNT.original.dll.??DValue@String@v8@@QEAAPEAGXZ
    ??DValue@String@v8@@QEBAPEBGXZ=QQNT.original.dll.??DValue@String@v8@@QEBAPEBGXZ
    ??RDeleteACHHandle@node@@QEBAXPEAUACHHandle@1@@Z=QQNT.original.dll.??RDeleteACHHandle@node@@QEBAXPEAUACHHandle@1@@Z
    ??_7ActivityControl@v8@@6B@=QQNT.original.dll.??_7ActivityControl@v8@@6B@
    ??_7AllocationProfile@v8@@6B@=QQNT.original.dll.??_7AllocationProfile@v8@@6B@
    ??_7Allocator@ArrayBuffer@v8@@6B@=QQNT.original.dll.??_7Allocator@ArrayBuffer@v8@@6B@
    ??_7ArrayBufferAllocator@node@@6B@=QQNT.original.dll.??_7ArrayBufferAllocator@node@@6B@
    ??_7AsyncResource@node@@6B@=QQNT.original.dll.??_7AsyncResource@node@@6B@
    ??_7Channel@V8Inspector@v8_inspector@@6B@=QQNT.original.dll.??_7Channel@V8Inspector@v8_inspector@@6B@
    ??_7CodeEventHandler@v8@@6B@=QQNT.original.dll.??_7CodeEventHandler@v8@@6B@
    ??_7CppHeap@v8@@6B@=QQNT.original.dll.??_7CppHeap@v8@@6B@
    ??_7Delegate@ValueDeserializer@v8@@6B@=QQNT.original.dll.??_7Delegate@ValueDeserializer@v8@@6B@
    ??_7Delegate@ValueSerializer@v8@@6B@=QQNT.original.dll.??_7Delegate@ValueSerializer@v8@@6B@
    ??_7DiscardedSamplesDelegate@v8@@6B@=QQNT.original.dll.??_7DiscardedSamplesDelegate@v8@@6B@
    ??_7Domain@API@Schema@protocol@v8_inspector@@6B@=QQNT.original.dll.??_7Domain@API@Schema@protocol@v8_inspector@@6B@
    ??_7EmbedderGraph@v8@@6B@=QQNT.original.dll.??_7EmbedderGraph@v8@@6B@
    ??_7EmbedderRootsHandler@v8@@6B@=QQNT.original.dll.??_7EmbedderRootsHandler@v8@@6B@
    ??_7Exported@protocol@v8_inspector@@6B@=QQNT.original.dll.??_7Exported@protocol@v8_inspector@@6B@
    ??_7Extension@v8@@6B@=QQNT.original.dll.??_7Extension@v8@@6B@
    ??_7ExternalOneByteStringResource@String@v8@@6B@=QQNT.original.dll.??_7ExternalOneByteStringResource@String@v8@@6B@
    ??_7ExternalResourceVisitor@v8@@6B@=QQNT.original.dll.??_7ExternalResourceVisitor@v8@@6B@
    ??_7ExternalSourceStream@ScriptCompiler@v8@@6B@=QQNT.original.dll.??_7ExternalSourceStream@ScriptCompiler@v8@@6B@
    ??_7ExternalStringResource@String@v8@@6B@=QQNT.original.dll.??_7ExternalStringResource@String@v8@@6B@
    ??_7ExternalStringResourceBase@String@v8@@6B@=QQNT.original.dll.??_7ExternalStringResourceBase@String@v8@@6B@
    ??_7Heap@cppgc@@6B@=QQNT.original.dll.??_7Heap@cppgc@@6B@
    ??_7InitializationResult@node@@6B@=QQNT.original.dll.??_7InitializationResult@node@@6B@
    ??_7Inspectable@V8InspectorSession@v8_inspector@@6B@=QQNT.original.dll.??_7Inspectable@V8InspectorSession@v8_inspector@@6B@
    ??_7IsolatePlatformDelegate@node@@6B@=QQNT.original.dll.??_7IsolatePlatformDelegate@node@@6B@
    ??_7MeasureMemoryDelegate@v8@@6B@=QQNT.original.dll.??_7MeasureMemoryDelegate@v8@@6B@
    ??_7MicrotaskQueue@v8@@6B@=QQNT.original.dll.??_7MicrotaskQueue@v8@@6B@
    ??_7ModuleWrap@loader@node@@6B@=QQNT.original.dll.??_7ModuleWrap@loader@node@@6B@
    ??_7MultiIsolatePlatform@node@@6B@=QQNT.original.dll.??_7MultiIsolatePlatform@node@@6B@
    ??_7NameProvider@cppgc@@6B@=QQNT.original.dll.??_7NameProvider@cppgc@@6B@
    ??_7OutputStream@v8@@6B@=QQNT.original.dll.??_7OutputStream@v8@@6B@
    ??_7PersistentHandleVisitor@v8@@6B@=QQNT.original.dll.??_7PersistentHandleVisitor@v8@@6B@
    ??_7Platform@cppgc@@6B@=QQNT.original.dll.??_7Platform@cppgc@@6B@
    ??_7Recorder@metrics@v8@@6B@=QQNT.original.dll.??_7Recorder@metrics@v8@@6B@
    ??_7RemoteObject@API@Runtime@protocol@v8_inspector@@6B@=QQNT.original.dll.??_7RemoteObject@API@Runtime@protocol@v8_inspector@@6B@
    ??_7RootVisitor@internal@cppgc@@6B@=QQNT.original.dll.??_7RootVisitor@internal@cppgc@@6B@
    ??_7SearchMatch@API@Debugger@protocol@v8_inspector@@6B@=QQNT.original.dll.??_7SearchMatch@API@Debugger@protocol@v8_inspector@@6B@
    ??_7StackTrace@API@Runtime@protocol@v8_inspector@@6B@=QQNT.original.dll.??_7StackTrace@API@Runtime@protocol@v8_inspector@@6B@
    ??_7StackTraceId@API@Runtime@protocol@v8_inspector@@6B@=QQNT.original.dll.??_7StackTraceId@API@Runtime@protocol@v8_inspector@@6B@
    ??_7StringBuffer@v8_inspector@@6B@=QQNT.original.dll.??_7StringBuffer@v8_inspector@@6B@
    ??_7V8Inspector@v8_inspector@@6B@=QQNT.original.dll.??_7V8Inspector@v8_inspector@@6B@
    ??_7V8InspectorClient@v8_inspector@@6B@=QQNT.original.dll.??_7V8InspectorClient@v8_inspector@@6B@
    ??_7V8InspectorSession@v8_inspector@@6B@=QQNT.original.dll.??_7V8InspectorSession@v8_inspector@@6B@
    ??_7V8StackTrace@v8_inspector@@6B@=QQNT.original.dll.??_7V8StackTrace@v8_inspector@@6B@
    ??_7Visitor@cppgc@@6B@=QQNT.original.dll.??_7Visitor@cppgc@@6B@
    ??_FCpuProfilingOptions@v8@@QEAAXXZ=QQNT.original.dll.??_FCpuProfilingOptions@v8@@QEAAXXZ
    ??_FSnapshotCreator@v8@@QEAAXXZ=QQNT.original.dll.??_FSnapshotCreator@v8@@QEAAXXZ
    ??_UGlobalGCInfoTable@internal@cppgc@@CAPEAX_K@Z=QQNT.original.dll.??_UGlobalGCInfoTable@internal@cppgc@@CAPEAX_K@Z
    ??_UHandleScope@v8@@CAPEAX_K@Z=QQNT.original.dll.??_UHandleScope@v8@@CAPEAX_K@Z
    ??_UTryCatch@v8@@CAPEAX_K@Z=QQNT.original.dll.??_UTryCatch@v8@@CAPEAX_K@Z
    ??_VGlobalGCInfoTable@internal@cppgc@@CAXPEAX_K@Z=QQNT.original.dll.??_VGlobalGCInfoTable@internal@cppgc@@CAXPEAX_K@Z
    ??_VHandleScope@v8@@CAXPEAX_K@Z=QQNT.original.dll.??_VHandleScope@v8@@CAXPEAX_K@Z
    ??_VTryCatch@v8@@CAXPEAX_K@Z=QQNT.original.dll.??_VTryCatch@v8@@CAXPEAX_K@Z
    ?Abort@WasmStreaming@v8@@QEAAXV?$MaybeLocal@VValue@v8@@@2@@Z=QQNT.original.dll.?Abort@WasmStreaming@v8@@QEAAXV?$MaybeLocal@VValue@v8@@@2@@Z
    ?Add@Set@v8@@QEAA?AV?$MaybeLocal@VSet@v8@@@2@V?$Local@VContext@v8@@@2@V?$Local@VValue@v8@@@2@@Z=QQNT.original.dll.?Add@Set@v8@@QEAA?AV?$MaybeLocal@VSet@v8@@@2@V?$Local@VContext@v8@@@2@V?$Local@VValue@v8@@@2@@Z
    ?AddBeforeCallEnteredCallback@Isolate@v8@@QEAAXP6AXPEAV12@@Z@Z=QQNT.original.dll.?AddBeforeCallEnteredCallback@Isolate@v8@@QEAAXP6AXPEAV12@@Z@Z
    ?AddBuildEmbedderGraphCallback@HeapProfiler@v8@@QEAAXP6AXPEAVIsolate@2@PEAVEmbedderGraph@2@PEAX@Z2@Z=QQNT.original.dll.?AddBuildEmbedderGraphCallback@HeapProfiler@v8@@QEAAXP6AXPEAVIsolate@2@PEAVEmbedderGraph@2@PEAX@Z2@Z
    ?AddCallCompletedCallback@Isolate@v8@@QEAAXP6AXPEAV12@@Z@Z=QQNT.original.dll.?AddCallCompletedCallback@Isolate@v8@@QEAAXP6AXPEAV12@@Z@Z
    ?AddContext@SnapshotCreator@v8@@QEAA_KV?$Local@VContext@v8@@@2@USerializeInternalFieldsCallback@2@USerializeContextDataCallback@2@USerializeAPIWrapperCallback@2@@Z=QQNT.original.dll.?AddContext@SnapshotCreator@v8@@QEAA_KV?$Local@VContext@v8@@@2@USerializeInternalFieldsCallback@2@USerializeContextDataCallback@2@USerializeAPIWrapperCallback@2@@Z
    ?AddData@SnapshotCreator@v8@@AEAA_KV?$Local@VContext@v8@@@2@_K@Z=QQNT.original.dll.?AddData@SnapshotCreator@v8@@AEAA_KV?$Local@VContext@v8@@@2@_K@Z
    ?AddData@SnapshotCreator@v8@@AEAA_K_K@Z=QQNT.original.dll.?AddData@SnapshotCreator@v8@@AEAA_K_K@Z
    ?AddEnvironmentCleanupHook@node@@YAXPEAVIsolate@v8@@P6AXPEAX@Z1@Z=QQNT.original.dll.?AddEnvironmentCleanupHook@node@@YAXPEAVIsolate@v8@@P6AXPEAX@Z1@Z
    ?AddEnvironmentCleanupHookInternal@node@@YAPEAUACHHandle@1@PEAVIsolate@v8@@P6AXPEAXP6AX1@Z1@Z1@Z=QQNT.original.dll.?AddEnvironmentCleanupHookInternal@node@@YAPEAUACHHandle@1@PEAVIsolate@v8@@P6AXPEAXP6AX1@Z1@Z1@Z
    ?AddGCEpilogueCallback@Isolate@v8@@QEAAXP6AXPEAV12@W4GCType@2@W4GCCallbackFlags@2@@Z1@Z=QQNT.original.dll.?AddGCEpilogueCallback@Isolate@v8@@QEAAXP6AXPEAV12@W4GCType@2@W4GCCallbackFlags@2@@Z1@Z
    ?AddGCEpilogueCallback@Isolate@v8@@QEAAXP6AXPEAV12@W4GCType@2@W4GCCallbackFlags@2@PEAX@Z31@Z=QQNT.original.dll.?AddGCEpilogueCallback@Isolate@v8@@QEAAXP6AXPEAV12@W4GCType@2@W4GCCallbackFlags@2@PEAX@Z31@Z
    ?AddGCPrologueCallback@Isolate@v8@@QEAAXP6AXPEAV12@W4GCType@2@W4GCCallbackFlags@2@@Z1@Z=QQNT.original.dll.?AddGCPrologueCallback@Isolate@v8@@QEAAXP6AXPEAV12@W4GCType@2@W4GCCallbackFlags@2@@Z1@Z
    ?AddGCPrologueCallback@Isolate@v8@@QEAAXP6AXPEAV12@W4GCType@2@W4GCCallbackFlags@2@PEAX@Z31@Z=QQNT.original.dll.?AddGCPrologueCallback@Isolate@v8@@QEAAXP6AXPEAV12@W4GCType@2@W4GCCallbackFlags@2@PEAX@Z31@Z
    ?AddLinkedBinding@node@@YAXPEAVEnvironment@1@AEBUnapi_module@@@Z=QQNT.original.dll.?AddLinkedBinding@node@@YAXPEAVEnvironment@1@AEBUnapi_module@@@Z
    ?AddLinkedBinding@node@@YAXPEAVEnvironment@1@AEBUnode_module@1@@Z=QQNT.original.dll.?AddLinkedBinding@node@@YAXPEAVEnvironment@1@AEBUnode_module@1@@Z
    ?AddLinkedBinding@node@@YAXPEAVEnvironment@1@PEBDP6APEAUnapi_value__@@PEAUnapi_env__@@PEAU3@@ZH@Z=QQNT.original.dll.?AddLinkedBinding@node@@YAXPEAVEnvironment@1@PEBDP6APEAUnapi_value__@@PEAUnapi_env__@@PEAU3@@ZH@Z
    ?AddLinkedBinding@node@@YAXPEAVEnvironment@1@PEBDP6AXV?$Local@VObject@v8@@@v8@@V?$Local@VValue@v8@@@4@V?$Local@VContext@v8@@@4@PEAX@Z5@Z=QQNT.original.dll.?AddLinkedBinding@node@@YAXPEAVEnvironment@1@PEBDP6AXV?$Local@VObject@v8@@@v8@@V?$Local@VValue@v8@@@4@V?$Local@VContext@v8@@@4@PEAX@Z5@Z
    ?AddMainThreadEvent@Recorder@metrics@v8@@UEAAXAEBU?$GarbageCollectionBatchedEvents@UGarbageCollectionFullMainThreadIncrementalMark@metrics@v8@@@23@VContextId@123@@Z=QQNT.original.dll.?AddMainThreadEvent@Recorder@metrics@v8@@UEAAXAEBU?$GarbageCollectionBatchedEvents@UGarbageCollectionFullMainThreadIncrementalMark@metrics@v8@@@23@VContextId@123@@Z
    ?AddMainThreadEvent@Recorder@metrics@v8@@UEAAXAEBU?$GarbageCollectionBatchedEvents@UGarbageCollectionFullMainThreadIncrementalSweep@metrics@v8@@@23@VContextId@123@@Z=QQNT.original.dll.?AddMainThreadEvent@Recorder@metrics@v8@@UEAAXAEBU?$GarbageCollectionBatchedEvents@UGarbageCollectionFullMainThreadIncrementalSweep@metrics@v8@@@23@VContextId@123@@Z
    ?AddMainThreadEvent@Recorder@metrics@v8@@UEAAXAEBUGarbageCollectionFullCycle@23@VContextId@123@@Z=QQNT.original.dll.?AddMainThreadEvent@Recorder@metrics@v8@@UEAAXAEBUGarbageCollectionFullCycle@23@VContextId@123@@Z
    ?AddMainThreadEvent@Recorder@metrics@v8@@UEAAXAEBUGarbageCollectionFullMainThreadIncrementalMark@23@VContextId@123@@Z=QQNT.original.dll.?AddMainThreadEvent@Recorder@metrics@v8@@UEAAXAEBUGarbageCollectionFullMainThreadIncrementalMark@23@VContextId@123@@Z
    ?AddMainThreadEvent@Recorder@metrics@v8@@UEAAXAEBUGarbageCollectionFullMainThreadIncrementalSweep@23@VContextId@123@@Z=QQNT.original.dll.?AddMainThreadEvent@Recorder@metrics@v8@@UEAAXAEBUGarbageCollectionFullMainThreadIncrementalSweep@23@VContextId@123@@Z
    ?AddMainThreadEvent@Recorder@metrics@v8@@UEAAXAEBUGarbageCollectionYoungCycle@23@VContextId@123@@Z=QQNT.original.dll.?AddMainThreadEvent@Recorder@metrics@v8@@UEAAXAEBUGarbageCollectionYoungCycle@23@VContextId@123@@Z
    ?AddMainThreadEvent@Recorder@metrics@v8@@UEAAXAEBUWasmModuleCompiled@23@VContextId@123@@Z=QQNT.original.dll.?AddMainThreadEvent@Recorder@metrics@v8@@UEAAXAEBUWasmModuleCompiled@23@VContextId@123@@Z
    ?AddMainThreadEvent@Recorder@metrics@v8@@UEAAXAEBUWasmModuleDecoded@23@VContextId@123@@Z=QQNT.original.dll.?AddMainThreadEvent@Recorder@metrics@v8@@UEAAXAEBUWasmModuleDecoded@23@VContextId@123@@Z
    ?AddMainThreadEvent@Recorder@metrics@v8@@UEAAXAEBUWasmModuleInstantiated@23@VContextId@123@@Z=QQNT.original.dll.?AddMainThreadEvent@Recorder@metrics@v8@@UEAAXAEBUWasmModuleInstantiated@23@VContextId@123@@Z
    ?AddMessageListener@Isolate@v8@@QEAA_NP6AXV?$Local@VMessage@v8@@@2@V?$Local@VValue@v8@@@2@@Z1@Z=QQNT.original.dll.?AddMessageListener@Isolate@v8@@QEAA_NP6AXV?$Local@VMessage@v8@@@2@V?$Local@VValue@v8@@@2@@Z1@Z
    ?AddMessageListenerWithErrorLevel@Isolate@v8@@QEAA_NP6AXV?$Local@VMessage@v8@@@2@V?$Local@VValue@v8@@@2@@ZH1@Z=QQNT.original.dll.?AddMessageListenerWithErrorLevel@Isolate@v8@@QEAA_NP6AXV?$Local@VMessage@v8@@@2@V?$Local@VValue@v8@@@2@@ZH1@Z
    ?AddMicrotasksCompletedCallback@Isolate@v8@@QEAAXP6AXPEAV12@PEAX@Z1@Z=QQNT.original.dll.?AddMicrotasksCompletedCallback@Isolate@v8@@QEAAXP6AXPEAV12@PEAX@Z1@Z
    ?AddNearHeapLimitCallback@Isolate@v8@@QEAAXP6A_KPEAX_K1@Z0@Z=QQNT.original.dll.?AddNearHeapLimitCallback@Isolate@v8@@QEAAXP6A_KPEAX_K1@Z0@Z
    ?AddThreadSafeEvent@Recorder@metrics@v8@@UEAAXAEBUWasmModulesPerIsolate@23@@Z=QQNT.original.dll.?AddThreadSafeEvent@Recorder@metrics@v8@@UEAAXAEBUWasmModulesPerIsolate@23@@Z
    ?Address@JitPageReference@ThreadIsolation@internal@v8@@QEBA_KXZ=QQNT.original.dll.?Address@JitPageReference@ThreadIsolation@internal@v8@@QEBA_KXZ
    ?AdjustAmountOfExternalAllocatedMemory@Isolate@v8@@QEAA_J_J@Z=QQNT.original.dll.?AdjustAmountOfExternalAllocatedMemory@Isolate@v8@@QEAA_J_J@Z
    ?AdoptSharedValueConveyor@Delegate@ValueSerializer@v8@@UEAA_NPEAVIsolate@3@$$QEAVSharedValueConveyor@3@@Z=QQNT.original.dll.?AdoptSharedValueConveyor@Delegate@ValueSerializer@v8@@UEAA_NPEAVIsolate@3@$$QEAVSharedValueConveyor@3@@Z
    ?Allocate@Isolate@v8@@SAPEAV12@XZ=QQNT.original.dll.?Allocate@Isolate@v8@@SAPEAV12@XZ
    ?Allocate@MakeGarbageCollectedTraitInternal@internal@cppgc@@CAPEAXAEAVAllocationHandle@3@_KG@Z=QQNT.original.dll.?Allocate@MakeGarbageCollectedTraitInternal@internal@cppgc@@CAPEAXAEAVAllocationHandle@3@_KG@Z
    ?Allocate@MakeGarbageCollectedTraitInternal@internal@cppgc@@CAPEAXAEAVAllocationHandle@3@_KGUCustomSpaceIndex@3@@Z=QQNT.original.dll.?Allocate@MakeGarbageCollectedTraitInternal@internal@cppgc@@CAPEAXAEAVAllocationHandle@3@_KGUCustomSpaceIndex@3@@Z
    ?Allocate@MakeGarbageCollectedTraitInternal@internal@cppgc@@CAPEAXAEAVAllocationHandle@3@_KW4AlignVal@23@G@Z=QQNT.original.dll.?Allocate@MakeGarbageCollectedTraitInternal@internal@cppgc@@CAPEAXAEAVAllocationHandle@3@_KW4AlignVal@23@G@Z
    ?Allocate@MakeGarbageCollectedTraitInternal@internal@cppgc@@CAPEAXAEAVAllocationHandle@3@_KW4AlignVal@23@GUCustomSpaceIndex@3@@Z=QQNT.original.dll.?Allocate@MakeGarbageCollectedTraitInternal@internal@cppgc@@CAPEAXAEAVAllocationHandle@3@_KW4AlignVal@23@GUCustomSpaceIndex@3@@Z
    ?AllocateEnvironmentThreadId@node@@YA?AUThreadId@1@XZ=QQNT.original.dll.?AllocateEnvironmentThreadId@node@@YA?AUThreadId@1@XZ
    ?AllocateNode@CrossThreadPersistentRegion@internal@cppgc@@QEAAPEAVPersistentNode@23@PEAXP6AXAEAVRootVisitor@23@PEBX@Z@Z=QQNT.original.dll.?AllocateNode@CrossThreadPersistentRegion@internal@cppgc@@QEAAPEAVPersistentNode@23@PEAXP6AXAEAVRootVisitor@23@PEBX@Z@Z
    ?AllocateNode@PersistentRegion@internal@cppgc@@QEAAPEAVPersistentNode@23@PEAXP6AXAEAVRootVisitor@23@PEBX@Z@Z=QQNT.original.dll.?AllocateNode@PersistentRegion@internal@cppgc@@QEAAPEAVPersistentNode@23@PEAXP6AXAEAVRootVisitor@23@PEBX@Z@Z
    ?AllocationContaining@JitPageReference@ThreadIsolation@internal@v8@@QEAA?AU?$pair@_KAEAVJitAllocation@ThreadIsolation@internal@v8@@@__Cr@std@@_K@Z=QQNT.original.dll.?AllocationContaining@JitPageReference@ThreadIsolation@internal@v8@@QEAA?AU?$pair@_KAEAVJitAllocation@ThreadIsolation@internal@v8@@@__Cr@std@@_K@Z
    ?AllowCodeGenerationFromStrings@Context@v8@@QEAAX_N@Z=QQNT.original.dll.?AllowCodeGenerationFromStrings@Context@v8@@QEAAX_N@Z
    ?AllowWasmCodeGenerationCallback@node@@YA_NV?$Local@VContext@v8@@@v8@@V?$Local@VString@v8@@@3@@Z=QQNT.original.dll.?AllowWasmCodeGenerationCallback@node@@YA_NV?$Local@VContext@v8@@@v8@@V?$Local@VString@v8@@@3@@Z
    ?Ambiguous@ReasonEnum@Paused@API@Debugger@protocol@v8_inspector@@3PEBDEB=QQNT.original.dll.?Ambiguous@ReasonEnum@Paused@API@Debugger@protocol@v8_inspector@@3PEBDEB
    ?AnnotateStrongRetainer@api_internal@v8@@YAXPEA_KPEBD@Z=QQNT.original.dll.?AnnotateStrongRetainer@api_internal@v8@@YAXPEA_KPEBD@Z
    ?AreWithinCage@CagedHeapBase@internal@cppgc@@SA_NPEBX0@Z=QQNT.original.dll.?AreWithinCage@CagedHeapBase@internal@cppgc@@SA_NPEBX0@Z
    ?ArgumentCount@CFunction@v8@@QEBAIXZ=QQNT.original.dll.?ArgumentCount@CFunction@v8@@QEBAIXZ
    ?ArgumentCount@CFunctionInfo@v8@@QEBAIXZ=QQNT.original.dll.?ArgumentCount@CFunctionInfo@v8@@QEBAIXZ
    ?ArgumentInfo@CFunction@v8@@QEBAAEBVCTypeInfo@2@I@Z=QQNT.original.dll.?ArgumentInfo@CFunction@v8@@QEBAAEBVCTypeInfo@2@I@Z
    ?ArgumentInfo@CFunctionInfo@v8@@QEBAAEBVCTypeInfo@2@I@Z=QQNT.original.dll.?ArgumentInfo@CFunctionInfo@v8@@QEBAAEBVCTypeInfo@2@I@Z
    ?AsArray@Map@v8@@QEBA?AV?$Local@VArray@v8@@@2@XZ=QQNT.original.dll.?AsArray@Map@v8@@QEBA?AV?$Local@VArray@v8@@@2@XZ
    ?AsArray@Set@v8@@QEBA?AV?$Local@VArray@v8@@@2@XZ=QQNT.original.dll.?AsArray@Set@v8@@QEBA?AV?$Local@VArray@v8@@@2@XZ
    ?Assert@ReasonEnum@Paused@API@Debugger@protocol@v8_inspector@@3PEBDEB=QQNT.original.dll.?Assert@ReasonEnum@Paused@API@Debugger@protocol@v8_inspector@@3PEBDEB
    ?AssertLocked@PersistentRegionLock@internal@cppgc@@SAXXZ=QQNT.original.dll.?AssertLocked@PersistentRegionLock@internal@cppgc@@SAXXZ
    ?AsyncHooksGetExecutionAsyncId@node@@YANPEAVIsolate@v8@@@Z=QQNT.original.dll.?AsyncHooksGetExecutionAsyncId@node@@YANPEAVIsolate@v8@@@Z
    ?AsyncHooksGetTriggerAsyncId@node@@YANPEAVIsolate@v8@@@Z=QQNT.original.dll.?AsyncHooksGetTriggerAsyncId@node@@YANPEAVIsolate@v8@@@Z
    ?AtExit@node@@YAXPEAVEnvironment@1@P6AXPEAX@Z1@Z=QQNT.original.dll.?AtExit@node@@YAXPEAVEnvironment@1@P6AXPEAX@Z1@Z
    ?AttachCppHeap@Isolate@v8@@QEAAXPEAVCppHeap@2@@Z=QQNT.original.dll.?AttachCppHeap@Isolate@v8@@QEAAXPEAVCppHeap@2@@Z
    ?AutomaticallyRestoreInitialHeapLimit@Isolate@v8@@QEAAXN@Z=QQNT.original.dll.?AutomaticallyRestoreInitialHeapLimit@Isolate@v8@@QEAAXN@Z
    ?BindToCurrentContext@UnboundScript@v8@@QEAA?AV?$Local@VScript@v8@@@2@XZ=QQNT.original.dll.?BindToCurrentContext@UnboundScript@v8@@QEAA?AV?$Local@VScript@v8@@@2@XZ
    ?BooleanValue@Value@v8@@QEBA_NPEAVIsolate@2@@Z=QQNT.original.dll.?BooleanValue@Value@v8@@QEBA_NPEAVIsolate@2@@Z
    ?Buffer@ArrayBufferView@v8@@QEAA?AV?$Local@VArrayBuffer@v8@@@2@XZ=QQNT.original.dll.?Buffer@ArrayBufferView@v8@@QEAA?AV?$Local@VArrayBuffer@v8@@@2@XZ
    ?Buffer@WasmMemoryObject@v8@@QEAA?AV?$Local@VArrayBuffer@v8@@@2@XZ=QQNT.original.dll.?Buffer@WasmMemoryObject@v8@@QEAA?AV?$Local@VArrayBuffer@v8@@@2@XZ
    ?Build@?$CTypeInfoBuilder@H$S@v8@@SA?AVCTypeInfo@2@XZ=QQNT.original.dll.?Build@?$CTypeInfoBuilder@H$S@v8@@SA?AVCTypeInfo@2@XZ
    ?Build@?$CTypeInfoBuilder@I$S@v8@@SA?AVCTypeInfo@2@XZ=QQNT.original.dll.?Build@?$CTypeInfoBuilder@I$S@v8@@SA?AVCTypeInfo@2@XZ
    ?Build@?$CTypeInfoBuilder@M$S@v8@@SA?AVCTypeInfo@2@XZ=QQNT.original.dll.?Build@?$CTypeInfoBuilder@M$S@v8@@SA?AVCTypeInfo@2@XZ
    ?Build@?$CTypeInfoBuilder@N$S@v8@@SA?AVCTypeInfo@2@XZ=QQNT.original.dll.?Build@?$CTypeInfoBuilder@N$S@v8@@SA?AVCTypeInfo@2@XZ
    ?ByteLength@ArrayBuffer@v8@@QEBA_KXZ=QQNT.original.dll.?ByteLength@ArrayBuffer@v8@@QEBA_KXZ
    ?ByteLength@ArrayBufferView@v8@@QEAA_KXZ=QQNT.original.dll.?ByteLength@ArrayBufferView@v8@@QEAA_KXZ
    ?ByteLength@BackingStore@v8@@QEBA_KXZ=QQNT.original.dll.?ByteLength@BackingStore@v8@@QEBA_KXZ
    ?ByteLength@SharedArrayBuffer@v8@@QEBA_KXZ=QQNT.original.dll.?ByteLength@SharedArrayBuffer@v8@@QEBA_KXZ
    ?ByteOffset@ArrayBufferView@v8@@QEAA_KXZ=QQNT.original.dll.?ByteOffset@ArrayBufferView@v8@@QEAA_KXZ
    ?CSPViolation@ReasonEnum@Paused@API@Debugger@protocol@v8_inspector@@3PEBDEB=QQNT.original.dll.?CSPViolation@ReasonEnum@Paused@API@Debugger@protocol@v8_inspector@@3PEBDEB
    ?CacheResolvedWrapsSync@ModuleWrap@loader@node@@CAXAEBV?$FunctionCallbackInfo@VValue@v8@@@v8@@@Z=QQNT.original.dll.?CacheResolvedWrapsSync@ModuleWrap@loader@node@@CAXAEBV?$FunctionCallbackInfo@VValue@v8@@@v8@@@Z
    ?CachedDataVersionTag@ScriptCompiler@v8@@SAIXZ=QQNT.original.dll.?CachedDataVersionTag@ScriptCompiler@v8@@SAIXZ
    ?CalculateAgeTableSizeForHeapSize@AgeTable@internal@cppgc@@SA_K_K@Z=QQNT.original.dll.?CalculateAgeTableSizeForHeapSize@AgeTable@internal@cppgc@@SA_K_K@Z
    ?Call@Function@v8@@QEAA?AV?$MaybeLocal@VValue@v8@@@2@PEAVIsolate@2@V?$Local@VContext@v8@@@2@V?$Local@VValue@v8@@@2@HQEAV62@@Z=QQNT.original.dll.?Call@Function@v8@@QEAA?AV?$MaybeLocal@VValue@v8@@@2@PEAVIsolate@2@V?$Local@VContext@v8@@@2@V?$Local@VValue@v8@@@2@HQEAV62@@Z
    ?Call@Function@v8@@QEAA?AV?$MaybeLocal@VValue@v8@@@2@V?$Local@VContext@v8@@@2@V?$Local@VValue@v8@@@2@HQEAV52@@Z=QQNT.original.dll.?Call@Function@v8@@QEAA?AV?$MaybeLocal@VValue@v8@@@2@V?$Local@VContext@v8@@@2@V?$Local@VValue@v8@@@2@HQEAV52@@Z
    ?CallAsConstructor@Object@v8@@QEAA?AV?$MaybeLocal@VValue@v8@@@2@V?$Local@VContext@v8@@@2@HQEAV?$Local@VValue@v8@@@2@@Z=QQNT.original.dll.?CallAsConstructor@Object@v8@@QEAA?AV?$MaybeLocal@VValue@v8@@@2@V?$Local@VContext@v8@@@2@HQEAV?$Local@VValue@v8@@@2@@Z
    ?CallAsFunction@Object@v8@@QEAA?AV?$MaybeLocal@VValue@v8@@@2@V?$Local@VContext@v8@@@2@V?$Local@VValue@v8@@@2@HQEAV52@@Z=QQNT.original.dll.?CallAsFunction@Object@v8@@QEAA?AV?$MaybeLocal@VValue@v8@@@2@V?$Local@VContext@v8@@@2@V?$Local@VValue@v8@@@2@HQEAV52@@Z
    ?CanBeRehashed@StartupData@v8@@QEBA_NXZ=QQNT.original.dll.?CanBeRehashed@StartupData@v8@@QEBA_NXZ
    ?CanContinue@TryCatch@v8@@QEBA_NXZ=QQNT.original.dll.?CanContinue@TryCatch@v8@@QEBA_NXZ
    ?CanLookupStartOfJitAllocationAt@ThreadIsolation@internal@v8@@SA_N_K@Z=QQNT.original.dll.?CanLookupStartOfJitAllocationAt@ThreadIsolation@internal@v8@@SA_N_K@Z
    ?CanMakeExternal@String@v8@@QEBA_NW4Encoding@12@@Z=QQNT.original.dll.?CanMakeExternal@String@v8@@QEBA_NW4Encoding@12@@Z
    ?CancelTerminateExecution@Isolate@v8@@QEAAXXZ=QQNT.original.dll.?CancelTerminateExecution@Isolate@v8@@QEAAXXZ
    ?CaptureStackTrace@Exception@v8@@SA?AV?$Maybe@_N@2@V?$Local@VContext@v8@@@2@V?$Local@VObject@v8@@@2@@Z=QQNT.original.dll.?CaptureStackTrace@Exception@v8@@SA?AV?$Maybe@_N@2@V?$Local@VContext@v8@@@2@V?$Local@VObject@v8@@@2@@Z
    ?Cast@Array@v8@@SAPEAV12@PEAVValue@2@@Z=QQNT.original.dll.?Cast@Array@v8@@SAPEAV12@PEAVValue@2@@Z
    ?Cast@ArrayBuffer@v8@@SAPEAV12@PEAVValue@2@@Z=QQNT.original.dll.?Cast@ArrayBuffer@v8@@SAPEAV12@PEAVValue@2@@Z
    ?Cast@ArrayBufferView@v8@@SAPEAV12@PEAVValue@2@@Z=QQNT.original.dll.?Cast@ArrayBufferView@v8@@SAPEAV12@PEAVValue@2@@Z
    ?Cast@BigInt64Array@v8@@SAPEAV12@PEAVValue@2@@Z=QQNT.original.dll.?Cast@BigInt64Array@v8@@SAPEAV12@PEAVValue@2@@Z
    ?Cast@BigInt@v8@@SAPEAV12@PEAVData@2@@Z=QQNT.original.dll.?Cast@BigInt@v8@@SAPEAV12@PEAVData@2@@Z
    ?Cast@BigIntObject@v8@@SAPEAV12@PEAVValue@2@@Z=QQNT.original.dll.?Cast@BigIntObject@v8@@SAPEAV12@PEAVValue@2@@Z
    ?Cast@BigUint64Array@v8@@SAPEAV12@PEAVValue@2@@Z=QQNT.original.dll.?Cast@BigUint64Array@v8@@SAPEAV12@PEAVValue@2@@Z
    ?Cast@Boolean@v8@@SAPEAV12@PEAVData@2@@Z=QQNT.original.dll.?Cast@Boolean@v8@@SAPEAV12@PEAVData@2@@Z
    ?Cast@BooleanObject@v8@@SAPEAV12@PEAVValue@2@@Z=QQNT.original.dll.?Cast@BooleanObject@v8@@SAPEAV12@PEAVValue@2@@Z
    ?Cast@Context@v8@@SAPEAV12@PEAVData@2@@Z=QQNT.original.dll.?Cast@Context@v8@@SAPEAV12@PEAVData@2@@Z
    ?Cast@DataView@v8@@SAPEAV12@PEAVValue@2@@Z=QQNT.original.dll.?Cast@DataView@v8@@SAPEAV12@PEAVValue@2@@Z
    ?Cast@Date@v8@@SAPEAV12@PEAVValue@2@@Z=QQNT.original.dll.?Cast@Date@v8@@SAPEAV12@PEAVValue@2@@Z
    ?Cast@DictionaryTemplate@v8@@SAPEAV12@PEAVData@2@@Z=QQNT.original.dll.?Cast@DictionaryTemplate@v8@@SAPEAV12@PEAVData@2@@Z
    ?Cast@External@v8@@SAPEAV12@PEAVValue@2@@Z=QQNT.original.dll.?Cast@External@v8@@SAPEAV12@PEAVValue@2@@Z
    ?Cast@FixedArray@v8@@SAPEAV12@PEAVData@2@@Z=QQNT.original.dll.?Cast@FixedArray@v8@@SAPEAV12@PEAVData@2@@Z
    ?Cast@Float16Array@v8@@SAPEAV12@PEAVValue@2@@Z=QQNT.original.dll.?Cast@Float16Array@v8@@SAPEAV12@PEAVValue@2@@Z
    ?Cast@Float32Array@v8@@SAPEAV12@PEAVValue@2@@Z=QQNT.original.dll.?Cast@Float32Array@v8@@SAPEAV12@PEAVValue@2@@Z
    ?Cast@Float64Array@v8@@SAPEAV12@PEAVValue@2@@Z=QQNT.original.dll.?Cast@Float64Array@v8@@SAPEAV12@PEAVValue@2@@Z
    ?Cast@Function@v8@@SAPEAV12@PEAVValue@2@@Z=QQNT.original.dll.?Cast@Function@v8@@SAPEAV12@PEAVValue@2@@Z
    ?Cast@FunctionTemplate@v8@@SAPEAV12@PEAVData@2@@Z=QQNT.original.dll.?Cast@FunctionTemplate@v8@@SAPEAV12@PEAVData@2@@Z
    ?Cast@Int16Array@v8@@SAPEAV12@PEAVValue@2@@Z=QQNT.original.dll.?Cast@Int16Array@v8@@SAPEAV12@PEAVValue@2@@Z
    ?Cast@Int32@v8@@SAPEAV12@PEAVData@2@@Z=QQNT.original.dll.?Cast@Int32@v8@@SAPEAV12@PEAVData@2@@Z
    ?Cast@Int32Array@v8@@SAPEAV12@PEAVValue@2@@Z=QQNT.original.dll.?Cast@Int32Array@v8@@SAPEAV12@PEAVValue@2@@Z
    ?Cast@Int8Array@v8@@SAPEAV12@PEAVValue@2@@Z=QQNT.original.dll.?Cast@Int8Array@v8@@SAPEAV12@PEAVValue@2@@Z
    ?Cast@Integer@v8@@SAPEAV12@PEAVData@2@@Z=QQNT.original.dll.?Cast@Integer@v8@@SAPEAV12@PEAVData@2@@Z
    ?Cast@Map@v8@@SAPEAV12@PEAVValue@2@@Z=QQNT.original.dll.?Cast@Map@v8@@SAPEAV12@PEAVValue@2@@Z
    ?Cast@Module@v8@@SAPEAV12@PEAVData@2@@Z=QQNT.original.dll.?Cast@Module@v8@@SAPEAV12@PEAVData@2@@Z
    ?Cast@ModuleRequest@v8@@SAPEAV12@PEAVData@2@@Z=QQNT.original.dll.?Cast@ModuleRequest@v8@@SAPEAV12@PEAVData@2@@Z
    ?Cast@Name@v8@@SAPEAV12@PEAVData@2@@Z=QQNT.original.dll.?Cast@Name@v8@@SAPEAV12@PEAVData@2@@Z
    ?Cast@Number@v8@@SAPEAV12@PEAVData@2@@Z=QQNT.original.dll.?Cast@Number@v8@@SAPEAV12@PEAVData@2@@Z
    ?Cast@NumberObject@v8@@SAPEAV12@PEAVValue@2@@Z=QQNT.original.dll.?Cast@NumberObject@v8@@SAPEAV12@PEAVValue@2@@Z
    ?Cast@Object@v8@@SAPEAV12@PEAVValue@2@@Z=QQNT.original.dll.?Cast@Object@v8@@SAPEAV12@PEAVValue@2@@Z
    ?Cast@ObjectTemplate@v8@@SAPEAV12@PEAVData@2@@Z=QQNT.original.dll.?Cast@ObjectTemplate@v8@@SAPEAV12@PEAVData@2@@Z
    ?Cast@PrimitiveArray@v8@@SAPEAV12@PEAVData@2@@Z=QQNT.original.dll.?Cast@PrimitiveArray@v8@@SAPEAV12@PEAVData@2@@Z
    ?Cast@Private@v8@@SAPEAV12@PEAVData@2@@Z=QQNT.original.dll.?Cast@Private@v8@@SAPEAV12@PEAVData@2@@Z
    ?Cast@Promise@v8@@SAPEAV12@PEAVValue@2@@Z=QQNT.original.dll.?Cast@Promise@v8@@SAPEAV12@PEAVValue@2@@Z
    ?Cast@Proxy@v8@@SAPEAV12@PEAVValue@2@@Z=QQNT.original.dll.?Cast@Proxy@v8@@SAPEAV12@PEAVValue@2@@Z
    ?Cast@RegExp@v8@@SAPEAV12@PEAVValue@2@@Z=QQNT.original.dll.?Cast@RegExp@v8@@SAPEAV12@PEAVValue@2@@Z
    ?Cast@Resolver@Promise@v8@@SAPEAV123@PEAVValue@3@@Z=QQNT.original.dll.?Cast@Resolver@Promise@v8@@SAPEAV123@PEAVValue@3@@Z
    ?Cast@Set@v8@@SAPEAV12@PEAVValue@2@@Z=QQNT.original.dll.?Cast@Set@v8@@SAPEAV12@PEAVValue@2@@Z
    ?Cast@SharedArrayBuffer@v8@@SAPEAV12@PEAVValue@2@@Z=QQNT.original.dll.?Cast@SharedArrayBuffer@v8@@SAPEAV12@PEAVValue@2@@Z
    ?Cast@Signature@v8@@SAPEAV12@PEAVData@2@@Z=QQNT.original.dll.?Cast@Signature@v8@@SAPEAV12@PEAVData@2@@Z
    ?Cast@String@v8@@SAPEAV12@PEAVData@2@@Z=QQNT.original.dll.?Cast@String@v8@@SAPEAV12@PEAVData@2@@Z
    ?Cast@StringObject@v8@@SAPEAV12@PEAVValue@2@@Z=QQNT.original.dll.?Cast@StringObject@v8@@SAPEAV12@PEAVValue@2@@Z
    ?Cast@Symbol@v8@@SAPEAV12@PEAVData@2@@Z=QQNT.original.dll.?Cast@Symbol@v8@@SAPEAV12@PEAVData@2@@Z
    ?Cast@SymbolObject@v8@@SAPEAV12@PEAVValue@2@@Z=QQNT.original.dll.?Cast@SymbolObject@v8@@SAPEAV12@PEAVValue@2@@Z
    ?Cast@TypedArray@v8@@SAPEAV12@PEAVValue@2@@Z=QQNT.original.dll.?Cast@TypedArray@v8@@SAPEAV12@PEAVValue@2@@Z
    ?Cast@Uint16Array@v8@@SAPEAV12@PEAVValue@2@@Z=QQNT.original.dll.?Cast@Uint16Array@v8@@SAPEAV12@PEAVValue@2@@Z
    ?Cast@Uint32@v8@@SAPEAV12@PEAVData@2@@Z=QQNT.original.dll.?Cast@Uint32@v8@@SAPEAV12@PEAVData@2@@Z
    ?Cast@Uint32Array@v8@@SAPEAV12@PEAVValue@2@@Z=QQNT.original.dll.?Cast@Uint32Array@v8@@SAPEAV12@PEAVValue@2@@Z
    ?Cast@Uint8Array@v8@@SAPEAV12@PEAVValue@2@@Z=QQNT.original.dll.?Cast@Uint8Array@v8@@SAPEAV12@PEAVValue@2@@Z
    ?Cast@Uint8ClampedArray@v8@@SAPEAV12@PEAVValue@2@@Z=QQNT.original.dll.?Cast@Uint8ClampedArray@v8@@SAPEAV12@PEAVValue@2@@Z
    ?Cast@WasmMemoryObject@v8@@SAPEAV12@PEAVValue@2@@Z=QQNT.original.dll.?Cast@WasmMemoryObject@v8@@SAPEAV12@PEAVValue@2@@Z
    ?Cast@WasmModuleObject@v8@@SAPEAV12@PEAVValue@2@@Z=QQNT.original.dll.?Cast@WasmModuleObject@v8@@SAPEAV12@PEAVValue@2@@Z
    ?Catch@Promise@v8@@QEAA?AV?$MaybeLocal@VPromise@v8@@@2@V?$Local@VContext@v8@@@2@V?$Local@VFunction@v8@@@2@@Z=QQNT.original.dll.?Catch@Promise@v8@@QEAA?AV?$MaybeLocal@VPromise@v8@@@2@V?$Local@VContext@v8@@@2@V?$Local@VFunction@v8@@@2@@Z
    ?CheckCachedDataInvariants@ExternalOneByteStringResource@String@v8@@AEBAXXZ=QQNT.original.dll.?CheckCachedDataInvariants@ExternalOneByteStringResource@String@v8@@AEBAXXZ
    ?CheckCachedDataInvariants@ExternalStringResource@String@v8@@AEBAXXZ=QQNT.original.dll.?CheckCachedDataInvariants@ExternalStringResource@String@v8@@AEBAXXZ
    ?CheckCast@Array@v8@@CAXPEAVValue@2@@Z=QQNT.original.dll.?CheckCast@Array@v8@@CAXPEAVValue@2@@Z
    ?CheckCast@ArrayBuffer@v8@@CAXPEAVValue@2@@Z=QQNT.original.dll.?CheckCast@ArrayBuffer@v8@@CAXPEAVValue@2@@Z
    ?CheckCast@ArrayBufferView@v8@@CAXPEAVValue@2@@Z=QQNT.original.dll.?CheckCast@ArrayBufferView@v8@@CAXPEAVValue@2@@Z
    ?CheckCast@BigInt64Array@v8@@CAXPEAVValue@2@@Z=QQNT.original.dll.?CheckCast@BigInt64Array@v8@@CAXPEAVValue@2@@Z
    ?CheckCast@BigInt@v8@@CAXPEAVData@2@@Z=QQNT.original.dll.?CheckCast@BigInt@v8@@CAXPEAVData@2@@Z
    ?CheckCast@BigIntObject@v8@@CAXPEAVValue@2@@Z=QQNT.original.dll.?CheckCast@BigIntObject@v8@@CAXPEAVValue@2@@Z
    ?CheckCast@BigUint64Array@v8@@CAXPEAVValue@2@@Z=QQNT.original.dll.?CheckCast@BigUint64Array@v8@@CAXPEAVValue@2@@Z
    ?CheckCast@Boolean@v8@@CAXPEAVData@2@@Z=QQNT.original.dll.?CheckCast@Boolean@v8@@CAXPEAVData@2@@Z
    ?CheckCast@BooleanObject@v8@@CAXPEAVValue@2@@Z=QQNT.original.dll.?CheckCast@BooleanObject@v8@@CAXPEAVValue@2@@Z
    ?CheckCast@Context@v8@@CAXPEAVData@2@@Z=QQNT.original.dll.?CheckCast@Context@v8@@CAXPEAVData@2@@Z
    ?CheckCast@DataView@v8@@CAXPEAVValue@2@@Z=QQNT.original.dll.?CheckCast@DataView@v8@@CAXPEAVValue@2@@Z
    ?CheckCast@Date@v8@@CAXPEAVValue@2@@Z=QQNT.original.dll.?CheckCast@Date@v8@@CAXPEAVValue@2@@Z
    ?CheckCast@DictionaryTemplate@v8@@CAXPEAVData@2@@Z=QQNT.original.dll.?CheckCast@DictionaryTemplate@v8@@CAXPEAVData@2@@Z
    ?CheckCast@External@v8@@CAXPEAVValue@2@@Z=QQNT.original.dll.?CheckCast@External@v8@@CAXPEAVValue@2@@Z
    ?CheckCast@FixedArray@v8@@CAXPEAVData@2@@Z=QQNT.original.dll.?CheckCast@FixedArray@v8@@CAXPEAVData@2@@Z
    ?CheckCast@Float16Array@v8@@CAXPEAVValue@2@@Z=QQNT.original.dll.?CheckCast@Float16Array@v8@@CAXPEAVValue@2@@Z
    ?CheckCast@Float32Array@v8@@CAXPEAVValue@2@@Z=QQNT.original.dll.?CheckCast@Float32Array@v8@@CAXPEAVValue@2@@Z
    ?CheckCast@Float64Array@v8@@CAXPEAVValue@2@@Z=QQNT.original.dll.?CheckCast@Float64Array@v8@@CAXPEAVValue@2@@Z
    ?CheckCast@Function@v8@@CAXPEAVValue@2@@Z=QQNT.original.dll.?CheckCast@Function@v8@@CAXPEAVValue@2@@Z
    ?CheckCast@FunctionTemplate@v8@@CAXPEAVData@2@@Z=QQNT.original.dll.?CheckCast@FunctionTemplate@v8@@CAXPEAVData@2@@Z
    ?CheckCast@Int16Array@v8@@CAXPEAVValue@2@@Z=QQNT.original.dll.?CheckCast@Int16Array@v8@@CAXPEAVValue@2@@Z
    ?CheckCast@Int32@v8@@CAXPEAVData@2@@Z=QQNT.original.dll.?CheckCast@Int32@v8@@CAXPEAVData@2@@Z
    ?CheckCast@Int32Array@v8@@CAXPEAVValue@2@@Z=QQNT.original.dll.?CheckCast@Int32Array@v8@@CAXPEAVValue@2@@Z
    ?CheckCast@Int8Array@v8@@CAXPEAVValue@2@@Z=QQNT.original.dll.?CheckCast@Int8Array@v8@@CAXPEAVValue@2@@Z
    ?CheckCast@Integer@v8@@CAXPEAVData@2@@Z=QQNT.original.dll.?CheckCast@Integer@v8@@CAXPEAVData@2@@Z
    ?CheckCast@Map@v8@@CAXPEAVValue@2@@Z=QQNT.original.dll.?CheckCast@Map@v8@@CAXPEAVValue@2@@Z
    ?CheckCast@Module@v8@@CAXPEAVData@2@@Z=QQNT.original.dll.?CheckCast@Module@v8@@CAXPEAVData@2@@Z
    ?CheckCast@ModuleRequest@v8@@CAXPEAVData@2@@Z=QQNT.original.dll.?CheckCast@ModuleRequest@v8@@CAXPEAVData@2@@Z
    ?CheckCast@Name@v8@@CAXPEAVData@2@@Z=QQNT.original.dll.?CheckCast@Name@v8@@CAXPEAVData@2@@Z
    ?CheckCast@Number@v8@@CAXPEAVData@2@@Z=QQNT.original.dll.?CheckCast@Number@v8@@CAXPEAVData@2@@Z
    ?CheckCast@NumberObject@v8@@CAXPEAVValue@2@@Z=QQNT.original.dll.?CheckCast@NumberObject@v8@@CAXPEAVValue@2@@Z
    ?CheckCast@Numeric@v8@@CAXPEAVData@2@@Z=QQNT.original.dll.?CheckCast@Numeric@v8@@CAXPEAVData@2@@Z
    ?CheckCast@Object@v8@@CAXPEAVValue@2@@Z=QQNT.original.dll.?CheckCast@Object@v8@@CAXPEAVValue@2@@Z
    ?CheckCast@ObjectTemplate@v8@@CAXPEAVData@2@@Z=QQNT.original.dll.?CheckCast@ObjectTemplate@v8@@CAXPEAVData@2@@Z
    ?CheckCast@PrimitiveArray@v8@@CAXPEAVData@2@@Z=QQNT.original.dll.?CheckCast@PrimitiveArray@v8@@CAXPEAVData@2@@Z
    ?CheckCast@Private@v8@@CAXPEAVData@2@@Z=QQNT.original.dll.?CheckCast@Private@v8@@CAXPEAVData@2@@Z
    ?CheckCast@Promise@v8@@CAXPEAVValue@2@@Z=QQNT.original.dll.?CheckCast@Promise@v8@@CAXPEAVValue@2@@Z
    ?CheckCast@Proxy@v8@@CAXPEAVValue@2@@Z=QQNT.original.dll.?CheckCast@Proxy@v8@@CAXPEAVValue@2@@Z
    ?CheckCast@RegExp@v8@@CAXPEAVValue@2@@Z=QQNT.original.dll.?CheckCast@RegExp@v8@@CAXPEAVValue@2@@Z
    ?CheckCast@Resolver@Promise@v8@@CAXPEAVValue@3@@Z=QQNT.original.dll.?CheckCast@Resolver@Promise@v8@@CAXPEAVValue@3@@Z
    ?CheckCast@Set@v8@@CAXPEAVValue@2@@Z=QQNT.original.dll.?CheckCast@Set@v8@@CAXPEAVValue@2@@Z
    ?CheckCast@SharedArrayBuffer@v8@@CAXPEAVValue@2@@Z=QQNT.original.dll.?CheckCast@SharedArrayBuffer@v8@@CAXPEAVValue@2@@Z
    ?CheckCast@Signature@v8@@CAXPEAVData@2@@Z=QQNT.original.dll.?CheckCast@Signature@v8@@CAXPEAVData@2@@Z
    ?CheckCast@String@v8@@CAXPEAVData@2@@Z=QQNT.original.dll.?CheckCast@String@v8@@CAXPEAVData@2@@Z
    ?CheckCast@StringObject@v8@@CAXPEAVValue@2@@Z=QQNT.original.dll.?CheckCast@StringObject@v8@@CAXPEAVValue@2@@Z
    ?CheckCast@Symbol@v8@@CAXPEAVData@2@@Z=QQNT.original.dll.?CheckCast@Symbol@v8@@CAXPEAVData@2@@Z
    ?CheckCast@SymbolObject@v8@@CAXPEAVValue@2@@Z=QQNT.original.dll.?CheckCast@SymbolObject@v8@@CAXPEAVValue@2@@Z
    ?CheckCast@TypedArray@v8@@CAXPEAVValue@2@@Z=QQNT.original.dll.?CheckCast@TypedArray@v8@@CAXPEAVValue@2@@Z
    ?CheckCast@Uint16Array@v8@@CAXPEAVValue@2@@Z=QQNT.original.dll.?CheckCast@Uint16Array@v8@@CAXPEAVValue@2@@Z
    ?CheckCast@Uint32@v8@@CAXPEAVData@2@@Z=QQNT.original.dll.?CheckCast@Uint32@v8@@CAXPEAVData@2@@Z
    ?CheckCast@Uint32Array@v8@@CAXPEAVValue@2@@Z=QQNT.original.dll.?CheckCast@Uint32Array@v8@@CAXPEAVValue@2@@Z
    ?CheckCast@Uint8Array@v8@@CAXPEAVValue@2@@Z=QQNT.original.dll.?CheckCast@Uint8Array@v8@@CAXPEAVValue@2@@Z
    ?CheckCast@Uint8ClampedArray@v8@@CAXPEAVValue@2@@Z=QQNT.original.dll.?CheckCast@Uint8ClampedArray@v8@@CAXPEAVValue@2@@Z
    ?CheckCast@Value@v8@@CAXPEAVData@2@@Z=QQNT.original.dll.?CheckCast@Value@v8@@CAXPEAVData@2@@Z
    ?CheckCast@WasmMemoryObject@v8@@CAXPEAVValue@2@@Z=QQNT.original.dll.?CheckCast@WasmMemoryObject@v8@@CAXPEAVValue@2@@Z
    ?CheckCast@WasmModuleObject@v8@@CAXPEAVValue@2@@Z=QQNT.original.dll.?CheckCast@WasmModuleObject@v8@@CAXPEAVValue@2@@Z
    ?CheckInitializedImpl@Internals@internal@v8@@SAXPEAVIsolate@3@@Z=QQNT.original.dll.?CheckInitializedImpl@Internals@internal@v8@@SAXPEAVIsolate@3@@Z
    ?CheckMemoryIsZeroed@GCInfoTable@internal@cppgc@@AEAAXPEA_K_K@Z=QQNT.original.dll.?CheckMemoryIsZeroed@GCInfoTable@internal@cppgc@@AEAAXPEA_K_K@Z
    ?CheckOneByte@ValueView@String@v8@@AEBAX_N@Z=QQNT.original.dll.?CheckOneByte@ValueView@String@v8@@AEBAX_N@Z
    ?CheckParams@WriteBarrier@internal@cppgc@@SAXW4Type@123@AEBUParams@123@@Z=QQNT.original.dll.?CheckParams@WriteBarrier@internal@cppgc@@SAXW4Type@123@AEBUParams@123@@Z
    ?CheckPointerImpl@SameThreadEnabledCheckingPolicyBase@internal@cppgc@@IEAAXPEBX_N1@Z=QQNT.original.dll.?CheckPointerImpl@SameThreadEnabledCheckingPolicyBase@internal@cppgc@@IEAAXPEBX_N1@Z
    ?CheckValue@TracedReferenceBase@v8@@IEBAXXZ=QQNT.original.dll.?CheckValue@TracedReferenceBase@v8@@IEBAXXZ
    ?CheckYoungGenerationConsistency@HeapLayout@internal@v8@@CAXPEBVMemoryChunk@23@@Z=QQNT.original.dll.?CheckYoungGenerationConsistency@HeapLayout@internal@v8@@CAXPEBVMemoryChunk@23@@Z
    ?Clear@Map@v8@@QEAAXXZ=QQNT.original.dll.?Clear@Map@v8@@QEAAXXZ
    ?Clear@Set@v8@@QEAAXXZ=QQNT.original.dll.?Clear@Set@v8@@QEAAXXZ
    ?ClearAllUsedNodes@CrossThreadPersistentRegion@internal@cppgc@@QEAAXXZ=QQNT.original.dll.?ClearAllUsedNodes@CrossThreadPersistentRegion@internal@cppgc@@QEAAXXZ
    ?ClearAllUsedNodes@PersistentRegionBase@internal@cppgc@@QEAAXXZ=QQNT.original.dll.?ClearAllUsedNodes@PersistentRegionBase@internal@cppgc@@QEAAXXZ
    ?ClearCachesForTesting@Isolate@v8@@QEAAXXZ=QQNT.original.dll.?ClearCachesForTesting@Isolate@v8@@QEAAXXZ
    ?ClearKeptObjects@Isolate@v8@@QEAAXXZ=QQNT.original.dll.?ClearKeptObjects@Isolate@v8@@QEAAXXZ
    ?ClearObjectIds@HeapProfiler@v8@@QEAAXXZ=QQNT.original.dll.?ClearObjectIds@HeapProfiler@v8@@QEAAXXZ
    ?ClearWeak@api_internal@v8@@YAPEAXPEA_K@Z=QQNT.original.dll.?ClearWeak@api_internal@v8@@YAPEAXPEA_K@Z
    ?Clone@Object@v8@@QEAA?AV?$Local@VObject@v8@@@2@PEAVIsolate@2@@Z=QQNT.original.dll.?Clone@Object@v8@@QEAA?AV?$Local@VObject@v8@@@2@PEAVIsolate@2@@Z
    ?Clone@Object@v8@@QEAA?AV?$Local@VObject@v8@@@2@XZ=QQNT.original.dll.?Clone@Object@v8@@QEAA?AV?$Local@VObject@v8@@@2@XZ
    ?CollectCustomSpaceStatisticsAtLastGC@CppHeap@v8@@QEAAXV?$vector@UCustomSpaceIndex@cppgc@@V?$allocator@UCustomSpaceIndex@cppgc@@@__Cr@std@@@__Cr@std@@V?$unique_ptr@VCustomSpaceStatisticsReceiver@v8@@U?$default_delete@VCustomSpaceStatisticsReceiver@v8@@@__Cr@std@@@45@@Z=QQNT.original.dll.?CollectCustomSpaceStatisticsAtLastGC@CppHeap@v8@@QEAAXV?$vector@UCustomSpaceIndex@cppgc@@V?$allocator@UCustomSpaceIndex@cppgc@@@__Cr@std@@@__Cr@std@@V?$unique_ptr@VCustomSpaceStatisticsReceiver@v8@@U?$default_delete@VCustomSpaceStatisticsReceiver@v8@@@__Cr@std@@@45@@Z
    ?CollectGarbageForTesting@CppHeap@v8@@QEAAXW4EmbedderStackState@cppgc@@@Z=QQNT.original.dll.?CollectGarbageForTesting@CppHeap@v8@@QEAAXW4EmbedderStackState@cppgc@@@Z
    ?CollectGarbageInYoungGenerationForTesting@CppHeap@v8@@QEAAXW4EmbedderStackState@cppgc@@@Z=QQNT.original.dll.?CollectGarbageInYoungGenerationForTesting@CppHeap@v8@@QEAAXW4EmbedderStackState@cppgc@@@Z
    ?CollectSample@CpuProfiler@v8@@SAXPEAVIsolate@2@@Z=QQNT.original.dll.?CollectSample@CpuProfiler@v8@@SAXPEAVIsolate@2@@Z
    ?CollectStatistics@CppHeap@v8@@QEAA?AUHeapStatistics@cppgc@@W4DetailLevel@34@@Z=QQNT.original.dll.?CollectStatistics@CppHeap@v8@@QEAA?AUHeapStatistics@cppgc@@W4DetailLevel@34@@Z
    ?ColumnOffset@ScriptOrigin@v8@@QEBAHXZ=QQNT.original.dll.?ColumnOffset@ScriptOrigin@v8@@QEBAHXZ
    ?Commit@CompilationDependencies@compiler@internal@v8@@QEAA_NV?$Handle@VCode@internal@v8@@@34@@Z=QQNT.original.dll.?Commit@CompilationDependencies@compiler@internal@v8@@QEAA_NV?$Handle@VCode@internal@v8@@@34@@Z
    ?CompatibilityCheck@CachedData@ScriptCompiler@v8@@QEAA?AW4CompatibilityCheckResult@123@PEAVIsolate@3@@Z=QQNT.original.dll.?CompatibilityCheck@CachedData@ScriptCompiler@v8@@QEAA?AW4CompatibilityCheckResult@123@PEAVIsolate@3@@Z
    ?Compile@Script@v8@@SA?AV?$MaybeLocal@VScript@v8@@@2@V?$Local@VContext@v8@@@2@V?$Local@VString@v8@@@2@PEAVScriptOrigin@2@@Z=QQNT.original.dll.?Compile@Script@v8@@SA?AV?$MaybeLocal@VScript@v8@@@2@V?$Local@VContext@v8@@@2@V?$Local@VString@v8@@@2@PEAVScriptOrigin@2@@Z
    ?Compile@ScriptCompiler@v8@@SA?AV?$MaybeLocal@VScript@v8@@@2@V?$Local@VContext@v8@@@2@PEAVSource@12@W4CompileOptions@12@W4NoCacheReason@12@@Z=QQNT.original.dll.?Compile@ScriptCompiler@v8@@SA?AV?$MaybeLocal@VScript@v8@@@2@V?$Local@VContext@v8@@@2@PEAVSource@12@W4CompileOptions@12@W4NoCacheReason@12@@Z
    ?Compile@ScriptCompiler@v8@@SA?AV?$MaybeLocal@VScript@v8@@@2@V?$Local@VContext@v8@@@2@PEAVStreamedSource@12@V?$Local@VString@v8@@@2@AEBVScriptOrigin@2@@Z=QQNT.original.dll.?Compile@ScriptCompiler@v8@@SA?AV?$MaybeLocal@VScript@v8@@@2@V?$Local@VContext@v8@@@2@PEAVStreamedSource@12@V?$Local@VString@v8@@@2@AEBVScriptOrigin@2@@Z
    ?Compile@WasmModuleObject@v8@@SA?AV?$MaybeLocal@VWasmModuleObject@v8@@@2@PEAVIsolate@2@V?$MemorySpan@$$CBE@2@@Z=QQNT.original.dll.?Compile@WasmModuleObject@v8@@SA?AV?$MaybeLocal@VWasmModuleObject@v8@@@2@PEAVIsolate@2@V?$MemorySpan@$$CBE@2@@Z
    ?CompileFunction@ScriptCompiler@v8@@SA?AV?$MaybeLocal@VFunction@v8@@@2@V?$Local@VContext@v8@@@2@PEAVSource@12@_KQEAV?$Local@VString@v8@@@2@2QEAV?$Local@VObject@v8@@@2@W4CompileOptions@12@W4NoCacheReason@12@@Z=QQNT.original.dll.?CompileFunction@ScriptCompiler@v8@@SA?AV?$MaybeLocal@VFunction@v8@@@2@V?$Local@VContext@v8@@@2@PEAVSource@12@_KQEAV?$Local@VString@v8@@@2@2QEAV?$Local@VObject@v8@@@2@W4CompileOptions@12@W4NoCacheReason@12@@Z
    ?CompileModule@ScriptCompiler@v8@@SA?AV?$MaybeLocal@VModule@v8@@@2@PEAVIsolate@2@PEAVSource@12@W4CompileOptions@12@W4NoCacheReason@12@@Z=QQNT.original.dll.?CompileModule@ScriptCompiler@v8@@SA?AV?$MaybeLocal@VModule@v8@@@2@PEAVIsolate@2@PEAVSource@12@W4CompileOptions@12@W4NoCacheReason@12@@Z
    ?CompileModule@ScriptCompiler@v8@@SA?AV?$MaybeLocal@VModule@v8@@@2@V?$Local@VContext@v8@@@2@PEAVStreamedSource@12@V?$Local@VString@v8@@@2@AEBVScriptOrigin@2@@Z=QQNT.original.dll.?CompileModule@ScriptCompiler@v8@@SA?AV?$MaybeLocal@VModule@v8@@@2@V?$Local@VContext@v8@@@2@PEAVStreamedSource@12@V?$Local@VString@v8@@@2@AEBVScriptOrigin@2@@Z
    ?CompileOptionsIsValid@ScriptCompiler@v8@@SA_NW4CompileOptions@12@@Z=QQNT.original.dll.?CompileOptionsIsValid@ScriptCompiler@v8@@SA_NW4CompileOptions@12@@Z
    ?CompileUnboundInternal@ScriptCompiler@v8@@CA?AV?$MaybeLocal@VUnboundScript@v8@@@2@PEAVIsolate@2@PEAVSource@12@W4CompileOptions@12@W4NoCacheReason@12@@Z=QQNT.original.dll.?CompileUnboundInternal@ScriptCompiler@v8@@CA?AV?$MaybeLocal@VUnboundScript@v8@@@2@PEAVIsolate@2@PEAVSource@12@W4CompileOptions@12@W4NoCacheReason@12@@Z
    ?CompileUnboundScript@ScriptCompiler@v8@@SA?AV?$MaybeLocal@VUnboundScript@v8@@@2@PEAVIsolate@2@PEAVSource@12@W4CompileOptions@12@W4NoCacheReason@12@@Z=QQNT.original.dll.?CompileUnboundScript@ScriptCompiler@v8@@SA?AV?$MaybeLocal@VUnboundScript@v8@@@2@PEAVIsolate@2@PEAVSource@12@W4CompileOptions@12@W4NoCacheReason@12@@Z
    ?Concat@String@v8@@SA?AV?$Local@VString@v8@@@2@PEAVIsolate@2@V32@1@Z=QQNT.original.dll.?Concat@String@v8@@SA?AV?$Local@VString@v8@@@2@PEAVIsolate@2@V32@1@Z
    ?ConfigureDefaults@ResourceConstraints@v8@@QEAAX_K0@Z=QQNT.original.dll.?ConfigureDefaults@ResourceConstraints@v8@@QEAAX_K0@Z
    ?ConfigureDefaultsFromHeapSize@ResourceConstraints@v8@@QEAAX_K0@Z=QQNT.original.dll.?ConfigureDefaultsFromHeapSize@ResourceConstraints@v8@@QEAAX_K0@Z
    ?ContainsOnlyOneByte@String@v8@@QEBA_NXZ=QQNT.original.dll.?ContainsOnlyOneByte@String@v8@@QEBA_NXZ
    ?ContextDisposedNotification@Isolate@v8@@QEAAH_N@Z=QQNT.original.dll.?ContextDisposedNotification@Isolate@v8@@QEAAH_N@Z
    ?ConvertToJSGlobalProxyIfNecessary@api_internal@v8@@YA_K_K@Z=QQNT.original.dll.?ConvertToJSGlobalProxyIfNecessary@api_internal@v8@@YA_K_K@Z
    ?Copy@Buffer@node@@YA?AV?$MaybeLocal@VObject@v8@@@v8@@PEAVIsolate@4@PEBD_K@Z=QQNT.original.dll.?Copy@Buffer@node@@YA?AV?$MaybeLocal@VObject@v8@@@v8@@PEAVIsolate@4@PEBD_K@Z
    ?CopyCodePages@Isolate@v8@@QEAA_K_KPEAUMemoryRange@2@@Z=QQNT.original.dll.?CopyCodePages@Isolate@v8@@QEAA_K_KPEAUMemoryRange@2@@Z
    ?CopyContents@ArrayBufferView@v8@@QEAA_KPEAX_K@Z=QQNT.original.dll.?CopyContents@ArrayBufferView@v8@@QEAA_KPEAX_K@Z
    ?CopyGlobalReference@api_internal@v8@@YAPEA_KPEA_K@Z=QQNT.original.dll.?CopyGlobalReference@api_internal@v8@@YAPEA_KPEA_K@Z
    ?CopyNameForHeapSnapshot@HeapProfiler@v8@@QEAAPEBDPEBD@Z=QQNT.original.dll.?CopyNameForHeapSnapshot@HeapProfiler@v8@@QEAAPEBDPEBD@Z
    ?CopyTracedReference@internal@v8@@YAXPEBQEB_KPEAPEA_K@Z=QQNT.original.dll.?CopyTracedReference@internal@v8@@YAXPEBQEB_KPEAPEA_K@Z
    ?Create@ArrayBufferAllocator@node@@SA?AV?$unique_ptr@VArrayBufferAllocator@node@@U?$default_delete@VArrayBufferAllocator@node@@@__Cr@std@@@__Cr@std@@_N@Z=QQNT.original.dll.?Create@ArrayBufferAllocator@node@@SA?AV?$unique_ptr@VArrayBufferAllocator@node@@U?$default_delete@VArrayBufferAllocator@node@@@__Cr@std@@@__Cr@std@@_N@Z
    ?Create@CppHeap@v8@@SA?AV?$unique_ptr@VCppHeap@v8@@U?$default_delete@VCppHeap@v8@@@__Cr@std@@@__Cr@std@@PEAVPlatform@2@AEBUCppHeapCreateParams@2@@Z=QQNT.original.dll.?Create@CppHeap@v8@@SA?AV?$unique_ptr@VCppHeap@v8@@U?$default_delete@VCppHeap@v8@@@__Cr@std@@@__Cr@std@@PEAVPlatform@2@AEBUCppHeapCreateParams@2@@Z
    ?Create@Heap@cppgc@@SA?AV?$unique_ptr@VHeap@cppgc@@U?$default_delete@VHeap@cppgc@@@__Cr@std@@@__Cr@std@@V?$shared_ptr@VPlatform@cppgc@@@45@UHeapOptions@12@@Z=QQNT.original.dll.?Create@Heap@cppgc@@SA?AV?$unique_ptr@VHeap@cppgc@@U?$default_delete@VHeap@cppgc@@@__Cr@std@@@__Cr@std@@V?$shared_ptr@VPlatform@cppgc@@@45@UHeapOptions@12@@Z
    ?Create@MultiIsolatePlatform@node@@SA?AV?$unique_ptr@VMultiIsolatePlatform@node@@U?$default_delete@VMultiIsolatePlatform@node@@@__Cr@std@@@__Cr@std@@HPEAVTracingController@v8@@PEAVPageAllocator@7@@Z=QQNT.original.dll.?Create@MultiIsolatePlatform@node@@SA?AV?$unique_ptr@VMultiIsolatePlatform@node@@U?$default_delete@VMultiIsolatePlatform@node@@@__Cr@std@@@__Cr@std@@HPEAVTracingController@v8@@PEAVPageAllocator@7@@Z
    ?CreateAgent@node@@YAPEAVAgent@tracing@1@XZ=QQNT.original.dll.?CreateAgent@node@@YAPEAVAgent@tracing@1@XZ
    ?CreateArrayBufferAllocator@node@@YAPEAVArrayBufferAllocator@1@XZ=QQNT.original.dll.?CreateArrayBufferAllocator@node@@YAPEAVArrayBufferAllocator@1@XZ
    ?CreateBlob@SnapshotCreator@v8@@QEAA?AVStartupData@2@W4FunctionCodeHandling@12@@Z=QQNT.original.dll.?CreateBlob@SnapshotCreator@v8@@QEAA?AVStartupData@2@W4FunctionCodeHandling@12@@Z
    ?CreateCachedData@ModuleWrap@loader@node@@CAXAEBV?$FunctionCallbackInfo@VValue@v8@@@v8@@@Z=QQNT.original.dll.?CreateCachedData@ModuleWrap@loader@node@@CAXAEBV?$FunctionCallbackInfo@VValue@v8@@@v8@@@Z
    ?CreateCodeCache@ScriptCompiler@v8@@SAPEAUCachedData@12@V?$Local@VUnboundModuleScript@v8@@@2@@Z=QQNT.original.dll.?CreateCodeCache@ScriptCompiler@v8@@SAPEAUCachedData@12@V?$Local@VUnboundModuleScript@v8@@@2@@Z
    ?CreateCodeCache@ScriptCompiler@v8@@SAPEAUCachedData@12@V?$Local@VUnboundScript@v8@@@2@@Z=QQNT.original.dll.?CreateCodeCache@ScriptCompiler@v8@@SAPEAUCachedData@12@V?$Local@VUnboundScript@v8@@@2@@Z
    ?CreateCodeCacheForFunction@ScriptCompiler@v8@@SAPEAUCachedData@12@V?$Local@VFunction@v8@@@2@@Z=QQNT.original.dll.?CreateCodeCacheForFunction@ScriptCompiler@v8@@SAPEAUCachedData@12@V?$Local@VFunction@v8@@@2@@Z
    ?CreateDataProperty@Object@v8@@QEAA?AV?$Maybe@_N@2@V?$Local@VContext@v8@@@2@IV?$Local@VValue@v8@@@2@@Z=QQNT.original.dll.?CreateDataProperty@Object@v8@@QEAA?AV?$Maybe@_N@2@V?$Local@VContext@v8@@@2@IV?$Local@VValue@v8@@@2@@Z
    ?CreateDataProperty@Object@v8@@QEAA?AV?$Maybe@_N@2@V?$Local@VContext@v8@@@2@V?$Local@VName@v8@@@2@V?$Local@VValue@v8@@@2@@Z=QQNT.original.dll.?CreateDataProperty@Object@v8@@QEAA?AV?$Maybe@_N@2@V?$Local@VContext@v8@@@2@V?$Local@VName@v8@@@2@V?$Local@VValue@v8@@@2@@Z
    ?CreateEnvironment@node@@YAPEAVEnvironment@1@PEAVIsolateData@1@V?$Local@VContext@v8@@@v8@@AEBV?$vector@V?$basic_string@DU?$char_traits@D@__Cr@std@@V?$allocator@D@23@@__Cr@std@@V?$allocator@V?$basic_string@DU?$char_traits@D@__Cr@std@@V?$allocator@D@23@@__Cr@std@@@23@@__Cr@std@@2W4Flags@EnvironmentFlags@1@UThreadId@1@V?$unique_ptr@UInspectorParentHandle@node@@U?$default_delete@UInspectorParentHandle@node@@@__Cr@std@@@78@@Z=QQNT.original.dll.?CreateEnvironment@node@@YAPEAVEnvironment@1@PEAVIsolateData@1@V?$Local@VContext@v8@@@v8@@AEBV?$vector@V?$basic_string@DU?$char_traits@D@__Cr@std@@V?$allocator@D@23@@__Cr@std@@V?$allocator@V?$basic_string@DU?$char_traits@D@__Cr@std@@V?$allocator@D@23@@__Cr@std@@@23@@__Cr@std@@2W4Flags@EnvironmentFlags@1@UThreadId@1@V?$unique_ptr@UInspectorParentHandle@node@@U?$default_delete@UInspectorParentHandle@node@@@__Cr@std@@@78@@Z
    ?CreateForSnapshotting@CommonEnvironmentSetup@node@@SA?AV?$unique_ptr@VCommonEnvironmentSetup@node@@U?$default_delete@VCommonEnvironmentSetup@node@@@__Cr@std@@@__Cr@std@@PEAVMultiIsolatePlatform@2@PEAV?$vector@V?$basic_string@DU?$char_traits@D@__Cr@std@@V?$allocator@D@23@@__Cr@std@@V?$allocator@V?$basic_string@DU?$char_traits@D@__Cr@std@@V?$allocator@D@23@@__Cr@std@@@23@@45@AEBV745@2AEBUSnapshotConfig@2@@Z=QQNT.original.dll.?CreateForSnapshotting@CommonEnvironmentSetup@node@@SA?AV?$unique_ptr@VCommonEnvironmentSetup@node@@U?$default_delete@VCommonEnvironmentSetup@node@@@__Cr@std@@@__Cr@std@@PEAVMultiIsolatePlatform@2@PEAV?$vector@V?$basic_string@DU?$char_traits@D@__Cr@std@@V?$allocator@D@23@@__Cr@std@@V?$allocator@V?$basic_string@DU?$char_traits@D@__Cr@std@@V?$allocator@D@23@@__Cr@std@@@23@@45@AEBV745@2AEBUSnapshotConfig@2@@Z
    ?CreateHandle@HandleScope@v8@@KAPEA_KPEAVIsolate@internal@2@_K@Z=QQNT.original.dll.?CreateHandle@HandleScope@v8@@KAPEA_KPEAVIsolate@internal@2@_K@Z
    ?CreateIsolateData@node@@YAPEAVIsolateData@1@PEAVIsolate@v8@@PEAUuv_loop_s@@PEAVMultiIsolatePlatform@1@PEAVArrayBufferAllocator@1@PEBVEmbedderSnapshotData@1@@Z=QQNT.original.dll.?CreateIsolateData@node@@YAPEAVIsolateData@1@PEAVIsolate@v8@@PEAUuv_loop_s@@PEAVMultiIsolatePlatform@1@PEAVArrayBufferAllocator@1@PEBVEmbedderSnapshotData@1@@Z
    ?CreateMessage@Exception@v8@@SA?AV?$Local@VMessage@v8@@@2@PEAVIsolate@2@V?$Local@VValue@v8@@@2@@Z=QQNT.original.dll.?CreateMessage@Exception@v8@@SA?AV?$Local@VMessage@v8@@@2@PEAVIsolate@2@V?$Local@VValue@v8@@@2@@Z
    ?CreatePerContextProperties@ModuleWrap@loader@node@@SAXV?$Local@VObject@v8@@@v8@@V?$Local@VValue@v8@@@5@V?$Local@VContext@v8@@@5@PEAX@Z=QQNT.original.dll.?CreatePerContextProperties@ModuleWrap@loader@node@@SAXV?$Local@VObject@v8@@@v8@@V?$Local@VValue@v8@@@5@V?$Local@VContext@v8@@@5@PEAX@Z
    ?CreatePerIsolateProperties@ModuleWrap@loader@node@@SAXPEAVIsolateData@3@V?$Local@VObjectTemplate@v8@@@v8@@@Z=QQNT.original.dll.?CreatePerIsolateProperties@ModuleWrap@loader@node@@SAXPEAVIsolateData@3@V?$Local@VObjectTemplate@v8@@@v8@@@Z
    ?CreatePlatform@node@@YAPEAVMultiIsolatePlatform@1@HPEAVTracingController@v8@@@Z=QQNT.original.dll.?CreatePlatform@node@@YAPEAVMultiIsolatePlatform@1@HPEAVTracingController@v8@@@Z
    ?CreateSnapshot@CommonEnvironmentSetup@node@@QEAA?AV?$unique_ptr@$$CBVEmbedderSnapshotData@node@@UDeleteSnapshotData@12@@__Cr@std@@XZ=QQNT.original.dll.?CreateSnapshot@CommonEnvironmentSetup@node@@QEAA?AV?$unique_ptr@$$CBVEmbedderSnapshotData@node@@UDeleteSnapshotData@12@@__Cr@std@@XZ
    ?CreateSyntheticModule@Module@v8@@SA?AV?$Local@VModule@v8@@@2@PEAVIsolate@2@V?$Local@VString@v8@@@2@AEBV?$MemorySpan@$$CBV?$Local@VString@v8@@@v8@@@2@P6A?AV?$MaybeLocal@VValue@v8@@@2@V?$Local@VContext@v8@@@2@V32@@Z@Z=QQNT.original.dll.?CreateSyntheticModule@Module@v8@@SA?AV?$Local@VModule@v8@@@2@PEAVIsolate@2@V?$Local@VString@v8@@@2@AEBV?$MemorySpan@$$CBV?$Local@VString@v8@@@v8@@@2@P6A?AV?$MaybeLocal@VValue@v8@@@2@V?$Local@VContext@v8@@@2@V32@@Z@Z
    ?Current@SourceLocation@v8@@SA?AV12@PEBD0_K@Z=QQNT.original.dll.?Current@SourceLocation@v8@@SA?AV12@PEBD0_K@Z
    ?CurrentScriptNameOrSourceURL@StackTrace@v8@@SA?AV?$Local@VString@v8@@@2@PEAVIsolate@2@@Z=QQNT.original.dll.?CurrentScriptNameOrSourceURL@StackTrace@v8@@SA?AV?$Local@VString@v8@@@2@PEAVIsolate@2@@Z
    ?CurrentStackTrace@StackTrace@v8@@SA?AV?$Local@VStackTrace@v8@@@2@PEAVIsolate@2@HW4StackTraceOptions@12@@Z=QQNT.original.dll.?CurrentStackTrace@StackTrace@v8@@SA?AV?$Local@VStackTrace@v8@@@2@PEAVIsolate@2@HW4StackTraceOptions@12@@Z
    ?DCheckImpl@internal@cppgc@@YAXPEBDAEBVSourceLocation@v8@@@Z=QQNT.original.dll.?DCheckImpl@internal@cppgc@@YAXPEBDAEBVSourceLocation@v8@@@Z
    ?DOM@ReasonEnum@Paused@API@Debugger@protocol@v8_inspector@@3PEBDEB=QQNT.original.dll.?DOM@ReasonEnum@Paused@API@Debugger@protocol@v8_inspector@@3PEBDEB
    ?Data@ArrayBuffer@v8@@QEBAPEAXXZ=QQNT.original.dll.?Data@ArrayBuffer@v8@@QEBAPEAXXZ
    ?Data@BackingStore@v8@@QEBAPEAXXZ=QQNT.original.dll.?Data@BackingStore@v8@@QEBAPEAXXZ
    ?Data@Buffer@node@@YAPEADV?$Local@VObject@v8@@@v8@@@Z=QQNT.original.dll.?Data@Buffer@node@@YAPEADV?$Local@VObject@v8@@@v8@@@Z
    ?Data@Buffer@node@@YAPEADV?$Local@VValue@v8@@@v8@@@Z=QQNT.original.dll.?Data@Buffer@node@@YAPEADV?$Local@VValue@v8@@@v8@@@Z
    ?Data@SharedArrayBuffer@v8@@QEBAPEAXXZ=QQNT.original.dll.?Data@SharedArrayBuffer@v8@@QEBAPEAXXZ
    ?DateTimeConfigurationChangeNotification@Isolate@v8@@QEAAXW4TimeZoneDetection@12@@Z=QQNT.original.dll.?DateTimeConfigurationChangeNotification@Isolate@v8@@QEAAXW4TimeZoneDetection@12@@Z
    ?DebugCommand@ReasonEnum@Paused@API@Debugger@protocol@v8_inspector@@3PEBDEB=QQNT.original.dll.?DebugCommand@ReasonEnum@Paused@API@Debugger@protocol@v8_inspector@@3PEBDEB
    ?DecodeBytes@node@@YA_JPEAVIsolate@v8@@V?$Local@VValue@v8@@@3@W4encoding@1@@Z=QQNT.original.dll.?DecodeBytes@node@@YA_JPEAVIsolate@v8@@V?$Local@VValue@v8@@@3@W4encoding@1@@Z
    ?DecodeWrite@node@@YA_JPEAVIsolate@v8@@PEAD_KV?$Local@VValue@v8@@@3@W4encoding@1@@Z=QQNT.original.dll.?DecodeWrite@node@@YA_JPEAVIsolate@v8@@PEAD_KV?$Local@VValue@v8@@@3@W4encoding@1@@Z
    ?DeepFreeze@Context@v8@@QEAA?AV?$Maybe@X@2@PEAVDeepFreezeDelegate@12@@Z=QQNT.original.dll.?DeepFreeze@Context@v8@@QEAA?AV?$Maybe@X@2@PEAVDeepFreezeDelegate@12@@Z
    ?Default@MeasureMemoryDelegate@v8@@SA?AV?$unique_ptr@VMeasureMemoryDelegate@v8@@U?$default_delete@VMeasureMemoryDelegate@v8@@@__Cr@std@@@__Cr@std@@PEAVIsolate@2@V?$Local@VContext@v8@@@2@V?$Local@VResolver@Promise@v8@@@2@W4MeasureMemoryMode@2@@Z=QQNT.original.dll.?Default@MeasureMemoryDelegate@v8@@SA?AV?$unique_ptr@VMeasureMemoryDelegate@v8@@U?$default_delete@VMeasureMemoryDelegate@v8@@@__Cr@std@@@__Cr@std@@PEAVIsolate@2@V?$Local@VContext@v8@@@2@V?$Local@VResolver@Promise@v8@@@2@W4MeasureMemoryMode@2@@Z
    ?DefaultProcessExitHandler@node@@YAXPEAVEnvironment@1@H@Z=QQNT.original.dll.?DefaultProcessExitHandler@node@@YAXPEAVEnvironment@1@H@Z
    ?DeferTraceToMutatorThreadIfConcurrent@Visitor@cppgc@@UEAA_NPEBXP6AXPEAV12@0@Z_K@Z=QQNT.original.dll.?DeferTraceToMutatorThreadIfConcurrent@Visitor@cppgc@@UEAA_NPEBXP6AXPEAV12@0@Z_K@Z
    ?DefineOwnProperty@Object@v8@@QEAA?AV?$Maybe@_N@2@V?$Local@VContext@v8@@@2@V?$Local@VName@v8@@@2@V?$Local@VValue@v8@@@2@W4PropertyAttribute@2@@Z=QQNT.original.dll.?DefineOwnProperty@Object@v8@@QEAA?AV?$Maybe@_N@2@V?$Local@VContext@v8@@@2@V?$Local@VName@v8@@@2@V?$Local@VValue@v8@@@2@W4PropertyAttribute@2@@Z
    ?DefineProperty@Object@v8@@QEAA?AV?$Maybe@_N@2@V?$Local@VContext@v8@@@2@V?$Local@VName@v8@@@2@AEAVPropertyDescriptor@2@@Z=QQNT.original.dll.?DefineProperty@Object@v8@@QEAA?AV?$Maybe@_N@2@V?$Local@VContext@v8@@@2@V?$Local@VName@v8@@@2@AEAVPropertyDescriptor@2@@Z
    ?Delete@CpuProfile@v8@@QEAAXXZ=QQNT.original.dll.?Delete@CpuProfile@v8@@QEAAXXZ
    ?Delete@HeapSnapshot@v8@@QEAAXXZ=QQNT.original.dll.?Delete@HeapSnapshot@v8@@QEAAXXZ
    ?Delete@Map@v8@@QEAA?AV?$Maybe@_N@2@V?$Local@VContext@v8@@@2@V?$Local@VValue@v8@@@2@@Z=QQNT.original.dll.?Delete@Map@v8@@QEAA?AV?$Maybe@_N@2@V?$Local@VContext@v8@@@2@V?$Local@VValue@v8@@@2@@Z
    ?Delete@Object@v8@@QEAA?AV?$Maybe@_N@2@V?$Local@VContext@v8@@@2@I@Z=QQNT.original.dll.?Delete@Object@v8@@QEAA?AV?$Maybe@_N@2@V?$Local@VContext@v8@@@2@I@Z
    ?Delete@Object@v8@@QEAA?AV?$Maybe@_N@2@V?$Local@VContext@v8@@@2@V?$Local@VValue@v8@@@2@@Z=QQNT.original.dll.?Delete@Object@v8@@QEAA?AV?$Maybe@_N@2@V?$Local@VContext@v8@@@2@V?$Local@VValue@v8@@@2@@Z
    ?Delete@Set@v8@@QEAA?AV?$Maybe@_N@2@V?$Local@VContext@v8@@@2@V?$Local@VValue@v8@@@2@@Z=QQNT.original.dll.?Delete@Set@v8@@QEAA?AV?$Maybe@_N@2@V?$Local@VContext@v8@@@2@V?$Local@VValue@v8@@@2@@Z
    ?DeleteAllHeapSnapshots@HeapProfiler@v8@@QEAAXXZ=QQNT.original.dll.?DeleteAllHeapSnapshots@HeapProfiler@v8@@QEAAXXZ
    ?DeletePrivate@Object@v8@@QEAA?AV?$Maybe@_N@2@V?$Local@VContext@v8@@@2@V?$Local@VPrivate@v8@@@2@@Z=QQNT.original.dll.?DeletePrivate@Object@v8@@QEAA?AV?$Maybe@_N@2@V?$Local@VContext@v8@@@2@V?$Local@VPrivate@v8@@@2@@Z
    ?DependOnArrayBufferDetachingProtector@CompilationDependencies@compiler@internal@v8@@QEAA_NXZ=QQNT.original.dll.?DependOnArrayBufferDetachingProtector@CompilationDependencies@compiler@internal@v8@@QEAA_NXZ
    ?DependOnArrayIteratorProtector@CompilationDependencies@compiler@internal@v8@@QEAA_NXZ=QQNT.original.dll.?DependOnArrayIteratorProtector@CompilationDependencies@compiler@internal@v8@@QEAA_NXZ
    ?DependOnArraySpeciesProtector@CompilationDependencies@compiler@internal@v8@@QEAA_NXZ=QQNT.original.dll.?DependOnArraySpeciesProtector@CompilationDependencies@compiler@internal@v8@@QEAA_NXZ
    ?DependOnConsistentJSFunctionView@CompilationDependencies@compiler@internal@v8@@QEAAXVJSFunctionRef@234@@Z=QQNT.original.dll.?DependOnConsistentJSFunctionView@CompilationDependencies@compiler@internal@v8@@QEAAXVJSFunctionRef@234@@Z
    ?DependOnConstantInDictionaryPrototypeChain@CompilationDependencies@compiler@internal@v8@@QEAAXVMapRef@234@VNameRef@234@VObjectRef@234@W4PropertyKind@34@@Z=QQNT.original.dll.?DependOnConstantInDictionaryPrototypeChain@CompilationDependencies@compiler@internal@v8@@QEAAXVMapRef@234@VNameRef@234@VObjectRef@234@W4PropertyKind@34@@Z
    ?DependOnElementsKind@CompilationDependencies@compiler@internal@v8@@QEAAXVAllocationSiteRef@234@@Z=QQNT.original.dll.?DependOnElementsKind@CompilationDependencies@compiler@internal@v8@@QEAAXVAllocationSiteRef@234@@Z
    ?DependOnElementsKinds@CompilationDependencies@compiler@internal@v8@@QEAAXVAllocationSiteRef@234@@Z=QQNT.original.dll.?DependOnElementsKinds@CompilationDependencies@compiler@internal@v8@@QEAAXVAllocationSiteRef@234@@Z
    ?DependOnFieldConstness@CompilationDependencies@compiler@internal@v8@@QEAA?AW4PropertyConstness@34@VMapRef@234@0VInternalIndex@34@@Z=QQNT.original.dll.?DependOnFieldConstness@CompilationDependencies@compiler@internal@v8@@QEAA?AW4PropertyConstness@34@VMapRef@234@0VInternalIndex@34@@Z
    ?DependOnGlobalProperty@CompilationDependencies@compiler@internal@v8@@QEAAXVPropertyCellRef@234@@Z=QQNT.original.dll.?DependOnGlobalProperty@CompilationDependencies@compiler@internal@v8@@QEAAXVPropertyCellRef@234@@Z
    ?DependOnInitialMap@CompilationDependencies@compiler@internal@v8@@QEAA?AVMapRef@234@VJSFunctionRef@234@@Z=QQNT.original.dll.?DependOnInitialMap@CompilationDependencies@compiler@internal@v8@@QEAA?AVMapRef@234@VJSFunctionRef@234@@Z
    ?DependOnInitialMapInstanceSizePrediction@CompilationDependencies@compiler@internal@v8@@QEAA?AVSlackTrackingPrediction@234@VJSFunctionRef@234@@Z=QQNT.original.dll.?DependOnInitialMapInstanceSizePrediction@CompilationDependencies@compiler@internal@v8@@QEAA?AVSlackTrackingPrediction@234@VJSFunctionRef@234@@Z
    ?DependOnMegaDOMProtector@CompilationDependencies@compiler@internal@v8@@QEAA_NXZ=QQNT.original.dll.?DependOnMegaDOMProtector@CompilationDependencies@compiler@internal@v8@@QEAA_NXZ
    ?DependOnNoElementsProtector@CompilationDependencies@compiler@internal@v8@@QEAA_NXZ=QQNT.original.dll.?DependOnNoElementsProtector@CompilationDependencies@compiler@internal@v8@@QEAA_NXZ
    ?DependOnNoProfilingProtector@CompilationDependencies@compiler@internal@v8@@QEAA_NXZ=QQNT.original.dll.?DependOnNoProfilingProtector@CompilationDependencies@compiler@internal@v8@@QEAA_NXZ
    ?DependOnNoSlackTrackingChange@CompilationDependencies@compiler@internal@v8@@QEAAXVMapRef@234@@Z=QQNT.original.dll.?DependOnNoSlackTrackingChange@CompilationDependencies@compiler@internal@v8@@QEAAXVMapRef@234@@Z
    ?DependOnNoUndetectableObjectsProtector@CompilationDependencies@compiler@internal@v8@@QEAA_NXZ=QQNT.original.dll.?DependOnNoUndetectableObjectsProtector@CompilationDependencies@compiler@internal@v8@@QEAA_NXZ
    ?DependOnObjectSlotValue@CompilationDependencies@compiler@internal@v8@@QEAAXVHeapObjectRef@234@HVObjectRef@234@@Z=QQNT.original.dll.?DependOnObjectSlotValue@CompilationDependencies@compiler@internal@v8@@QEAAXVHeapObjectRef@234@HVObjectRef@234@@Z
    ?DependOnOwnConstantDataProperty@CompilationDependencies@compiler@internal@v8@@QEAAXVJSObjectRef@234@VMapRef@234@VFieldIndex@34@VObjectRef@234@@Z=QQNT.original.dll.?DependOnOwnConstantDataProperty@CompilationDependencies@compiler@internal@v8@@QEAAXVJSObjectRef@234@VMapRef@234@VFieldIndex@34@VObjectRef@234@@Z
    ?DependOnOwnConstantDictionaryProperty@CompilationDependencies@compiler@internal@v8@@QEAAXVJSObjectRef@234@VInternalIndex@34@VObjectRef@234@@Z=QQNT.original.dll.?DependOnOwnConstantDictionaryProperty@CompilationDependencies@compiler@internal@v8@@QEAAXVJSObjectRef@234@VInternalIndex@34@VObjectRef@234@@Z
    ?DependOnOwnConstantDoubleProperty@CompilationDependencies@compiler@internal@v8@@QEAAXVJSObjectRef@234@VMapRef@234@VFieldIndex@34@VFloat64@34@@Z=QQNT.original.dll.?DependOnOwnConstantDoubleProperty@CompilationDependencies@compiler@internal@v8@@QEAAXVJSObjectRef@234@VMapRef@234@VFieldIndex@34@VFloat64@34@@Z
    ?DependOnOwnConstantElement@CompilationDependencies@compiler@internal@v8@@QEAAXVJSObjectRef@234@IVObjectRef@234@@Z=QQNT.original.dll.?DependOnOwnConstantElement@CompilationDependencies@compiler@internal@v8@@QEAAXVJSObjectRef@234@IVObjectRef@234@@Z
    ?DependOnPretenureMode@CompilationDependencies@compiler@internal@v8@@QEAA?AW4AllocationType@34@VAllocationSiteRef@234@@Z=QQNT.original.dll.?DependOnPretenureMode@CompilationDependencies@compiler@internal@v8@@QEAA?AW4AllocationType@34@VAllocationSiteRef@234@@Z
    ?DependOnPromiseHookProtector@CompilationDependencies@compiler@internal@v8@@QEAA_NXZ=QQNT.original.dll.?DependOnPromiseHookProtector@CompilationDependencies@compiler@internal@v8@@QEAA_NXZ
    ?DependOnPromiseSpeciesProtector@CompilationDependencies@compiler@internal@v8@@QEAA_NXZ=QQNT.original.dll.?DependOnPromiseSpeciesProtector@CompilationDependencies@compiler@internal@v8@@QEAA_NXZ
    ?DependOnPromiseThenProtector@CompilationDependencies@compiler@internal@v8@@QEAA_NXZ=QQNT.original.dll.?DependOnPromiseThenProtector@CompilationDependencies@compiler@internal@v8@@QEAA_NXZ
    ?DependOnProtector@CompilationDependencies@compiler@internal@v8@@QEAA_NVPropertyCellRef@234@@Z=QQNT.original.dll.?DependOnProtector@CompilationDependencies@compiler@internal@v8@@QEAA_NVPropertyCellRef@234@@Z
    ?DependOnPrototypeProperty@CompilationDependencies@compiler@internal@v8@@QEAA?AVHeapObjectRef@234@VJSFunctionRef@234@@Z=QQNT.original.dll.?DependOnPrototypeProperty@CompilationDependencies@compiler@internal@v8@@QEAA?AVHeapObjectRef@234@VJSFunctionRef@234@@Z
    ?DependOnScriptContextSlotProperty@CompilationDependencies@compiler@internal@v8@@QEAA_NVContextRef@234@_KW4Property@ContextSidePropertyCell@34@PEAVJSHeapBroker@234@@Z=QQNT.original.dll.?DependOnScriptContextSlotProperty@CompilationDependencies@compiler@internal@v8@@QEAA_NVContextRef@234@_KW4Property@ContextSidePropertyCell@34@PEAVJSHeapBroker@234@@Z
    ?DependOnStableMap@CompilationDependencies@compiler@internal@v8@@QEAAXVMapRef@234@@Z=QQNT.original.dll.?DependOnStableMap@CompilationDependencies@compiler@internal@v8@@QEAAXVMapRef@234@@Z
    ?DependOnStablePrototypeChain@CompilationDependencies@compiler@internal@v8@@QEAAXVMapRef@234@W4WhereToStart@34@V?$OptionalRef@VJSObjectRef@compiler@internal@v8@@@234@@Z=QQNT.original.dll.?DependOnStablePrototypeChain@CompilationDependencies@compiler@internal@v8@@QEAAXVMapRef@234@W4WhereToStart@34@V?$OptionalRef@VJSObjectRef@compiler@internal@v8@@@234@@Z
    ?DependOnStablePrototypeChains@CompilationDependencies@compiler@internal@v8@@QEAAXAEBV?$ZoneVector@VMapRef@compiler@internal@v8@@@34@W4WhereToStart@34@V?$OptionalRef@VJSObjectRef@compiler@internal@v8@@@234@@Z=QQNT.original.dll.?DependOnStablePrototypeChains@CompilationDependencies@compiler@internal@v8@@QEAAXAEBV?$ZoneVector@VMapRef@compiler@internal@v8@@@34@W4WhereToStart@34@V?$OptionalRef@VJSObjectRef@compiler@internal@v8@@@234@@Z
    ?DependOnStringWrapperToPrimitiveProtector@CompilationDependencies@compiler@internal@v8@@QEAA_NXZ=QQNT.original.dll.?DependOnStringWrapperToPrimitiveProtector@CompilationDependencies@compiler@internal@v8@@QEAA_NXZ
    ?Dequeue@OptimizingCompileDispatcherQueue@internal@v8@@QEAAPEAVTurbofanCompilationJob@23@XZ=QQNT.original.dll.?Dequeue@OptimizingCompileDispatcherQueue@internal@v8@@QEAAPEAVTurbofanCompilationJob@23@XZ
    ?Description@Symbol@v8@@QEBA?AV?$Local@VValue@v8@@@2@PEAVIsolate@2@@Z=QQNT.original.dll.?Description@Symbol@v8@@QEBA?AV?$Local@VValue@v8@@@2@PEAVIsolate@2@@Z
    ?Detach@ArrayBuffer@v8@@QEAA?AV?$Maybe@_N@2@V?$Local@VValue@v8@@@2@@Z=QQNT.original.dll.?Detach@ArrayBuffer@v8@@QEAA?AV?$Maybe@_N@2@V?$Local@VValue@v8@@@2@@Z
    ?Detach@ArrayBuffer@v8@@QEAAXXZ=QQNT.original.dll.?Detach@ArrayBuffer@v8@@QEAAXXZ
    ?DetachCppHeap@Isolate@v8@@QEAAXXZ=QQNT.original.dll.?DetachCppHeap@Isolate@v8@@QEAAXXZ
    ?DetachGlobal@Context@v8@@QEAAXXZ=QQNT.original.dll.?DetachGlobal@Context@v8@@QEAAXXZ
    ?DijkstraMarkingBarrier@WriteBarrier@internal@cppgc@@SAXAEBUParams@123@PEBX@Z=QQNT.original.dll.?DijkstraMarkingBarrier@WriteBarrier@internal@cppgc@@SAXAEBUParams@123@PEBX@Z
    ?DijkstraMarkingBarrierRange@WriteBarrier@internal@cppgc@@SAXAEBUParams@123@PEBX_K2P6AXPEAVVisitor@3@1@Z@Z=QQNT.original.dll.?DijkstraMarkingBarrierRange@WriteBarrier@internal@cppgc@@SAXAEBUParams@123@PEBX_K2P6AXPEAVVisitor@3@1@Z@Z
    ?DijkstraMarkingBarrierRangeSlow@WriteBarrier@internal@cppgc@@CAXAEAVHeapHandle@3@PEBX_K2P6AXPEAVVisitor@3@1@Z@Z=QQNT.original.dll.?DijkstraMarkingBarrierRangeSlow@WriteBarrier@internal@cppgc@@CAXAEAVHeapHandle@3@PEBX_K2P6AXPEAVVisitor@3@1@Z@Z
    ?DijkstraMarkingBarrierSlow@WriteBarrier@internal@cppgc@@CAXPEBX@Z=QQNT.original.dll.?DijkstraMarkingBarrierSlow@WriteBarrier@internal@cppgc@@CAXPEBX@Z
    ?DijkstraMarkingBarrierSlowWithSentinelCheck@WriteBarrier@internal@cppgc@@CAXPEBX@Z=QQNT.original.dll.?DijkstraMarkingBarrierSlowWithSentinelCheck@WriteBarrier@internal@cppgc@@CAXPEBX@Z
    ?Disable@CodeEventHandler@v8@@QEAAXXZ=QQNT.original.dll.?Disable@CodeEventHandler@v8@@QEAAXXZ
    ?DiscardThreadSpecificMetadata@Isolate@v8@@QEAAXXZ=QQNT.original.dll.?DiscardThreadSpecificMetadata@Isolate@v8@@QEAAXXZ
    ?Dispose@CpuProfiler@v8@@QEAAXXZ=QQNT.original.dll.?Dispose@CpuProfiler@v8@@QEAAXXZ
    ?Dispose@ExternalStringResourceBase@String@v8@@MEAAXXZ=QQNT.original.dll.?Dispose@ExternalStringResourceBase@String@v8@@MEAAXXZ
    ?Dispose@Isolate@v8@@QEAAXXZ=QQNT.original.dll.?Dispose@Isolate@v8@@QEAAXXZ
    ?Dispose@V8@v8@@SA_NXZ=QQNT.original.dll.?Dispose@V8@v8@@SA_NXZ
    ?DisposeGlobal@api_internal@v8@@YAXPEA_K@Z=QQNT.original.dll.?DisposeGlobal@api_internal@v8@@YAXPEA_K@Z
    ?DisposePlatform@V8@v8@@SAXXZ=QQNT.original.dll.?DisposePlatform@V8@v8@@SAXXZ
    ?DisposeTracedReference@internal@v8@@YAXPEA_K@Z=QQNT.original.dll.?DisposeTracedReference@internal@v8@@YAXPEA_K@Z
    ?DumpAndResetStats@Isolate@v8@@QEAAXXZ=QQNT.original.dll.?DumpAndResetStats@Isolate@v8@@QEAAXXZ
    ?DumpAsyncTaskStacksStateForTest@v8_inspector@@YAXPEAVV8Inspector@1@@Z=QQNT.original.dll.?DumpAsyncTaskStacksStateForTest@v8_inspector@@YAXPEAVV8Inspector@1@@Z
    ?EmitAsyncDestroy@node@@YAXPEAVEnvironment@1@Uasync_context@1@@Z=QQNT.original.dll.?EmitAsyncDestroy@node@@YAXPEAVEnvironment@1@Uasync_context@1@@Z
    ?EmitAsyncDestroy@node@@YAXPEAVIsolate@v8@@Uasync_context@1@@Z=QQNT.original.dll.?EmitAsyncDestroy@node@@YAXPEAVIsolate@v8@@Uasync_context@1@@Z
    ?EmitAsyncInit@node@@YA?AUasync_context@1@PEAVIsolate@v8@@V?$Local@VObject@v8@@@4@PEBDN@Z=QQNT.original.dll.?EmitAsyncInit@node@@YA?AUasync_context@1@PEAVIsolate@v8@@V?$Local@VObject@v8@@@4@PEBDN@Z
    ?EmitAsyncInit@node@@YA?AUasync_context@1@PEAVIsolate@v8@@V?$Local@VObject@v8@@@4@V?$Local@VString@v8@@@4@N@Z=QQNT.original.dll.?EmitAsyncInit@node@@YA?AUasync_context@1@PEAVIsolate@v8@@V?$Local@VObject@v8@@@4@V?$Local@VString@v8@@@4@N@Z
    ?EmitBeforeExit@node@@YAXPEAVEnvironment@1@@Z=QQNT.original.dll.?EmitBeforeExit@node@@YAXPEAVEnvironment@1@@Z
    ?EmitExit@node@@YAHPEAVEnvironment@1@@Z=QQNT.original.dll.?EmitExit@node@@YAHPEAVEnvironment@1@@Z
    ?EmitProcessBeforeExit@node@@YA?AV?$Maybe@_N@v8@@PEAVEnvironment@1@@Z=QQNT.original.dll.?EmitProcessBeforeExit@node@@YA?AV?$Maybe@_N@v8@@PEAVEnvironment@1@@Z
    ?EmitProcessExit@node@@YA?AV?$Maybe@H@v8@@PEAVEnvironment@1@@Z=QQNT.original.dll.?EmitProcessExit@node@@YA?AV?$Maybe@H@v8@@PEAVEnvironment@1@@Z
    ?Empty@JitPageReference@ThreadIsolation@internal@v8@@QEBA_NXZ=QQNT.original.dll.?Empty@JitPageReference@ThreadIsolation@internal@v8@@QEBA_NXZ
    ?Empty@String@v8@@SA?AV?$Local@VString@v8@@@2@PEAVIsolate@2@@Z=QQNT.original.dll.?Empty@String@v8@@SA?AV?$Local@VString@v8@@@2@PEAVIsolate@2@@Z
    ?EmptyDeleter@BackingStore@v8@@SAXPEAX_K0@Z=QQNT.original.dll.?EmptyDeleter@BackingStore@v8@@SAXPEAX_K0@Z
    ?Enable@CodeEventHandler@v8@@QEAAXXZ=QQNT.original.dll.?Enable@CodeEventHandler@v8@@QEAAXXZ
    ?EnableDetachedGarbageCollectionsForTesting@CppHeap@v8@@QEAAXXZ=QQNT.original.dll.?EnableDetachedGarbageCollectionsForTesting@CppHeap@v8@@QEAAXXZ
    ?EnableWebAssemblyTrapHandler@V8@v8@@SA_N_N@Z=QQNT.original.dll.?EnableWebAssemblyTrapHandler@V8@v8@@SA_N_N@Z
    ?Enabled@ThreadIsolation@internal@v8@@SA_NXZ=QQNT.original.dll.?Enabled@ThreadIsolation@internal@v8@@SA_NXZ
    ?Encode@node@@YA?AV?$Local@VValue@v8@@@v8@@PEAVIsolate@3@PEBD_KW4encoding@1@@Z=QQNT.original.dll.?Encode@node@@YA?AV?$Local@VValue@v8@@@v8@@PEAVIsolate@3@PEBD_KW4encoding@1@@Z
    ?Encode@node@@YA?AV?$Local@VValue@v8@@@v8@@PEAVIsolate@3@PEBG_K@Z=QQNT.original.dll.?Encode@node@@YA?AV?$Local@VValue@v8@@@v8@@PEAVIsolate@3@PEBG_K@Z
    ?End@JitPageReference@ThreadIsolation@internal@v8@@QEBA_KXZ=QQNT.original.dll.?End@JitPageReference@ThreadIsolation@internal@v8@@QEBA_KXZ
    ?Enqueue@OptimizingCompileDispatcherQueue@internal@v8@@QEAAXPEAVTurbofanCompilationJob@23@@Z=QQNT.original.dll.?Enqueue@OptimizingCompileDispatcherQueue@internal@v8@@QEAAXPEAVTurbofanCompilationJob@23@@Z
    ?EnqueueMicrotask@Isolate@v8@@QEAAXP6AXPEAX@Z0@Z=QQNT.original.dll.?EnqueueMicrotask@Isolate@v8@@QEAAXP6AXPEAX@Z0@Z
    ?EnqueueMicrotask@Isolate@v8@@QEAAXV?$Local@VFunction@v8@@@2@@Z=QQNT.original.dll.?EnqueueMicrotask@Isolate@v8@@QEAAXV?$Local@VFunction@v8@@@2@@Z
    ?EnsureGCInfoIndex@EnsureGCInfoIndexTrait@internal@cppgc@@CUGAEAU?$atomic@G@__Cr@std@@P6AXPEAVVisitor@3@PEBX@Z@Z=QQNT.original.dll.?EnsureGCInfoIndex@EnsureGCInfoIndexTrait@internal@cppgc@@CUGAEAU?$atomic@G@__Cr@std@@P6AXPEAVVisitor@3@PEBX@Z@Z
    ?EnsureGCInfoIndex@EnsureGCInfoIndexTrait@internal@cppgc@@CUGAEAU?$atomic@G@__Cr@std@@P6AXPEAVVisitor@3@PEBX@ZP6A?AUHeapObjectName@23@2W4HeapObjectNameForUnnamedObject@23@@Z@Z=QQNT.original.dll.?EnsureGCInfoIndex@EnsureGCInfoIndexTrait@internal@cppgc@@CUGAEAU?$atomic@G@__Cr@std@@P6AXPEAVVisitor@3@PEBX@ZP6A?AUHeapObjectName@23@2W4HeapObjectNameForUnnamedObject@23@@Z@Z
    ?EnsureGCInfoIndex@EnsureGCInfoIndexTrait@internal@cppgc@@CUGAEAU?$atomic@G@__Cr@std@@P6AXPEAVVisitor@3@PEBX@ZP6AXPEAX@Z@Z=QQNT.original.dll.?EnsureGCInfoIndex@EnsureGCInfoIndexTrait@internal@cppgc@@CUGAEAU?$atomic@G@__Cr@std@@P6AXPEAVVisitor@3@PEBX@ZP6AXPEAX@Z@Z
    ?EnsureGCInfoIndex@EnsureGCInfoIndexTrait@internal@cppgc@@CUGAEAU?$atomic@G@__Cr@std@@P6AXPEAVVisitor@3@PEBX@ZP6AXPEAX@ZP6A?AUHeapObjectName@23@2W4HeapObjectNameForUnnamedObject@23@@Z@Z=QQNT.original.dll.?EnsureGCInfoIndex@EnsureGCInfoIndexTrait@internal@cppgc@@CUGAEAU?$atomic@G@__Cr@std@@P6AXPEAVVisitor@3@PEBX@ZP6AXPEAX@ZP6A?AUHeapObjectName@23@2W4HeapObjectNameForUnnamedObject@23@@Z@Z
    ?Enter@Context@v8@@QEAAXXZ=QQNT.original.dll.?Enter@Context@v8@@QEAAXXZ
    ?Enter@DisallowGarbageCollectionScope@subtle@cppgc@@SAXAEAVHeapHandle@3@@Z=QQNT.original.dll.?Enter@DisallowGarbageCollectionScope@subtle@cppgc@@SAXAEAVHeapHandle@3@@Z
    ?Enter@Isolate@v8@@QEAAXXZ=QQNT.original.dll.?Enter@Isolate@v8@@QEAAXXZ
    ?Enter@NoGarbageCollectionScope@subtle@cppgc@@SAXAEAVHeapHandle@3@@Z=QQNT.original.dll.?Enter@NoGarbageCollectionScope@subtle@cppgc@@SAXAEAVHeapHandle@3@@Z
    ?Equals@Value@v8@@QEBA?AV?$Maybe@_N@2@V?$Local@VContext@v8@@@2@V?$Local@VValue@v8@@@2@@Z=QQNT.original.dll.?Equals@Value@v8@@QEBA?AV?$Maybe@_N@2@V?$Local@VContext@v8@@@2@V?$Local@VValue@v8@@@2@@Z
    ?ErrnoException@node@@YA?AV?$Local@VValue@v8@@@v8@@PEAVIsolate@3@HPEBD11@Z=QQNT.original.dll.?ErrnoException@node@@YA?AV?$Local@VValue@v8@@@v8@@PEAVIsolate@3@HPEBD11@Z
    ?Error@Exception@v8@@SA?AV?$Local@VValue@v8@@@2@V?$Local@VString@v8@@@2@V32@@Z=QQNT.original.dll.?Error@Exception@v8@@SA?AV?$Local@VValue@v8@@@2@V?$Local@VString@v8@@@2@V32@@Z
    ?ErrorLevel@Message@v8@@QEBAHXZ=QQNT.original.dll.?ErrorLevel@Message@v8@@QEBAHXZ
    ?EscapeSlot@EscapableHandleScopeBase@v8@@IEAAPEA_KPEA_K@Z=QQNT.original.dll.?EscapeSlot@EscapableHandleScopeBase@v8@@IEAAPEA_KPEA_K@Z
    ?Eternalize@api_internal@v8@@YAPEA_KPEAVIsolate@2@PEAVValue@2@@Z=QQNT.original.dll.?Eternalize@api_internal@v8@@YAPEA_KPEAVIsolate@2@PEAVValue@2@@Z
    ?Evaluate@Module@v8@@QEAA?AV?$MaybeLocal@VValue@v8@@@2@V?$Local@VContext@v8@@@2@@Z=QQNT.original.dll.?Evaluate@Module@v8@@QEAA?AV?$MaybeLocal@VValue@v8@@@2@V?$Local@VContext@v8@@@2@@Z
    ?Evaluate@ModuleWrap@loader@node@@CAXAEBV?$FunctionCallbackInfo@VValue@v8@@@v8@@@Z=QQNT.original.dll.?Evaluate@ModuleWrap@loader@node@@CAXAEBV?$FunctionCallbackInfo@VValue@v8@@@v8@@@Z
    ?EvaluateSync@ModuleWrap@loader@node@@CAXAEBV?$FunctionCallbackInfo@VValue@v8@@@v8@@@Z=QQNT.original.dll.?EvaluateSync@ModuleWrap@loader@node@@CAXAEBV?$FunctionCallbackInfo@VValue@v8@@@v8@@@Z
    ?EventListener@ReasonEnum@Paused@API@Debugger@protocol@v8_inspector@@3PEBDEB=QQNT.original.dll.?EventListener@ReasonEnum@Paused@API@Debugger@protocol@v8_inspector@@3PEBDEB
    ?Exception@ReasonEnum@Paused@API@Debugger@protocol@v8_inspector@@3PEBDEB=QQNT.original.dll.?Exception@ReasonEnum@Paused@API@Debugger@protocol@v8_inspector@@3PEBDEB
    ?Exception@TryCatch@v8@@QEBA?AV?$Local@VValue@v8@@@2@XZ=QQNT.original.dll.?Exception@TryCatch@v8@@QEBA?AV?$Local@VValue@v8@@@2@XZ
    ?Exec@RegExp@v8@@QEAA?AV?$MaybeLocal@VObject@v8@@@2@V?$Local@VContext@v8@@@2@V?$Local@VString@v8@@@2@@Z=QQNT.original.dll.?Exec@RegExp@v8@@QEAA?AV?$MaybeLocal@VObject@v8@@@2@V?$Local@VContext@v8@@@2@V?$Local@VString@v8@@@2@@Z
    ?Exit@Context@v8@@QEAAXXZ=QQNT.original.dll.?Exit@Context@v8@@QEAAXXZ
    ?Exit@Isolate@v8@@QEAAXXZ=QQNT.original.dll.?Exit@Isolate@v8@@QEAAXXZ
    ?Expand@JitPageReference@ThreadIsolation@internal@v8@@QEAAX_K@Z=QQNT.original.dll.?Expand@JitPageReference@ThreadIsolation@internal@v8@@QEAAX_K@Z
    ?Experimental_IsNopFunction@Function@v8@@QEBA_NXZ=QQNT.original.dll.?Experimental_IsNopFunction@Function@v8@@QEBA_NXZ
    ?Fatal@internal@cppgc@@YAXAEBV?$basic_string@DU?$char_traits@D@__Cr@std@@V?$allocator@D@23@@__Cr@std@@AEBVSourceLocation@v8@@@Z=QQNT.original.dll.?Fatal@internal@cppgc@@YAXAEBV?$basic_string@DU?$char_traits@D@__Cr@std@@V?$allocator@D@23@@__Cr@std@@AEBVSourceLocation@v8@@@Z
    ?FatalException@node@@YAXPEAVIsolate@v8@@AEBVTryCatch@3@@Z=QQNT.original.dll.?FatalException@node@@YAXPEAVIsolate@v8@@AEBVTryCatch@3@@Z
    ?FatalImpl@internal@cppgc@@YAXPEBDAEBVSourceLocation@v8@@@Z=QQNT.original.dll.?FatalImpl@internal@cppgc@@YAXPEBDAEBVSourceLocation@v8@@@Z
    ?FieldRepresentationDependencyOffTheRecord@CompilationDependencies@compiler@internal@v8@@QEBAPEBVCompilationDependency@234@VMapRef@234@0VInternalIndex@34@VRepresentation@34@@Z=QQNT.original.dll.?FieldRepresentationDependencyOffTheRecord@CompilationDependencies@compiler@internal@v8@@QEBAPEBVCompilationDependency@234@VMapRef@234@0VInternalIndex@34@VRepresentation@34@@Z
    ?FieldTypeDependencyOffTheRecord@CompilationDependencies@compiler@internal@v8@@QEBAPEBVCompilationDependency@234@VMapRef@234@0VInternalIndex@34@VObjectRef@234@@Z=QQNT.original.dll.?FieldTypeDependencyOffTheRecord@CompilationDependencies@compiler@internal@v8@@QEBAPEBVCompilationDependency@234@VMapRef@234@0VInternalIndex@34@VObjectRef@234@@Z
    ?FileName@SourceLocation@v8@@QEBAPEBDXZ=QQNT.original.dll.?FileName@SourceLocation@v8@@QEBAPEBDXZ
    ?FinalizeGarbageCollection@StandaloneTestingHeap@testing@cppgc@@QEAAXW4EmbedderStackState@3@@Z=QQNT.original.dll.?FinalizeGarbageCollection@StandaloneTestingHeap@testing@cppgc@@QEAAXW4EmbedderStackState@3@@Z
    ?FindInstanceInPrototypeChain@Object@v8@@QEAA?AV?$Local@VObject@v8@@@2@V?$Local@VFunctionTemplate@v8@@@2@@Z=QQNT.original.dll.?FindInstanceInPrototypeChain@Object@v8@@QEAA?AV?$Local@VObject@v8@@@2@V?$Local@VFunctionTemplate@v8@@@2@@Z
    ?FindKnownSerializedValue@V8SerializationDuplicateTracker@v8_inspector@@AEAAPEAVDictionaryValue@protocol@2@V?$Local@VValue@v8@@@v8@@@Z=QQNT.original.dll.?FindKnownSerializedValue@V8SerializationDuplicateTracker@v8_inspector@@AEAAPEAVDictionaryValue@protocol@2@V?$Local@VValue@v8@@@v8@@@Z
    ?FindObjectById@HeapProfiler@v8@@QEAA?AV?$Local@VValue@v8@@@2@I@Z=QQNT.original.dll.?FindObjectById@HeapProfiler@v8@@QEAA?AV?$Local@VValue@v8@@@2@I@Z
    ?Finish@WasmStreaming@v8@@QEAAX_N@Z=QQNT.original.dll.?Finish@WasmStreaming@v8@@QEAAX_N@Z
    ?Flush@OptimizingCompileDispatcherQueue@internal@v8@@QEAAXPEAVIsolate@23@@Z=QQNT.original.dll.?Flush@OptimizingCompileDispatcherQueue@internal@v8@@QEAAXPEAVIsolate@23@@Z
    ?For@Symbol@v8@@SA?AV?$Local@VSymbol@v8@@@2@PEAVIsolate@2@V?$Local@VString@v8@@@2@@Z=QQNT.original.dll.?For@Symbol@v8@@SA?AV?$Local@VSymbol@v8@@@2@PEAVIsolate@2@V?$Local@VString@v8@@@2@@Z
    ?ForApi@Private@v8@@SA?AV?$Local@VPrivate@v8@@@2@PEAVIsolate@2@V?$Local@VString@v8@@@2@@Z=QQNT.original.dll.?ForApi@Private@v8@@SA?AV?$Local@VPrivate@v8@@@2@PEAVIsolate@2@V?$Local@VString@v8@@@2@@Z
    ?ForApi@Symbol@v8@@SA?AV?$Local@VSymbol@v8@@@2@PEAVIsolate@2@V?$Local@VString@v8@@@2@@Z=QQNT.original.dll.?ForApi@Symbol@v8@@SA?AV?$Local@VSymbol@v8@@@2@PEAVIsolate@2@V?$Local@VString@v8@@@2@@Z
    ?ForceCompactionForNextGarbageCollection@StandaloneTestingHeap@testing@cppgc@@QEAAXXZ=QQNT.original.dll.?ForceCompactionForNextGarbageCollection@StandaloneTestingHeap@testing@cppgc@@QEAAXXZ
    ?ForceGarbageCollectionSlow@Heap@cppgc@@QEAAXPEBD0W4EmbedderStackState@2@@Z=QQNT.original.dll.?ForceGarbageCollectionSlow@Heap@cppgc@@QEAAXPEBD0W4EmbedderStackState@2@@Z
    ?FreeArrayBufferAllocator@node@@YAXPEAVArrayBufferAllocator@1@@Z=QQNT.original.dll.?FreeArrayBufferAllocator@node@@YAXPEAVArrayBufferAllocator@1@@Z
    ?FreeBufferMemory@Delegate@ValueSerializer@v8@@UEAAXPEAX@Z=QQNT.original.dll.?FreeBufferMemory@Delegate@ValueSerializer@v8@@UEAAXPEAX@Z
    ?FreeEnvironment@node@@YAXPEAVEnvironment@1@@Z=QQNT.original.dll.?FreeEnvironment@node@@YAXPEAVEnvironment@1@@Z
    ?FreeIsolateData@node@@YAXPEAVIsolateData@1@@Z=QQNT.original.dll.?FreeIsolateData@node@@YAXPEAVIsolateData@1@@Z
    ?FreeNode@CrossThreadPersistentRegion@internal@cppgc@@QEAAXPEAVPersistentNode@23@@Z=QQNT.original.dll.?FreeNode@CrossThreadPersistentRegion@internal@cppgc@@QEAAXPEAVPersistentNode@23@@Z
    ?FreeNode@PersistentRegion@internal@cppgc@@QEAAXPEAVPersistentNode@23@@Z=QQNT.original.dll.?FreeNode@PersistentRegion@internal@cppgc@@QEAAXPEAVPersistentNode@23@@Z
    ?FreeNode@PersistentRegionBase@internal@cppgc@@IEAAXPEAVPersistentNode@23@@Z=QQNT.original.dll.?FreeNode@PersistentRegionBase@internal@cppgc@@IEAAXPEAVPersistentNode@23@@Z
    ?FreePlatform@node@@YAXPEAVMultiIsolatePlatform@1@@Z=QQNT.original.dll.?FreePlatform@node@@YAXPEAVMultiIsolatePlatform@1@@Z
    ?FreeUnreferencedObject@ExplicitManagementImpl@internal@cppgc@@CAXAEAVHeapHandle@3@PEAX@Z=QQNT.original.dll.?FreeUnreferencedObject@ExplicitManagementImpl@internal@cppgc@@CAXAEAVHeapHandle@3@PEAX@Z
    ?FromCompiledModule@WasmModuleObject@v8@@SA?AV?$MaybeLocal@VWasmModuleObject@v8@@@2@PEAVIsolate@2@AEBVCompiledWasmModule@2@@Z=QQNT.original.dll.?FromCompiledModule@WasmModuleObject@v8@@SA?AV?$MaybeLocal@VWasmModuleObject@v8@@@2@PEAVIsolate@2@AEBVCompiledWasmModule@2@@Z
    ?FromJustIsNothing@api_internal@v8@@YAXXZ=QQNT.original.dll.?FromJustIsNothing@api_internal@v8@@YAXXZ
    ?FromSnapshot@Context@v8@@SA?AV?$MaybeLocal@VContext@v8@@@2@PEAVIsolate@2@_KUDeserializeInternalFieldsCallback@2@PEAVExtensionConfiguration@2@V?$MaybeLocal@VValue@v8@@@2@PEAVMicrotaskQueue@2@UDeserializeContextDataCallback@2@UDeserializeAPIWrapperCallback@2@@Z=QQNT.original.dll.?FromSnapshot@Context@v8@@SA?AV?$MaybeLocal@VContext@v8@@@2@PEAVIsolate@2@_KUDeserializeInternalFieldsCallback@2@PEAVExtensionConfiguration@2@V?$MaybeLocal@VValue@v8@@@2@PEAVMicrotaskQueue@2@UDeserializeContextDataCallback@2@UDeserializeAPIWrapperCallback@2@@Z
    ?FullIsFalse@Value@v8@@AEBA_NXZ=QQNT.original.dll.?FullIsFalse@Value@v8@@AEBA_NXZ
    ?FullIsNull@Value@v8@@AEBA_NXZ=QQNT.original.dll.?FullIsNull@Value@v8@@AEBA_NXZ
    ?FullIsString@Value@v8@@AEBA_NXZ=QQNT.original.dll.?FullIsString@Value@v8@@AEBA_NXZ
    ?FullIsTrue@Value@v8@@AEBA_NXZ=QQNT.original.dll.?FullIsTrue@Value@v8@@AEBA_NXZ
    ?FullIsUndefined@Value@v8@@AEBA_NXZ=QQNT.original.dll.?FullIsUndefined@Value@v8@@AEBA_NXZ
    ?Function@SourceLocation@v8@@QEBAPEBDXZ=QQNT.original.dll.?Function@SourceLocation@v8@@QEBAPEBDXZ
    ?FunctionProtoToString@Function@v8@@QEAA?AV?$MaybeLocal@VString@v8@@@2@V?$Local@VContext@v8@@@2@@Z=QQNT.original.dll.?FunctionProtoToString@Function@v8@@QEAA?AV?$MaybeLocal@VString@v8@@@2@V?$Local@VContext@v8@@@2@@Z
    ?GCInfoFromIndex@GCInfoTable@internal@cppgc@@QEBAAEBUGCInfo@23@G@Z=QQNT.original.dll.?GCInfoFromIndex@GCInfoTable@internal@cppgc@@QEBAAEBUGCInfo@23@G@Z
    ?GCInfoFromIndex@GlobalGCInfoTable@internal@cppgc@@SAAEBUGCInfo@23@G@Z=QQNT.original.dll.?GCInfoFromIndex@GlobalGCInfoTable@internal@cppgc@@SAAEBUGCInfo@23@G@Z
    ?GenerationalBarrierForSourceObjectSlow@WriteBarrier@internal@cppgc@@CAXAEBUCagedHeapLocalData@23@PEBXPEAVHeapHandle@3@@Z=QQNT.original.dll.?GenerationalBarrierForSourceObjectSlow@WriteBarrier@internal@cppgc@@CAXAEBUCagedHeapLocalData@23@PEBXPEAVHeapHandle@3@@Z
    ?GenerationalBarrierForUncompressedSlotSlow@WriteBarrier@internal@cppgc@@CAXAEBUCagedHeapLocalData@23@AEBVAgeTable@23@PEBX_KPEAVHeapHandle@3@@Z=QQNT.original.dll.?GenerationalBarrierForUncompressedSlotSlow@WriteBarrier@internal@cppgc@@CAXAEBUCagedHeapLocalData@23@AEBVAgeTable@23@PEBX_KPEAVHeapHandle@3@@Z
    ?GenerationalBarrierSlow@WriteBarrier@internal@cppgc@@CAXAEBUCagedHeapLocalData@23@AEBVAgeTable@23@PEBX_KPEAVHeapHandle@3@@Z=QQNT.original.dll.?GenerationalBarrierSlow@WriteBarrier@internal@cppgc@@CAXAEBUCagedHeapLocalData@23@AEBVAgeTable@23@PEBX_KPEAVHeapHandle@3@@Z
    ?Get@CageBaseGlobal@internal@cppgc@@SA_KXZ=QQNT.original.dll.?Get@CageBaseGlobal@internal@cppgc@@SA_KXZ
    ?Get@FixedArray@v8@@QEBA?AV?$Local@VData@v8@@@2@V?$Local@VContext@v8@@@2@H@Z=QQNT.original.dll.?Get@FixedArray@v8@@QEBA?AV?$Local@VData@v8@@@2@V?$Local@VContext@v8@@@2@H@Z
    ?Get@GlobalGCInfoTable@internal@cppgc@@SAAEBVGCInfoTable@23@XZ=QQNT.original.dll.?Get@GlobalGCInfoTable@internal@cppgc@@SAAEBVGCInfoTable@23@XZ
    ?Get@LongTaskStats@metrics@v8@@SA?AU123@PEAVIsolate@3@@Z=QQNT.original.dll.?Get@LongTaskStats@metrics@v8@@SA?AU123@PEAVIsolate@3@@Z
    ?Get@Map@v8@@QEAA?AV?$MaybeLocal@VValue@v8@@@2@V?$Local@VContext@v8@@@2@V?$Local@VValue@v8@@@2@@Z=QQNT.original.dll.?Get@Map@v8@@QEAA?AV?$MaybeLocal@VValue@v8@@@2@V?$Local@VContext@v8@@@2@V?$Local@VValue@v8@@@2@@Z
    ?Get@Message@v8@@QEBA?AV?$Local@VString@v8@@@2@XZ=QQNT.original.dll.?Get@Message@v8@@QEBA?AV?$Local@VString@v8@@@2@XZ
    ?Get@Object@v8@@QEAA?AV?$MaybeLocal@VValue@v8@@@2@V?$Local@VContext@v8@@@2@I@Z=QQNT.original.dll.?Get@Object@v8@@QEAA?AV?$MaybeLocal@VValue@v8@@@2@V?$Local@VContext@v8@@@2@I@Z
    ?Get@Object@v8@@QEAA?AV?$MaybeLocal@VValue@v8@@@2@V?$Local@VContext@v8@@@2@V?$Local@VValue@v8@@@2@@Z=QQNT.original.dll.?Get@Object@v8@@QEAA?AV?$MaybeLocal@VValue@v8@@@2@V?$Local@VContext@v8@@@2@V?$Local@VValue@v8@@@2@@Z
    ?Get@Object@v8@@QEAA?AV?$MaybeLocal@VValue@v8@@@2@V?$Local@VContext@v8@@@2@V?$Local@VValue@v8@@@2@V?$MaybeLocal@VObject@v8@@@2@@Z=QQNT.original.dll.?Get@Object@v8@@QEAA?AV?$MaybeLocal@VValue@v8@@@2@V?$Local@VContext@v8@@@2@V?$Local@VValue@v8@@@2@V?$MaybeLocal@VObject@v8@@@2@@Z
    ?Get@PrimitiveArray@v8@@QEAA?AV?$Local@VPrimitive@v8@@@2@PEAVIsolate@2@H@Z=QQNT.original.dll.?Get@PrimitiveArray@v8@@QEAA?AV?$Local@VPrimitive@v8@@@2@PEAVIsolate@2@H@Z
    ?GetAddress@CFunction@v8@@QEBAPEBXXZ=QQNT.original.dll.?GetAddress@CFunction@v8@@QEBAPEBXXZ
    ?GetAge@AgeTable@internal@cppgc@@QEBA?AW4Age@123@_K@Z=QQNT.original.dll.?GetAge@AgeTable@internal@cppgc@@QEBA?AW4Age@123@_K@Z
    ?GetAgeForRange@AgeTable@internal@cppgc@@QEBA?AW4Age@123@_K0@Z=QQNT.original.dll.?GetAgeForRange@AgeTable@internal@cppgc@@QEBA?AW4Age@123@_K0@Z
    ?GetAgeTableSize@CagedHeapBase@internal@cppgc@@SA_KXZ=QQNT.original.dll.?GetAgeTableSize@CagedHeapBase@internal@cppgc@@SA_KXZ
    ?GetAlignedPointerFromEmbedderData@Context@v8@@QEAAPEAXH@Z=QQNT.original.dll.?GetAlignedPointerFromEmbedderData@Context@v8@@QEAAPEAXH@Z
    ?GetAlignedPointerFromEmbedderData@Context@v8@@QEAAPEAXPEAVIsolate@2@H@Z=QQNT.original.dll.?GetAlignedPointerFromEmbedderData@Context@v8@@QEAAPEAXPEAVIsolate@2@H@Z
    ?GetAlignedPointerFromEmbedderDataInCreationContext@Object@v8@@QEAAPEAXH@Z=QQNT.original.dll.?GetAlignedPointerFromEmbedderDataInCreationContext@Object@v8@@QEAAPEAXH@Z
    ?GetAlignedPointerFromEmbedderDataInCreationContext@Object@v8@@QEAAPEAXPEAVIsolate@2@H@Z=QQNT.original.dll.?GetAlignedPointerFromEmbedderDataInCreationContext@Object@v8@@QEAAPEAXPEAVIsolate@2@H@Z
    ?GetAlignedPointerFromInternalField@Object@v8@@QEAAPEAXH@Z=QQNT.original.dll.?GetAlignedPointerFromInternalField@Object@v8@@QEAAPEAXH@Z
    ?GetAlignedPointerFromInternalField@Object@v8@@QEAAPEAXPEAVIsolate@2@H@Z=QQNT.original.dll.?GetAlignedPointerFromInternalField@Object@v8@@QEAAPEAXPEAVIsolate@2@H@Z
    ?GetAlignedPointerFromInternalField@Object@v8@@SAPEAXAEBV?$BasicTracedReference@VObject@v8@@@2@H@Z=QQNT.original.dll.?GetAlignedPointerFromInternalField@Object@v8@@SAPEAXAEBV?$BasicTracedReference@VObject@v8@@@2@H@Z
    ?GetAlignedPointerFromInternalField@Object@v8@@SAPEAXAEBV?$PersistentBase@VObject@v8@@@2@H@Z=QQNT.original.dll.?GetAlignedPointerFromInternalField@Object@v8@@SAPEAXAEBV?$PersistentBase@VObject@v8@@@2@H@Z
    ?GetAllocationHandle@CppHeap@v8@@QEAAAEAVAllocationHandle@cppgc@@XZ=QQNT.original.dll.?GetAllocationHandle@CppHeap@v8@@QEAAAEAVAllocationHandle@cppgc@@XZ
    ?GetAllocationHandle@Heap@cppgc@@QEAAAEAVAllocationHandle@2@XZ=QQNT.original.dll.?GetAllocationHandle@Heap@cppgc@@QEAAAEAVAllocationHandle@2@XZ
    ?GetAllocationProfile@HeapProfiler@v8@@QEAAPEAVAllocationProfile@2@XZ=QQNT.original.dll.?GetAllocationProfile@HeapProfiler@v8@@QEAAPEAVAllocationProfile@2@XZ
    ?GetAnonymousMainPath@node@@YA?AV?$basic_string@DU?$char_traits@D@__Cr@std@@V?$allocator@D@23@@__Cr@std@@XZ=QQNT.original.dll.?GetAnonymousMainPath@node@@YA?AV?$basic_string@DU?$char_traits@D@__Cr@std@@V?$allocator@D@23@@__Cr@std@@XZ
    ?GetArrayBufferAllocator@Isolate@v8@@QEAAPEAVAllocator@ArrayBuffer@2@XZ=QQNT.original.dll.?GetArrayBufferAllocator@Isolate@v8@@QEAAPEAVAllocator@ArrayBuffer@2@XZ
    ?GetArrayBufferAllocator@node@@YAPEAVArrayBufferAllocator@1@PEAVIsolateData@1@@Z=QQNT.original.dll.?GetArrayBufferAllocator@node@@YAPEAVArrayBufferAllocator@1@PEAVIsolateData@1@@Z
    ?GetAsyncIterator@Symbol@v8@@SA?AV?$Local@VSymbol@v8@@@2@PEAVIsolate@2@@Z=QQNT.original.dll.?GetAsyncIterator@Symbol@v8@@SA?AV?$Local@VSymbol@v8@@@2@PEAVIsolate@2@@Z
    ?GetBackingStore@ArrayBuffer@v8@@QEAA?AV?$shared_ptr@VBackingStore@v8@@@__Cr@std@@XZ=QQNT.original.dll.?GetBackingStore@ArrayBuffer@v8@@QEAA?AV?$shared_ptr@VBackingStore@v8@@@__Cr@std@@XZ
    ?GetBackingStore@SharedArrayBuffer@v8@@QEAA?AV?$shared_ptr@VBackingStore@v8@@@__Cr@std@@XZ=QQNT.original.dll.?GetBackingStore@SharedArrayBuffer@v8@@QEAA?AV?$shared_ptr@VBackingStore@v8@@@__Cr@std@@XZ
    ?GetBailoutReason@CpuProfileNode@v8@@QEBAPEBDXZ=QQNT.original.dll.?GetBailoutReason@CpuProfileNode@v8@@QEBAPEBDXZ
    ?GetBase@CagedHeapBase@internal@cppgc@@SA_KXZ=QQNT.original.dll.?GetBase@CagedHeapBase@internal@cppgc@@SA_KXZ
    ?GetBoundFunction@Function@v8@@QEBA?AV?$Local@VValue@v8@@@2@XZ=QQNT.original.dll.?GetBoundFunction@Function@v8@@QEBA?AV?$Local@VValue@v8@@@2@XZ
    ?GetBuild@Version@internal@v8@@SAHXZ=QQNT.original.dll.?GetBuild@Version@internal@v8@@SAHXZ
    ?GetChild@CpuProfileNode@v8@@QEBAPEBV12@H@Z=QQNT.original.dll.?GetChild@CpuProfileNode@v8@@QEBAPEBV12@H@Z
    ?GetChild@HeapGraphNode@v8@@QEBAPEBVHeapGraphEdge@2@H@Z=QQNT.original.dll.?GetChild@HeapGraphNode@v8@@QEBAPEBVHeapGraphEdge@2@H@Z
    ?GetChildrenCount@CpuProfileNode@v8@@QEBAHXZ=QQNT.original.dll.?GetChildrenCount@CpuProfileNode@v8@@QEBAHXZ
    ?GetChildrenCount@HeapGraphNode@v8@@QEBAHXZ=QQNT.original.dll.?GetChildrenCount@HeapGraphNode@v8@@QEBAHXZ
    ?GetChunkSize@OutputStream@v8@@UEAAHXZ=QQNT.original.dll.?GetChunkSize@OutputStream@v8@@UEAAHXZ
    ?GetCodeEventTypeName@CodeEvent@v8@@SAPEBDW4CodeEventType@2@@Z=QQNT.original.dll.?GetCodeEventTypeName@CodeEvent@v8@@SAPEBDW4CodeEventType@2@@Z
    ?GetCodeRange@Isolate@v8@@QEAAXPEAPEAXPEA_K@Z=QQNT.original.dll.?GetCodeRange@Isolate@v8@@QEAAXPEAPEAXPEA_K@Z
    ?GetCodeSize@CodeEvent@v8@@QEAA_KXZ=QQNT.original.dll.?GetCodeSize@CodeEvent@v8@@QEAA_KXZ
    ?GetCodeStartAddress@CodeEvent@v8@@QEAA_KXZ=QQNT.original.dll.?GetCodeStartAddress@CodeEvent@v8@@QEAA_KXZ
    ?GetCodeType@CodeEvent@v8@@QEAA?AW4CodeEventType@2@XZ=QQNT.original.dll.?GetCodeType@CodeEvent@v8@@QEAA?AW4CodeEventType@2@XZ
    ?GetColumn@StackFrame@v8@@QEBAHXZ=QQNT.original.dll.?GetColumn@StackFrame@v8@@QEBAHXZ
    ?GetColumnNumber@CpuProfileNode@v8@@QEBAHXZ=QQNT.original.dll.?GetColumnNumber@CpuProfileNode@v8@@QEBAHXZ
    ?GetColumnNumber@Location@v8@@QEAAHXZ=QQNT.original.dll.?GetColumnNumber@Location@v8@@QEAAHXZ
    ?GetColumnNumber@UnboundScript@v8@@QEAAHH@Z=QQNT.original.dll.?GetColumnNumber@UnboundScript@v8@@QEAAHH@Z
    ?GetComment@CodeEvent@v8@@QEAAPEBDXZ=QQNT.original.dll.?GetComment@CodeEvent@v8@@QEAAPEBDXZ
    ?GetCompileHints@CompileHintsCollector@v8@@QEBA?AV?$vector@HV?$allocator@H@__Cr@std@@@__Cr@std@@PEAVIsolate@2@@Z=QQNT.original.dll.?GetCompileHints@CompileHintsCollector@v8@@QEBA?AV?$vector@HV?$allocator@H@__Cr@std@@@__Cr@std@@PEAVIsolate@2@@Z
    ?GetCompileHintsCollector@Script@v8@@QEBA?AV?$Local@VCompileHintsCollector@v8@@@2@XZ=QQNT.original.dll.?GetCompileHintsCollector@Script@v8@@QEBA?AV?$Local@VCompileHintsCollector@v8@@@2@XZ
    ?GetCompiledModule@WasmModuleObject@v8@@QEAA?AVCompiledWasmModule@2@XZ=QQNT.original.dll.?GetCompiledModule@WasmModuleObject@v8@@QEAA?AVCompiledWasmModule@2@XZ
    ?GetConstructorName@Object@v8@@QEAA?AV?$Local@VString@v8@@@2@XZ=QQNT.original.dll.?GetConstructorName@Object@v8@@QEAA?AV?$Local@VString@v8@@@2@XZ
    ?GetContents@ArrayBufferView@v8@@QEAA?AV?$MemorySpan@E@2@V32@@Z=QQNT.original.dll.?GetContents@ArrayBufferView@v8@@QEAA?AV?$MemorySpan@E@2@V32@@Z
    ?GetContext@Recorder@metrics@v8@@SA?AV?$MaybeLocal@VContext@v8@@@3@PEAVIsolate@3@VContextId@123@@Z=QQNT.original.dll.?GetContext@Recorder@metrics@v8@@SA?AV?$MaybeLocal@VContext@v8@@@3@PEAVIsolate@3@VContextId@123@@Z
    ?GetContextId@Recorder@metrics@v8@@SA?AVContextId@123@V?$Local@VContext@v8@@@3@@Z=QQNT.original.dll.?GetContextId@Recorder@metrics@v8@@SA?AVContextId@123@V?$Local@VContext@v8@@@3@@Z
    ?GetContinuationPreservedEmbedderData@Isolate@v8@@QEAA?AV?$Local@VValue@v8@@@2@XZ=QQNT.original.dll.?GetContinuationPreservedEmbedderData@Isolate@v8@@QEAA?AV?$Local@VValue@v8@@@2@XZ
    ?GetCppHeap@Isolate@v8@@QEBAPEAVCppHeap@2@XZ=QQNT.original.dll.?GetCppHeap@Isolate@v8@@QEBAPEAVCppHeap@2@XZ
    ?GetCreationContext@Object@v8@@QEAA?AV?$MaybeLocal@VContext@v8@@@2@PEAVIsolate@2@@Z=QQNT.original.dll.?GetCreationContext@Object@v8@@QEAA?AV?$MaybeLocal@VContext@v8@@@2@PEAVIsolate@2@@Z
    ?GetCreationContext@Object@v8@@QEAA?AV?$MaybeLocal@VContext@v8@@@2@XZ=QQNT.original.dll.?GetCreationContext@Object@v8@@QEAA?AV?$MaybeLocal@VContext@v8@@@2@XZ
    ?GetCreationContext@Object@v8@@SA?AV?$MaybeLocal@VContext@v8@@@2@AEBV?$PersistentBase@VObject@v8@@@2@@Z=QQNT.original.dll.?GetCreationContext@Object@v8@@SA?AV?$MaybeLocal@VContext@v8@@@2@AEBV?$PersistentBase@VObject@v8@@@2@@Z
    ?GetCreationContext@Object@v8@@SA?AV?$MaybeLocal@VContext@v8@@@2@PEAVIsolate@2@AEBV?$PersistentBase@VObject@v8@@@2@@Z=QQNT.original.dll.?GetCreationContext@Object@v8@@SA?AV?$MaybeLocal@VContext@v8@@@2@PEAVIsolate@2@AEBV?$PersistentBase@VObject@v8@@@2@@Z
    ?GetCreationContextChecked@Object@v8@@QEAA?AV?$Local@VContext@v8@@@2@PEAVIsolate@2@@Z=QQNT.original.dll.?GetCreationContextChecked@Object@v8@@QEAA?AV?$Local@VContext@v8@@@2@PEAVIsolate@2@@Z
    ?GetCreationContextChecked@Object@v8@@QEAA?AV?$Local@VContext@v8@@@2@XZ=QQNT.original.dll.?GetCreationContextChecked@Object@v8@@QEAA?AV?$Local@VContext@v8@@@2@XZ
    ?GetCurrent@Isolate@v8@@SAPEAV12@XZ=QQNT.original.dll.?GetCurrent@Isolate@v8@@SAPEAV12@XZ
    ?GetCurrentContext@Isolate@v8@@QEAA?AV?$Local@VContext@v8@@@2@XZ=QQNT.original.dll.?GetCurrentContext@Isolate@v8@@QEAA?AV?$Local@VContext@v8@@@2@XZ
    ?GetCurrentDepth@MicrotasksScope@v8@@SAHPEAVIsolate@2@@Z=QQNT.original.dll.?GetCurrentDepth@MicrotasksScope@v8@@SAHPEAVIsolate@2@@Z
    ?GetCurrentEnvironment@node@@YAPEAVEnvironment@1@V?$Local@VContext@v8@@@v8@@@Z=QQNT.original.dll.?GetCurrentEnvironment@node@@YAPEAVEnvironment@1@V?$Local@VContext@v8@@@v8@@@Z
    ?GetCurrentEventLoop@node@@YAPEAUuv_loop_s@@PEAVIsolate@v8@@@Z=QQNT.original.dll.?GetCurrentEventLoop@node@@YAPEAUuv_loop_s@@PEAVIsolate@v8@@@Z
    ?GetCurrentHostDefinedOptions@Isolate@v8@@QEAA?AV?$MaybeLocal@VData@v8@@@2@XZ=QQNT.original.dll.?GetCurrentHostDefinedOptions@Isolate@v8@@QEAA?AV?$MaybeLocal@VData@v8@@@2@XZ
    ?GetData@Isolate@v8@@QEAAPEAXI@Z=QQNT.original.dll.?GetData@Isolate@v8@@QEAAPEAXI@Z
    ?GetDataFromSnapshotOnce@Context@v8@@AEAAPEA_K_K@Z=QQNT.original.dll.?GetDataFromSnapshotOnce@Context@v8@@AEAAPEA_K_K@Z
    ?GetDataFromSnapshotOnce@Isolate@v8@@AEAAPEA_K_K@Z=QQNT.original.dll.?GetDataFromSnapshotOnce@Isolate@v8@@AEAAPEA_K_K@Z
    ?GetDebugName@Function@v8@@QEBA?AV?$Local@VValue@v8@@@2@XZ=QQNT.original.dll.?GetDebugName@Function@v8@@QEBA?AV?$Local@VValue@v8@@@2@XZ
    ?GetDefaultLocale@Isolate@v8@@QEAA?AV?$basic_string@DU?$char_traits@D@__Cr@std@@V?$allocator@D@23@@__Cr@std@@XZ=QQNT.original.dll.?GetDefaultLocale@Isolate@v8@@QEAA?AV?$basic_string@DU?$char_traits@D@__Cr@std@@V?$allocator@D@23@@__Cr@std@@XZ
    ?GetDeoptInfos@CpuProfileNode@v8@@QEBAAEBV?$vector@UCpuProfileDeoptInfo@v8@@V?$allocator@UCpuProfileDeoptInfo@v8@@@__Cr@std@@@__Cr@std@@XZ=QQNT.original.dll.?GetDeoptInfos@CpuProfileNode@v8@@QEBAAEBV?$vector@UCpuProfileDeoptInfo@v8@@V?$allocator@UCpuProfileDeoptInfo@v8@@@__Cr@std@@@__Cr@std@@XZ
    ?GetDetachedJSWrapperObjects@HeapProfiler@v8@@QEAA?AV?$vector@V?$Local@VValue@v8@@@v8@@V?$allocator@V?$Local@VValue@v8@@@v8@@@__Cr@std@@@__Cr@std@@XZ=QQNT.original.dll.?GetDetachedJSWrapperObjects@HeapProfiler@v8@@QEAA?AV?$vector@V?$Local@VValue@v8@@@v8@@V?$allocator@V?$Local@VValue@v8@@@v8@@@__Cr@std@@@__Cr@std@@XZ
    ?GetEmbeddedCodeRange@Isolate@v8@@QEAAXPEAPEBXPEA_K@Z=QQNT.original.dll.?GetEmbeddedCodeRange@Isolate@v8@@QEAAXPEAPEBXPEA_K@Z
    ?GetEmbedder@Version@internal@v8@@SAPEBDXZ=QQNT.original.dll.?GetEmbedder@Version@internal@v8@@SAPEBDXZ
    ?GetEmbedderData@Context@v8@@QEAA?AV?$Local@VValue@v8@@@2@H@Z=QQNT.original.dll.?GetEmbedderData@Context@v8@@QEAA?AV?$Local@VValue@v8@@@2@H@Z
    ?GetEndColumn@Message@v8@@QEBA?AV?$Maybe@H@2@V?$Local@VContext@v8@@@2@@Z=QQNT.original.dll.?GetEndColumn@Message@v8@@QEBA?AV?$Maybe@H@2@V?$Local@VContext@v8@@@2@@Z
    ?GetEndColumn@Message@v8@@QEBAHXZ=QQNT.original.dll.?GetEndColumn@Message@v8@@QEBAHXZ
    ?GetEndPosition@Message@v8@@QEBAHXZ=QQNT.original.dll.?GetEndPosition@Message@v8@@QEBAHXZ
    ?GetEndTime@CpuProfile@v8@@QEBA_JXZ=QQNT.original.dll.?GetEndTime@CpuProfile@v8@@QEBA_JXZ
    ?GetEnteredOrMicrotaskContext@Isolate@v8@@QEAA?AV?$Local@VContext@v8@@@2@XZ=QQNT.original.dll.?GetEnteredOrMicrotaskContext@Isolate@v8@@QEAA?AV?$Local@VContext@v8@@@2@XZ
    ?GetEnvironmentIsolateData@node@@YAPEAVIsolateData@1@PEAVEnvironment@1@@Z=QQNT.original.dll.?GetEnvironmentIsolateData@node@@YAPEAVIsolateData@1@PEAVEnvironment@1@@Z
    ?GetError@ModuleWrap@loader@node@@CAXAEBV?$FunctionCallbackInfo@VValue@v8@@@v8@@@Z=QQNT.original.dll.?GetError@ModuleWrap@loader@node@@CAXAEBV?$FunctionCallbackInfo@VValue@v8@@@v8@@@Z
    ?GetException@Module@v8@@QEBA?AV?$Local@VValue@v8@@@2@XZ=QQNT.original.dll.?GetException@Module@v8@@QEBA?AV?$Local@VValue@v8@@@2@XZ
    ?GetExternalOneByteStringResource@String@v8@@QEBAPEBVExternalOneByteStringResource@12@XZ=QQNT.original.dll.?GetExternalOneByteStringResource@String@v8@@QEBAPEBVExternalOneByteStringResource@12@XZ
    ?GetExternalStringResource@String@v8@@QEBAPEAVExternalStringResource@12@XZ=QQNT.original.dll.?GetExternalStringResource@String@v8@@QEBAPEAVExternalStringResource@12@XZ
    ?GetExternalStringResourceBase@String@v8@@QEBAPEAVExternalStringResourceBase@12@PEAVIsolate@2@PEAW4Encoding@12@@Z=QQNT.original.dll.?GetExternalStringResourceBase@String@v8@@QEBAPEAVExternalStringResourceBase@12@PEAVIsolate@2@PEAW4Encoding@12@@Z
    ?GetExternalStringResourceBase@String@v8@@QEBAPEAVExternalStringResourceBase@12@PEAW4Encoding@12@@Z=QQNT.original.dll.?GetExternalStringResourceBase@String@v8@@QEBAPEAVExternalStringResourceBase@12@PEAW4Encoding@12@@Z
    ?GetExternalStringResourceBaseSlow@String@v8@@AEBAPEAVExternalStringResourceBase@12@PEAW4Encoding@12@@Z=QQNT.original.dll.?GetExternalStringResourceBaseSlow@String@v8@@AEBAPEAVExternalStringResourceBase@12@PEAW4Encoding@12@@Z
    ?GetExternalStringResourceSlow@String@v8@@AEBAPEAVExternalStringResource@12@XZ=QQNT.original.dll.?GetExternalStringResourceSlow@String@v8@@AEBAPEAVExternalStringResource@12@XZ
    ?GetExtrasBindingObject@Context@v8@@QEAA?AV?$Local@VObject@v8@@@2@XZ=QQNT.original.dll.?GetExtrasBindingObject@Context@v8@@QEAA?AV?$Local@VObject@v8@@@2@XZ
    ?GetFlags@RegExp@v8@@QEBA?AW4Flags@12@XZ=QQNT.original.dll.?GetFlags@RegExp@v8@@QEBA?AW4Flags@12@XZ
    ?GetForegroundTaskRunner@Platform@cppgc@@UEAA?AV?$shared_ptr@VTaskRunner@v8@@@__Cr@std@@W4TaskPriority@v8@@@Z=QQNT.original.dll.?GetForegroundTaskRunner@Platform@cppgc@@UEAA?AV?$shared_ptr@VTaskRunner@v8@@@__Cr@std@@W4TaskPriority@v8@@@Z
    ?GetForegroundTaskRunner@Platform@cppgc@@UEAA?AV?$shared_ptr@VTaskRunner@v8@@@__Cr@std@@XZ=QQNT.original.dll.?GetForegroundTaskRunner@Platform@cppgc@@UEAA?AV?$shared_ptr@VTaskRunner@v8@@@__Cr@std@@XZ
    ?GetFrame@StackTrace@v8@@QEBA?AV?$Local@VStackFrame@v8@@@2@PEAVIsolate@2@I@Z=QQNT.original.dll.?GetFrame@StackTrace@v8@@QEBA?AV?$Local@VStackFrame@v8@@@2@PEAVIsolate@2@I@Z
    ?GetFrameCount@StackTrace@v8@@QEBAHXZ=QQNT.original.dll.?GetFrameCount@StackTrace@v8@@QEBAHXZ
    ?GetFromModule@ModuleWrap@loader@node@@SAPEAV123@PEAVEnvironment@3@V?$Local@VModule@v8@@@v8@@@Z=QQNT.original.dll.?GetFromModule@ModuleWrap@loader@node@@SAPEAV123@PEAVEnvironment@3@V?$Local@VModule@v8@@@v8@@@Z
    ?GetFromNode@HeapGraphEdge@v8@@QEBAPEBVHeapGraphNode@2@XZ=QQNT.original.dll.?GetFromNode@HeapGraphEdge@v8@@QEBAPEBVHeapGraphNode@2@XZ
    ?GetFunction@FunctionTemplate@v8@@QEAA?AV?$MaybeLocal@VFunction@v8@@@2@V?$Local@VContext@v8@@@2@@Z=QQNT.original.dll.?GetFunction@FunctionTemplate@v8@@QEAA?AV?$MaybeLocal@VFunction@v8@@@2@V?$Local@VContext@v8@@@2@@Z
    ?GetFunctionName@CodeEvent@v8@@QEAA?AV?$Local@VString@v8@@@2@XZ=QQNT.original.dll.?GetFunctionName@CodeEvent@v8@@QEAA?AV?$Local@VString@v8@@@2@XZ
    ?GetFunctionName@CpuProfileNode@v8@@QEBA?AV?$Local@VString@v8@@@2@XZ=QQNT.original.dll.?GetFunctionName@CpuProfileNode@v8@@QEBA?AV?$Local@VString@v8@@@2@XZ
    ?GetFunctionName@StackFrame@v8@@QEBA?AV?$Local@VString@v8@@@2@XZ=QQNT.original.dll.?GetFunctionName@StackFrame@v8@@QEBA?AV?$Local@VString@v8@@@2@XZ
    ?GetFunctionNameStr@CpuProfileNode@v8@@QEBAPEBDXZ=QQNT.original.dll.?GetFunctionNameStr@CpuProfileNode@v8@@QEBAPEBDXZ
    ?GetFunctionTemplateData@api_internal@v8@@YA?AV?$Local@VValue@v8@@@2@PEAVIsolate@2@V?$Local@VData@v8@@@2@@Z=QQNT.original.dll.?GetFunctionTemplateData@api_internal@v8@@YA?AV?$Local@VValue@v8@@@2@PEAVIsolate@2@V?$Local@VData@v8@@@2@@Z
    ?GetHandler@Proxy@v8@@QEAA?AV?$Local@VValue@v8@@@2@XZ=QQNT.original.dll.?GetHandler@Proxy@v8@@QEAA?AV?$Local@VValue@v8@@@2@XZ
    ?GetHasInstance@Symbol@v8@@SA?AV?$Local@VSymbol@v8@@@2@PEAVIsolate@2@@Z=QQNT.original.dll.?GetHasInstance@Symbol@v8@@SA?AV?$Local@VSymbol@v8@@@2@PEAVIsolate@2@@Z
    ?GetHeapCodeAndMetadataStatistics@Isolate@v8@@QEAA_NPEAVHeapCodeStatistics@2@@Z=QQNT.original.dll.?GetHeapCodeAndMetadataStatistics@Isolate@v8@@QEAA_NPEAVHeapCodeStatistics@2@@Z
    ?GetHeapHandle@CppHeap@v8@@QEAAAEAVHeapHandle@cppgc@@XZ=QQNT.original.dll.?GetHeapHandle@CppHeap@v8@@QEAAAEAVHeapHandle@cppgc@@XZ
    ?GetHeapHandle@Heap@cppgc@@QEAAAEAVHeapHandle@2@XZ=QQNT.original.dll.?GetHeapHandle@Heap@cppgc@@QEAAAEAVHeapHandle@2@XZ
    ?GetHeapObjectStatisticsAtLastGC@Isolate@v8@@QEAA_NPEAVHeapObjectStatistics@2@_K@Z=QQNT.original.dll.?GetHeapObjectStatisticsAtLastGC@Isolate@v8@@QEAA_NPEAVHeapObjectStatistics@2@_K@Z
    ?GetHeapProfiler@Isolate@v8@@QEAAPEAVHeapProfiler@2@XZ=QQNT.original.dll.?GetHeapProfiler@Isolate@v8@@QEAAPEAVHeapProfiler@2@XZ
    ?GetHeapSnapshot@HeapProfiler@v8@@QEAAPEBVHeapSnapshot@2@H@Z=QQNT.original.dll.?GetHeapSnapshot@HeapProfiler@v8@@QEAAPEBVHeapSnapshot@2@H@Z
    ?GetHeapSpaceStatistics@Isolate@v8@@QEAA_NPEAVHeapSpaceStatistics@2@_K@Z=QQNT.original.dll.?GetHeapSpaceStatistics@Isolate@v8@@QEAA_NPEAVHeapSpaceStatistics@2@_K@Z
    ?GetHeapStatistics@Isolate@v8@@QEAAXPEAVHeapStatistics@2@@Z=QQNT.original.dll.?GetHeapStatistics@Isolate@v8@@QEAAXPEAVHeapStatistics@2@@Z
    ?GetHeapStats@HeapProfiler@v8@@QEAAIPEAVOutputStream@2@PEA_J@Z=QQNT.original.dll.?GetHeapStats@HeapProfiler@v8@@QEAAIPEAVOutputStream@2@PEA_J@Z
    ?GetHitCount@CpuProfileNode@v8@@QEBAIXZ=QQNT.original.dll.?GetHitCount@CpuProfileNode@v8@@QEBAIXZ
    ?GetHitLineCount@CpuProfileNode@v8@@QEBAIXZ=QQNT.original.dll.?GetHitLineCount@CpuProfileNode@v8@@QEBAIXZ
    ?GetHostDefinedOptions@ScriptOrigin@v8@@QEBA?AV?$Local@VData@v8@@@2@XZ=QQNT.original.dll.?GetHostDefinedOptions@ScriptOrigin@v8@@QEBA?AV?$Local@VData@v8@@@2@XZ
    ?GetID@StackTrace@v8@@QEBAHXZ=QQNT.original.dll.?GetID@StackTrace@v8@@QEBAHXZ
    ?GetId@DiscardedSamplesDelegate@v8@@QEBAIXZ=QQNT.original.dll.?GetId@DiscardedSamplesDelegate@v8@@QEBAIXZ
    ?GetId@HeapGraphNode@v8@@QEBAIXZ=QQNT.original.dll.?GetId@HeapGraphNode@v8@@QEBAIXZ
    ?GetId@UnboundScript@v8@@QEBAHXZ=QQNT.original.dll.?GetId@UnboundScript@v8@@QEBAHXZ
    ?GetIdentityHash@Module@v8@@QEBAHXZ=QQNT.original.dll.?GetIdentityHash@Module@v8@@QEBAHXZ
    ?GetIdentityHash@Name@v8@@QEAAHXZ=QQNT.original.dll.?GetIdentityHash@Name@v8@@QEAAHXZ
    ?GetIdentityHash@Object@v8@@QEAAHXZ=QQNT.original.dll.?GetIdentityHash@Object@v8@@QEAAHXZ
    ?GetImportAssertions@ModuleRequest@v8@@QEBA?AV?$Local@VFixedArray@v8@@@2@XZ=QQNT.original.dll.?GetImportAssertions@ModuleRequest@v8@@QEBA?AV?$Local@VFixedArray@v8@@@2@XZ
    ?GetImportAttributes@ModuleRequest@v8@@QEBA?AV?$Local@VFixedArray@v8@@@2@XZ=QQNT.original.dll.?GetImportAttributes@ModuleRequest@v8@@QEBA?AV?$Local@VFixedArray@v8@@@2@XZ
    ?GetIncumbentContext@Isolate@v8@@QEAA?AV?$Local@VContext@v8@@@2@XZ=QQNT.original.dll.?GetIncumbentContext@Isolate@v8@@QEAA?AV?$Local@VContext@v8@@@2@XZ
    ?GetInferredName@Function@v8@@QEBA?AV?$Local@VValue@v8@@@2@XZ=QQNT.original.dll.?GetInferredName@Function@v8@@QEBA?AV?$Local@VValue@v8@@@2@XZ
    ?GetInspectorParentHandle@node@@YA?AV?$unique_ptr@UInspectorParentHandle@node@@U?$default_delete@UInspectorParentHandle@node@@@__Cr@std@@@__Cr@std@@PEAVEnvironment@1@UThreadId@1@PEBD2@Z=QQNT.original.dll.?GetInspectorParentHandle@node@@YA?AV?$unique_ptr@UInspectorParentHandle@node@@U?$default_delete@UInspectorParentHandle@node@@@__Cr@std@@@__Cr@std@@PEAVEnvironment@1@UThreadId@1@PEBD2@Z
    ?GetInspectorParentHandle@node@@YA?AV?$unique_ptr@UInspectorParentHandle@node@@U?$default_delete@UInspectorParentHandle@node@@@__Cr@std@@@__Cr@std@@PEAVEnvironment@1@UThreadId@1@PEBD@Z=QQNT.original.dll.?GetInspectorParentHandle@node@@YA?AV?$unique_ptr@UInspectorParentHandle@node@@U?$default_delete@UInspectorParentHandle@node@@@__Cr@std@@@__Cr@std@@PEAVEnvironment@1@UThreadId@1@PEBD@Z
    ?GetInt64Representation@CFunction@v8@@QEBA?AW4Int64Representation@CFunctionInfo@2@XZ=QQNT.original.dll.?GetInt64Representation@CFunction@v8@@QEBA?AW4Int64Representation@CFunctionInfo@2@XZ
    ?GetInt64Representation@CFunctionInfo@v8@@QEBA?AW4Int64Representation@12@XZ=QQNT.original.dll.?GetInt64Representation@CFunctionInfo@v8@@QEBA?AW4Int64Representation@12@XZ
    ?GetInternalField@Object@v8@@QEAA?AV?$Local@VData@v8@@@2@H@Z=QQNT.original.dll.?GetInternalField@Object@v8@@QEAA?AV?$Local@VData@v8@@@2@H@Z
    ?GetIsConcatSpreadable@Symbol@v8@@SA?AV?$Local@VSymbol@v8@@@2@PEAVIsolate@2@@Z=QQNT.original.dll.?GetIsConcatSpreadable@Symbol@v8@@SA?AV?$Local@VSymbol@v8@@@2@PEAVIsolate@2@@Z
    ?GetIsolate@Context@v8@@QEAAPEAVIsolate@2@XZ=QQNT.original.dll.?GetIsolate@Context@v8@@QEAAPEAVIsolate@2@XZ
    ?GetIsolate@HandleScope@v8@@QEBAPEAVIsolate@2@XZ=QQNT.original.dll.?GetIsolate@HandleScope@v8@@QEBAPEAVIsolate@2@XZ
    ?GetIsolate@Message@v8@@QEBAPEAVIsolate@2@XZ=QQNT.original.dll.?GetIsolate@Message@v8@@QEBAPEAVIsolate@2@XZ
    ?GetIsolate@Object@v8@@QEAAPEAVIsolate@2@XZ=QQNT.original.dll.?GetIsolate@Object@v8@@QEAAPEAVIsolate@2@XZ
    ?GetIsolate@Object@v8@@SAPEAVIsolate@2@AEBV?$TracedReference@VObject@v8@@@2@@Z=QQNT.original.dll.?GetIsolate@Object@v8@@SAPEAVIsolate@2@AEBV?$TracedReference@VObject@v8@@@2@@Z
    ?GetIsolate@SnapshotCreator@v8@@QEAAPEAVIsolate@2@XZ=QQNT.original.dll.?GetIsolate@SnapshotCreator@v8@@QEAAPEAVIsolate@2@XZ
    ?GetIterator@Symbol@v8@@SA?AV?$Local@VSymbol@v8@@@2@PEAVIsolate@2@@Z=QQNT.original.dll.?GetIterator@Symbol@v8@@SA?AV?$Local@VSymbol@v8@@@2@PEAVIsolate@2@@Z
    ?GetJSEntryStubs@Isolate@v8@@QEAA?AUJSEntryStubs@2@XZ=QQNT.original.dll.?GetJSEntryStubs@Isolate@v8@@QEAA?AUJSEntryStubs@2@XZ
    ?GetLineNumber@CpuProfileNode@v8@@QEBAHXZ=QQNT.original.dll.?GetLineNumber@CpuProfileNode@v8@@QEBAHXZ
    ?GetLineNumber@Location@v8@@QEAAHXZ=QQNT.original.dll.?GetLineNumber@Location@v8@@QEAAHXZ
    ?GetLineNumber@Message@v8@@QEBA?AV?$Maybe@H@2@V?$Local@VContext@v8@@@2@@Z=QQNT.original.dll.?GetLineNumber@Message@v8@@QEBA?AV?$Maybe@H@2@V?$Local@VContext@v8@@@2@@Z
    ?GetLineNumber@StackFrame@v8@@QEBAHXZ=QQNT.original.dll.?GetLineNumber@StackFrame@v8@@QEBAHXZ
    ?GetLineNumber@UnboundScript@v8@@QEAAHH@Z=QQNT.original.dll.?GetLineNumber@UnboundScript@v8@@QEAAHH@Z
    ?GetLineTicks@CpuProfileNode@v8@@QEBA_NPEAULineTick@12@I@Z=QQNT.original.dll.?GetLineTicks@CpuProfileNode@v8@@QEBA_NPEAULineTick@12@I@Z
    ?GetLocation@StackFrame@v8@@QEBA?AVLocation@2@XZ=QQNT.original.dll.?GetLocation@StackFrame@v8@@QEBA?AVLocation@2@XZ
    ?GetMainContext@node@@YA?AV?$Local@VContext@v8@@@v8@@PEAVEnvironment@1@@Z=QQNT.original.dll.?GetMainContext@node@@YA?AV?$Local@VContext@v8@@@v8@@PEAVEnvironment@1@@Z
    ?GetMajor@Version@internal@v8@@SAHXZ=QQNT.original.dll.?GetMajor@Version@internal@v8@@SAHXZ
    ?GetMatch@Symbol@v8@@SA?AV?$Local@VSymbol@v8@@@2@PEAVIsolate@2@@Z=QQNT.original.dll.?GetMatch@Symbol@v8@@SA?AV?$Local@VSymbol@v8@@@2@PEAVIsolate@2@@Z
    ?GetMaxSnapshotJSObjectId@HeapSnapshot@v8@@QEBAIXZ=QQNT.original.dll.?GetMaxSnapshotJSObjectId@HeapSnapshot@v8@@QEBAIXZ
    ?GetMicrotaskQueue@Context@v8@@QEAAPEAVMicrotaskQueue@2@XZ=QQNT.original.dll.?GetMicrotaskQueue@Context@v8@@QEAAPEAVMicrotaskQueue@2@XZ
    ?GetMicrotasksPolicy@Isolate@v8@@QEBA?AW4MicrotasksPolicy@2@XZ=QQNT.original.dll.?GetMicrotasksPolicy@Isolate@v8@@QEBA?AW4MicrotasksPolicy@2@XZ
    ?GetMinor@Version@internal@v8@@SAHXZ=QQNT.original.dll.?GetMinor@Version@internal@v8@@SAHXZ
    ?GetModuleNamespace@Module@v8@@QEAA?AV?$Local@VValue@v8@@@2@XZ=QQNT.original.dll.?GetModuleNamespace@Module@v8@@QEAA?AV?$Local@VValue@v8@@@2@XZ
    ?GetModuleRequests@Module@v8@@QEBA?AV?$Local@VFixedArray@v8@@@2@XZ=QQNT.original.dll.?GetModuleRequests@Module@v8@@QEBA?AV?$Local@VFixedArray@v8@@@2@XZ
    ?GetModuleRequestsSync@ModuleWrap@loader@node@@CAXAEBV?$FunctionCallbackInfo@VValue@v8@@@v8@@@Z=QQNT.original.dll.?GetModuleRequestsSync@ModuleWrap@loader@node@@CAXAEBV?$FunctionCallbackInfo@VValue@v8@@@v8@@@Z
    ?GetMultiIsolatePlatform@node@@YAPEAVMultiIsolatePlatform@1@PEAVEnvironment@1@@Z=QQNT.original.dll.?GetMultiIsolatePlatform@node@@YAPEAVMultiIsolatePlatform@1@PEAVEnvironment@1@@Z
    ?GetMultiIsolatePlatform@node@@YAPEAVMultiIsolatePlatform@1@PEAVIsolateData@1@@Z=QQNT.original.dll.?GetMultiIsolatePlatform@node@@YAPEAVMultiIsolatePlatform@1@PEAVIsolateData@1@@Z
    ?GetMutable@GlobalGCInfoTable@internal@cppgc@@SAAEAVGCInfoTable@23@XZ=QQNT.original.dll.?GetMutable@GlobalGCInfoTable@internal@cppgc@@SAAEAVGCInfoTable@23@XZ
    ?GetName@Function@v8@@QEBA?AV?$Local@VValue@v8@@@2@XZ=QQNT.original.dll.?GetName@Function@v8@@QEBA?AV?$Local@VValue@v8@@@2@XZ
    ?GetName@HeapGraphEdge@v8@@QEBA?AV?$Local@VValue@v8@@@2@XZ=QQNT.original.dll.?GetName@HeapGraphEdge@v8@@QEBA?AV?$Local@VValue@v8@@@2@XZ
    ?GetName@HeapGraphNode@v8@@QEBA?AV?$Local@VString@v8@@@2@XZ=QQNT.original.dll.?GetName@HeapGraphNode@v8@@QEBA?AV?$Local@VString@v8@@@2@XZ
    ?GetNameFromTypeSignature@NameTraitBase@internal@cppgc@@KA?AUHeapObjectName@23@PEBD@Z=QQNT.original.dll.?GetNameFromTypeSignature@NameTraitBase@internal@cppgc@@KA?AUHeapObjectName@23@PEBD@Z
    ?GetNamespace@ModuleWrap@loader@node@@CAXAEBV?$FunctionCallbackInfo@VValue@v8@@@v8@@@Z=QQNT.original.dll.?GetNamespace@ModuleWrap@loader@node@@CAXAEBV?$FunctionCallbackInfo@VValue@v8@@@v8@@@Z
    ?GetNamespaceSync@ModuleWrap@loader@node@@CAXAEBV?$FunctionCallbackInfo@VValue@v8@@@v8@@@Z=QQNT.original.dll.?GetNamespaceSync@ModuleWrap@loader@node@@CAXAEBV?$FunctionCallbackInfo@VValue@v8@@@v8@@@Z
    ?GetNativeFunctionTemplate@Extension@v8@@UEAA?AV?$Local@VFunctionTemplate@v8@@@2@PEAVIsolate@2@V?$Local@VString@v8@@@2@@Z=QQNT.original.dll.?GetNativeFunctionTemplate@Extension@v8@@UEAA?AV?$Local@VFunctionTemplate@v8@@@2@PEAVIsolate@2@V?$Local@VString@v8@@@2@@Z
    ?GetNode@HeapSnapshot@v8@@QEBAPEBVHeapGraphNode@2@H@Z=QQNT.original.dll.?GetNode@HeapSnapshot@v8@@QEBAPEBVHeapGraphNode@2@H@Z
    ?GetNodeById@HeapSnapshot@v8@@QEBAPEBVHeapGraphNode@2@I@Z=QQNT.original.dll.?GetNodeById@HeapSnapshot@v8@@QEBAPEBVHeapGraphNode@2@I@Z
    ?GetNodeId@CpuProfileNode@v8@@QEBAIXZ=QQNT.original.dll.?GetNodeId@CpuProfileNode@v8@@QEBAIXZ
    ?GetNodeReport@node@@YAXPEAVEnvironment@1@PEBD1V?$Local@VValue@v8@@@v8@@AEAV?$basic_ostream@DU?$char_traits@D@__Cr@std@@@__Cr@std@@@Z=QQNT.original.dll.?GetNodeReport@node@@YAXPEAVEnvironment@1@PEBD1V?$Local@VValue@v8@@@v8@@AEAV?$basic_ostream@DU?$char_traits@D@__Cr@std@@@__Cr@std@@@Z
    ?GetNodeReport@node@@YAXPEAVIsolate@v8@@PEBD1V?$Local@VValue@v8@@@3@AEAV?$basic_ostream@DU?$char_traits@D@__Cr@std@@@__Cr@std@@@Z=QQNT.original.dll.?GetNodeReport@node@@YAXPEAVIsolate@v8@@PEBD1V?$Local@VValue@v8@@@3@AEAV?$basic_ostream@DU?$char_traits@D@__Cr@std@@@__Cr@std@@@Z
    ?GetNodesCount@HeapSnapshot@v8@@QEBAHXZ=QQNT.original.dll.?GetNodesCount@HeapSnapshot@v8@@QEBAHXZ
    ?GetNumberOfDataSlots@Isolate@v8@@SAIXZ=QQNT.original.dll.?GetNumberOfDataSlots@Isolate@v8@@SAIXZ
    ?GetNumberOfEmbedderDataFields@Context@v8@@QEAAIXZ=QQNT.original.dll.?GetNumberOfEmbedderDataFields@Context@v8@@QEAAIXZ
    ?GetObjectId@HeapProfiler@v8@@QEAAIPEAX@Z=QQNT.original.dll.?GetObjectId@HeapProfiler@v8@@QEAAIPEAX@Z
    ?GetObjectId@HeapProfiler@v8@@QEAAIV?$Local@VValue@v8@@@2@@Z=QQNT.original.dll.?GetObjectId@HeapProfiler@v8@@QEAAIV?$Local@VValue@v8@@@2@@Z
    ?GetObjectSizeForGarbageCollected@BaseObjectSizeTrait@internal@cppgc@@KA_KPEBX@Z=QQNT.original.dll.?GetObjectSizeForGarbageCollected@BaseObjectSizeTrait@internal@cppgc@@KA_KPEBX@Z
    ?GetObjectSizeForGarbageCollectedMixin@BaseObjectSizeTrait@internal@cppgc@@KA_KPEBX@Z=QQNT.original.dll.?GetObjectSizeForGarbageCollectedMixin@BaseObjectSizeTrait@internal@cppgc@@KA_KPEBX@Z
    ?GetOverloadResolution@CFunction@v8@@QEAA?AW4OverloadResolution@12@PEBV12@@Z=QQNT.original.dll.?GetOverloadResolution@CFunction@v8@@QEAA?AW4OverloadResolution@12@PEBV12@@Z
    ?GetOwnPropertyDescriptor@Object@v8@@QEAA?AV?$MaybeLocal@VValue@v8@@@2@V?$Local@VContext@v8@@@2@V?$Local@VName@v8@@@2@@Z=QQNT.original.dll.?GetOwnPropertyDescriptor@Object@v8@@QEAA?AV?$MaybeLocal@VValue@v8@@@2@V?$Local@VContext@v8@@@2@V?$Local@VName@v8@@@2@@Z
    ?GetOwnPropertyNames@Object@v8@@QEAA?AV?$MaybeLocal@VArray@v8@@@2@V?$Local@VContext@v8@@@2@@Z=QQNT.original.dll.?GetOwnPropertyNames@Object@v8@@QEAA?AV?$MaybeLocal@VArray@v8@@@2@V?$Local@VContext@v8@@@2@@Z
    ?GetOwnPropertyNames@Object@v8@@QEAA?AV?$MaybeLocal@VArray@v8@@@2@V?$Local@VContext@v8@@@2@W4PropertyFilter@2@W4KeyConversionMode@2@@Z=QQNT.original.dll.?GetOwnPropertyNames@Object@v8@@QEAA?AV?$MaybeLocal@VArray@v8@@@2@V?$Local@VContext@v8@@@2@W4PropertyFilter@2@W4KeyConversionMode@2@@Z
    ?GetParent@CpuProfileNode@v8@@QEBAPEBV12@XZ=QQNT.original.dll.?GetParent@CpuProfileNode@v8@@QEBAPEBV12@XZ
    ?GetPatch@Version@internal@v8@@SAHXZ=QQNT.original.dll.?GetPatch@Version@internal@v8@@SAHXZ
    ?GetPersistentRegion@StrongCrossThreadPersistentPolicy@internal@cppgc@@SAAEAVCrossThreadPersistentRegion@23@PEBX@Z=QQNT.original.dll.?GetPersistentRegion@StrongCrossThreadPersistentPolicy@internal@cppgc@@SAAEAVCrossThreadPersistentRegion@23@PEBX@Z
    ?GetPersistentRegion@StrongPersistentPolicy@internal@cppgc@@SAAEAVPersistentRegion@23@PEBX@Z=QQNT.original.dll.?GetPersistentRegion@StrongPersistentPolicy@internal@cppgc@@SAAEAVPersistentRegion@23@PEBX@Z
    ?GetPersistentRegion@WeakCrossThreadPersistentPolicy@internal@cppgc@@SAAEAVCrossThreadPersistentRegion@23@PEBX@Z=QQNT.original.dll.?GetPersistentRegion@WeakCrossThreadPersistentPolicy@internal@cppgc@@SAAEAVCrossThreadPersistentRegion@23@PEBX@Z
    ?GetPersistentRegion@WeakPersistentPolicy@internal@cppgc@@SAAEAVPersistentRegion@23@PEBX@Z=QQNT.original.dll.?GetPersistentRegion@WeakPersistentPolicy@internal@cppgc@@SAAEAVPersistentRegion@23@PEBX@Z
    ?GetPhase@ModuleRequest@v8@@QEBA?AW4ModuleImportPhase@2@XZ=QQNT.original.dll.?GetPhase@ModuleRequest@v8@@QEBA?AW4ModuleImportPhase@2@XZ
    ?GetPreviousCodeStartAddress@CodeEvent@v8@@QEAA_KXZ=QQNT.original.dll.?GetPreviousCodeStartAddress@CodeEvent@v8@@QEAA_KXZ
    ?GetPrivate@Object@v8@@QEAA?AV?$MaybeLocal@VValue@v8@@@2@V?$Local@VContext@v8@@@2@V?$Local@VPrivate@v8@@@2@@Z=QQNT.original.dll.?GetPrivate@Object@v8@@QEAA?AV?$MaybeLocal@VValue@v8@@@2@V?$Local@VContext@v8@@@2@V?$Local@VPrivate@v8@@@2@@Z
    ?GetProducedCompileHints@Script@v8@@QEBA?AV?$vector@HV?$allocator@H@__Cr@std@@@__Cr@std@@XZ=QQNT.original.dll.?GetProducedCompileHints@Script@v8@@QEBA?AV?$vector@HV?$allocator@H@__Cr@std@@@__Cr@std@@XZ
    ?GetPromise@Resolver@Promise@v8@@QEAA?AV?$Local@VPromise@v8@@@3@XZ=QQNT.original.dll.?GetPromise@Resolver@Promise@v8@@QEAA?AV?$Local@VPromise@v8@@@3@XZ
    ?GetPropertyAttributes@Object@v8@@QEAA?AV?$Maybe@W4PropertyAttribute@v8@@@2@V?$Local@VContext@v8@@@2@V?$Local@VValue@v8@@@2@@Z=QQNT.original.dll.?GetPropertyAttributes@Object@v8@@QEAA?AV?$Maybe@W4PropertyAttribute@v8@@@2@V?$Local@VContext@v8@@@2@V?$Local@VValue@v8@@@2@@Z
    ?GetPropertyNames@Object@v8@@QEAA?AV?$MaybeLocal@VArray@v8@@@2@V?$Local@VContext@v8@@@2@@Z=QQNT.original.dll.?GetPropertyNames@Object@v8@@QEAA?AV?$MaybeLocal@VArray@v8@@@2@V?$Local@VContext@v8@@@2@@Z
    ?GetPropertyNames@Object@v8@@QEAA?AV?$MaybeLocal@VArray@v8@@@2@V?$Local@VContext@v8@@@2@W4KeyCollectionMode@2@W4PropertyFilter@2@W4IndexFilter@2@W4KeyConversionMode@2@@Z=QQNT.original.dll.?GetPropertyNames@Object@v8@@QEAA?AV?$MaybeLocal@VArray@v8@@@2@V?$Local@VContext@v8@@@2@W4KeyCollectionMode@2@W4PropertyFilter@2@W4IndexFilter@2@W4KeyConversionMode@2@@Z
    ?GetPrototype@Object@v8@@QEAA?AV?$Local@VValue@v8@@@2@XZ=QQNT.original.dll.?GetPrototype@Object@v8@@QEAA?AV?$Local@VValue@v8@@@2@XZ
    ?GetPrototypeV2@Object@v8@@QEAA?AV?$Local@VValue@v8@@@2@XZ=QQNT.original.dll.?GetPrototypeV2@Object@v8@@QEAA?AV?$Local@VValue@v8@@@2@XZ
    ?GetRealNamedProperty@Object@v8@@QEAA?AV?$MaybeLocal@VValue@v8@@@2@V?$Local@VContext@v8@@@2@V?$Local@VName@v8@@@2@@Z=QQNT.original.dll.?GetRealNamedProperty@Object@v8@@QEAA?AV?$MaybeLocal@VValue@v8@@@2@V?$Local@VContext@v8@@@2@V?$Local@VName@v8@@@2@@Z
    ?GetRealNamedPropertyAttributes@Object@v8@@QEAA?AV?$Maybe@W4PropertyAttribute@v8@@@2@V?$Local@VContext@v8@@@2@V?$Local@VName@v8@@@2@@Z=QQNT.original.dll.?GetRealNamedPropertyAttributes@Object@v8@@QEAA?AV?$Maybe@W4PropertyAttribute@v8@@@2@V?$Local@VContext@v8@@@2@V?$Local@VName@v8@@@2@@Z
    ?GetRealNamedPropertyAttributesInPrototypeChain@Object@v8@@QEAA?AV?$Maybe@W4PropertyAttribute@v8@@@2@V?$Local@VContext@v8@@@2@V?$Local@VName@v8@@@2@@Z=QQNT.original.dll.?GetRealNamedPropertyAttributesInPrototypeChain@Object@v8@@QEAA?AV?$Maybe@W4PropertyAttribute@v8@@@2@V?$Local@VContext@v8@@@2@V?$Local@VName@v8@@@2@@Z
    ?GetRealNamedPropertyInPrototypeChain@Object@v8@@QEAA?AV?$MaybeLocal@VValue@v8@@@2@V?$Local@VContext@v8@@@2@V?$Local@VName@v8@@@2@@Z=QQNT.original.dll.?GetRealNamedPropertyInPrototypeChain@Object@v8@@QEAA?AV?$MaybeLocal@VValue@v8@@@2@V?$Local@VContext@v8@@@2@V?$Local@VName@v8@@@2@@Z
    ?GetReplace@Symbol@v8@@SA?AV?$Local@VSymbol@v8@@@2@PEAVIsolate@2@@Z=QQNT.original.dll.?GetReplace@Symbol@v8@@SA?AV?$Local@VSymbol@v8@@@2@PEAVIsolate@2@@Z
    ?GetResourceName@Script@v8@@QEAA?AV?$Local@VValue@v8@@@2@XZ=QQNT.original.dll.?GetResourceName@Script@v8@@QEAA?AV?$Local@VValue@v8@@@2@XZ
    ?GetResourceName@ScriptOrModule@v8@@QEAA?AV?$Local@VValue@v8@@@2@XZ=QQNT.original.dll.?GetResourceName@ScriptOrModule@v8@@QEAA?AV?$Local@VValue@v8@@@2@XZ
    ?GetRoot@HeapSnapshot@v8@@QEBAPEBVHeapGraphNode@2@XZ=QQNT.original.dll.?GetRoot@HeapSnapshot@v8@@QEBAPEBVHeapGraphNode@2@XZ
    ?GetSONAME@Version@internal@v8@@SAXV?$Vector@D@base@3@@Z=QQNT.original.dll.?GetSONAME@Version@internal@v8@@SAXV?$Vector@D@base@3@@Z
    ?GetSample@CpuProfile@v8@@QEBAPEBVCpuProfileNode@2@H@Z=QQNT.original.dll.?GetSample@CpuProfile@v8@@QEBAPEBVCpuProfileNode@2@H@Z
    ?GetSampleEmbedderState@CpuProfile@v8@@QEBA?AW4EmbedderStateTag@2@H@Z=QQNT.original.dll.?GetSampleEmbedderState@CpuProfile@v8@@QEBA?AW4EmbedderStateTag@2@H@Z
    ?GetSampleState@CpuProfile@v8@@QEBA?AW4StateTag@2@H@Z=QQNT.original.dll.?GetSampleState@CpuProfile@v8@@QEBA?AW4StateTag@2@H@Z
    ?GetSampleTimestamp@CpuProfile@v8@@QEBA_JH@Z=QQNT.original.dll.?GetSampleTimestamp@CpuProfile@v8@@QEBA_JH@Z
    ?GetSamplesCount@CpuProfile@v8@@QEBAHXZ=QQNT.original.dll.?GetSamplesCount@CpuProfile@v8@@QEBAHXZ
    ?GetSandboxAddressSpace@V8@v8@@SAPEAVVirtualAddressSpace@2@XZ=QQNT.original.dll.?GetSandboxAddressSpace@V8@v8@@SAPEAVVirtualAddressSpace@2@XZ
    ?GetSandboxReservationSizeInBytes@V8@v8@@SA_KXZ=QQNT.original.dll.?GetSandboxReservationSizeInBytes@V8@v8@@SA_KXZ
    ?GetSandboxSizeInBytes@V8@v8@@SA_KXZ=QQNT.original.dll.?GetSandboxSizeInBytes@V8@v8@@SA_KXZ
    ?GetScriptColumn@CodeEvent@v8@@QEAAHXZ=QQNT.original.dll.?GetScriptColumn@CodeEvent@v8@@QEAAHXZ
    ?GetScriptColumnNumber@Function@v8@@QEBAHXZ=QQNT.original.dll.?GetScriptColumnNumber@Function@v8@@QEBAHXZ
    ?GetScriptId@CpuProfileNode@v8@@QEBAHXZ=QQNT.original.dll.?GetScriptId@CpuProfileNode@v8@@QEBAHXZ
    ?GetScriptId@StackFrame@v8@@QEBAHXZ=QQNT.original.dll.?GetScriptId@StackFrame@v8@@QEBAHXZ
    ?GetScriptLine@CodeEvent@v8@@QEAAHXZ=QQNT.original.dll.?GetScriptLine@CodeEvent@v8@@QEAAHXZ
    ?GetScriptLineNumber@Function@v8@@QEBAHXZ=QQNT.original.dll.?GetScriptLineNumber@Function@v8@@QEBAHXZ
    ?GetScriptName@CodeEvent@v8@@QEAA?AV?$Local@VString@v8@@@2@XZ=QQNT.original.dll.?GetScriptName@CodeEvent@v8@@QEAA?AV?$Local@VString@v8@@@2@XZ
    ?GetScriptName@StackFrame@v8@@QEBA?AV?$Local@VString@v8@@@2@XZ=QQNT.original.dll.?GetScriptName@StackFrame@v8@@QEBA?AV?$Local@VString@v8@@@2@XZ
    ?GetScriptName@UnboundScript@v8@@QEAA?AV?$Local@VValue@v8@@@2@XZ=QQNT.original.dll.?GetScriptName@UnboundScript@v8@@QEAA?AV?$Local@VValue@v8@@@2@XZ
    ?GetScriptNameOrSourceURL@StackFrame@v8@@QEBA?AV?$Local@VString@v8@@@2@XZ=QQNT.original.dll.?GetScriptNameOrSourceURL@StackFrame@v8@@QEBA?AV?$Local@VString@v8@@@2@XZ
    ?GetScriptOrigin@Function@v8@@QEBA?AVScriptOrigin@2@XZ=QQNT.original.dll.?GetScriptOrigin@Function@v8@@QEBA?AVScriptOrigin@2@XZ
    ?GetScriptOrigin@Message@v8@@QEBA?AVScriptOrigin@2@XZ=QQNT.original.dll.?GetScriptOrigin@Message@v8@@QEBA?AVScriptOrigin@2@XZ
    ?GetScriptResourceName@CpuProfileNode@v8@@QEBA?AV?$Local@VString@v8@@@2@XZ=QQNT.original.dll.?GetScriptResourceName@CpuProfileNode@v8@@QEBA?AV?$Local@VString@v8@@@2@XZ
    ?GetScriptResourceName@Message@v8@@QEBA?AV?$Local@VValue@v8@@@2@XZ=QQNT.original.dll.?GetScriptResourceName@Message@v8@@QEBA?AV?$Local@VValue@v8@@@2@XZ
    ?GetScriptResourceNameStr@CpuProfileNode@v8@@QEBAPEBDXZ=QQNT.original.dll.?GetScriptResourceNameStr@CpuProfileNode@v8@@QEBAPEBDXZ
    ?GetScriptSource@StackFrame@v8@@QEBA?AV?$Local@VString@v8@@@2@XZ=QQNT.original.dll.?GetScriptSource@StackFrame@v8@@QEBA?AV?$Local@VString@v8@@@2@XZ
    ?GetScriptSourceMappingURL@StackFrame@v8@@QEBA?AV?$Local@VString@v8@@@2@XZ=QQNT.original.dll.?GetScriptSourceMappingURL@StackFrame@v8@@QEBA?AV?$Local@VString@v8@@@2@XZ
    ?GetScriptStartPosition@Function@v8@@QEBAHXZ=QQNT.original.dll.?GetScriptStartPosition@Function@v8@@QEBAHXZ
    ?GetSearch@Symbol@v8@@SA?AV?$Local@VSymbol@v8@@@2@PEAVIsolate@2@@Z=QQNT.original.dll.?GetSearch@Symbol@v8@@SA?AV?$Local@VSymbol@v8@@@2@PEAVIsolate@2@@Z
    ?GetSecurityToken@Context@v8@@QEAA?AV?$Local@VValue@v8@@@2@XZ=QQNT.original.dll.?GetSecurityToken@Context@v8@@QEAA?AV?$Local@VValue@v8@@@2@XZ
    ?GetShallowSize@HeapGraphNode@v8@@QEBA_KXZ=QQNT.original.dll.?GetShallowSize@HeapGraphNode@v8@@QEBA_KXZ
    ?GetSharedArrayBufferFromId@Delegate@ValueDeserializer@v8@@UEAA?AV?$MaybeLocal@VSharedArrayBuffer@v8@@@3@PEAVIsolate@3@I@Z=QQNT.original.dll.?GetSharedArrayBufferFromId@Delegate@ValueDeserializer@v8@@UEAA?AV?$MaybeLocal@VSharedArrayBuffer@v8@@@3@PEAVIsolate@3@I@Z
    ?GetSharedArrayBufferId@Delegate@ValueSerializer@v8@@UEAA?AV?$Maybe@I@3@PEAVIsolate@3@V?$Local@VSharedArrayBuffer@v8@@@3@@Z=QQNT.original.dll.?GetSharedArrayBufferId@Delegate@ValueSerializer@v8@@UEAA?AV?$Maybe@I@3@PEAVIsolate@3@V?$Local@VSharedArrayBuffer@v8@@@3@@Z
    ?GetSharedMemoryStatistics@V8@v8@@SAXPEAVSharedMemoryStatistics@2@@Z=QQNT.original.dll.?GetSharedMemoryStatistics@V8@v8@@SAXPEAVSharedMemoryStatistics@2@@Z
    ?GetSharedValueConveyor@Delegate@ValueDeserializer@v8@@UEAAPEBVSharedValueConveyor@3@PEAVIsolate@3@@Z=QQNT.original.dll.?GetSharedValueConveyor@Delegate@ValueDeserializer@v8@@UEAAPEBVSharedValueConveyor@3@PEAVIsolate@3@@Z
    ?GetSnapshotCount@HeapProfiler@v8@@QEAAHXZ=QQNT.original.dll.?GetSnapshotCount@HeapProfiler@v8@@QEAAHXZ
    ?GetSource@Message@v8@@QEBA?AV?$MaybeLocal@VString@v8@@@2@V?$Local@VContext@v8@@@2@@Z=QQNT.original.dll.?GetSource@Message@v8@@QEBA?AV?$MaybeLocal@VString@v8@@@2@V?$Local@VContext@v8@@@2@@Z
    ?GetSource@RegExp@v8@@QEBA?AV?$Local@VString@v8@@@2@XZ=QQNT.original.dll.?GetSource@RegExp@v8@@QEBA?AV?$Local@VString@v8@@@2@XZ
    ?GetSourceLine@Message@v8@@QEBA?AV?$MaybeLocal@VString@v8@@@2@V?$Local@VContext@v8@@@2@@Z=QQNT.original.dll.?GetSourceLine@Message@v8@@QEBA?AV?$MaybeLocal@VString@v8@@@2@V?$Local@VContext@v8@@@2@@Z
    ?GetSourceMappingURL@UnboundModuleScript@v8@@QEAA?AV?$Local@VValue@v8@@@2@XZ=QQNT.original.dll.?GetSourceMappingURL@UnboundModuleScript@v8@@QEAA?AV?$Local@VValue@v8@@@2@XZ
    ?GetSourceMappingURL@UnboundScript@v8@@QEAA?AV?$Local@VValue@v8@@@2@XZ=QQNT.original.dll.?GetSourceMappingURL@UnboundScript@v8@@QEAA?AV?$Local@VValue@v8@@@2@XZ
    ?GetSourceOffset@ModuleRequest@v8@@QEBAHXZ=QQNT.original.dll.?GetSourceOffset@ModuleRequest@v8@@QEBAHXZ
    ?GetSourceType@CpuProfileNode@v8@@QEBA?AW4SourceType@12@XZ=QQNT.original.dll.?GetSourceType@CpuProfileNode@v8@@QEBA?AW4SourceType@12@XZ
    ?GetSourceURL@UnboundModuleScript@v8@@QEAA?AV?$Local@VValue@v8@@@2@XZ=QQNT.original.dll.?GetSourceURL@UnboundModuleScript@v8@@QEAA?AV?$Local@VValue@v8@@@2@XZ
    ?GetSourceURL@UnboundScript@v8@@QEAA?AV?$Local@VValue@v8@@@2@XZ=QQNT.original.dll.?GetSourceURL@UnboundScript@v8@@QEAA?AV?$Local@VValue@v8@@@2@XZ
    ?GetSpecifier@ModuleRequest@v8@@QEBA?AV?$Local@VString@v8@@@2@XZ=QQNT.original.dll.?GetSpecifier@ModuleRequest@v8@@QEBA?AV?$Local@VString@v8@@@2@XZ
    ?GetSplit@Symbol@v8@@SA?AV?$Local@VSymbol@v8@@@2@PEAVIsolate@2@@Z=QQNT.original.dll.?GetSplit@Symbol@v8@@SA?AV?$Local@VSymbol@v8@@@2@PEAVIsolate@2@@Z
    ?GetStackSample@Isolate@v8@@QEAAXAEBURegisterState@2@PEAPEAX_KPEAUSampleInfo@2@@Z=QQNT.original.dll.?GetStackSample@Isolate@v8@@QEAAXAEBURegisterState@2@PEAPEAX_KPEAUSampleInfo@2@@Z
    ?GetStackSample@TickSample@internal@v8@@SA_NPEAVIsolate@23@PEAURegisterState@3@W4RecordCEntryFrame@123@PEAPEAX_KPEAUSampleInfo@3@PEAW4StateTag@3@_N@Z=QQNT.original.dll.?GetStackSample@TickSample@internal@v8@@SA_NPEAVIsolate@23@PEAURegisterState@3@W4RecordCEntryFrame@123@PEAPEAX_KPEAUSampleInfo@3@PEAW4StateTag@3@_N@Z
    ?GetStackTrace@Exception@v8@@SA?AV?$Local@VStackTrace@v8@@@2@V?$Local@VValue@v8@@@2@@Z=QQNT.original.dll.?GetStackTrace@Exception@v8@@SA?AV?$Local@VStackTrace@v8@@@2@V?$Local@VValue@v8@@@2@@Z
    ?GetStackTrace@Message@v8@@QEBA?AV?$Local@VStackTrace@v8@@@2@XZ=QQNT.original.dll.?GetStackTrace@Message@v8@@QEBA?AV?$Local@VStackTrace@v8@@@2@XZ
    ?GetStackTraceLimit@Isolate@v8@@QEAAHXZ=QQNT.original.dll.?GetStackTraceLimit@Isolate@v8@@QEAAHXZ
    ?GetStalledTopLevelAwaitMessages@Module@v8@@QEAA?AU?$pair@V?$LocalVector@VModule@v8@@@v8@@V?$LocalVector@VMessage@v8@@@2@@__Cr@std@@PEAVIsolate@2@@Z=QQNT.original.dll.?GetStalledTopLevelAwaitMessages@Module@v8@@QEAA?AU?$pair@V?$LocalVector@VModule@v8@@@v8@@V?$LocalVector@VMessage@v8@@@2@@__Cr@std@@PEAVIsolate@2@@Z
    ?GetStartColumn@Message@v8@@QEBA?AV?$Maybe@H@2@V?$Local@VContext@v8@@@2@@Z=QQNT.original.dll.?GetStartColumn@Message@v8@@QEBA?AV?$Maybe@H@2@V?$Local@VContext@v8@@@2@@Z
    ?GetStartColumn@Message@v8@@QEBAHXZ=QQNT.original.dll.?GetStartColumn@Message@v8@@QEBAHXZ
    ?GetStartPosition@Message@v8@@QEBAHXZ=QQNT.original.dll.?GetStartPosition@Message@v8@@QEBAHXZ
    ?GetStartTime@CpuProfile@v8@@QEBA_JXZ=QQNT.original.dll.?GetStartTime@CpuProfile@v8@@QEBA_JXZ
    ?GetStaticDependencySpecifiers@ModuleWrap@loader@node@@CAXAEBV?$FunctionCallbackInfo@VValue@v8@@@v8@@@Z=QQNT.original.dll.?GetStaticDependencySpecifiers@ModuleWrap@loader@node@@CAXAEBV?$FunctionCallbackInfo@VValue@v8@@@v8@@@Z
    ?GetStatus@Module@v8@@QEBA?AW4Status@12@XZ=QQNT.original.dll.?GetStatus@Module@v8@@QEBA?AW4Status@12@XZ
    ?GetStatus@ModuleWrap@loader@node@@CAXAEBV?$FunctionCallbackInfo@VValue@v8@@@v8@@@Z=QQNT.original.dll.?GetStatus@ModuleWrap@loader@node@@CAXAEBV?$FunctionCallbackInfo@VValue@v8@@@v8@@@Z
    ?GetString@Version@internal@v8@@SAXV?$Vector@D@base@3@@Z=QQNT.original.dll.?GetString@Version@internal@v8@@SAXV?$Vector@D@base@3@@Z
    ?GetTarget@Proxy@v8@@QEAA?AV?$Local@VValue@v8@@@2@XZ=QQNT.original.dll.?GetTarget@Proxy@v8@@QEAA?AV?$Local@VValue@v8@@@2@XZ
    ?GetTitle@CpuProfile@v8@@QEBA?AV?$Local@VString@v8@@@2@XZ=QQNT.original.dll.?GetTitle@CpuProfile@v8@@QEBA?AV?$Local@VString@v8@@@2@XZ
    ?GetToNode@HeapGraphEdge@v8@@QEBAPEBVHeapGraphNode@2@XZ=QQNT.original.dll.?GetToNode@HeapGraphEdge@v8@@QEBAPEBVHeapGraphNode@2@XZ
    ?GetToPrimitive@Symbol@v8@@SA?AV?$Local@VSymbol@v8@@@2@PEAVIsolate@2@@Z=QQNT.original.dll.?GetToPrimitive@Symbol@v8@@SA?AV?$Local@VSymbol@v8@@@2@PEAVIsolate@2@@Z
    ?GetToStringTag@Symbol@v8@@SA?AV?$Local@VSymbol@v8@@@2@PEAVIsolate@2@@Z=QQNT.original.dll.?GetToStringTag@Symbol@v8@@SA?AV?$Local@VSymbol@v8@@@2@PEAVIsolate@2@@Z
    ?GetTopDownRoot@CpuProfile@v8@@QEBAPEBVCpuProfileNode@2@XZ=QQNT.original.dll.?GetTopDownRoot@CpuProfile@v8@@QEBAPEBVCpuProfileNode@2@XZ
    ?GetTraceDescriptor@TraceTraitFromInnerAddressImpl@internal@cppgc@@SA?AUTraceDescriptor@3@PEBX@Z=QQNT.original.dll.?GetTraceDescriptor@TraceTraitFromInnerAddressImpl@internal@cppgc@@SA?AUTraceDescriptor@3@PEBX@Z
    ?GetTracingController@Platform@cppgc@@UEAAPEAVTracingController@v8@@XZ=QQNT.original.dll.?GetTracingController@Platform@cppgc@@UEAAPEAVTracingController@v8@@XZ
    ?GetTracingController@node@@YAPEAVTracingController@v8@@XZ=QQNT.original.dll.?GetTracingController@node@@YAPEAVTracingController@v8@@XZ
    ?GetType@HeapGraphEdge@v8@@QEBA?AW4Type@12@XZ=QQNT.original.dll.?GetType@HeapGraphEdge@v8@@QEBA?AW4Type@12@XZ
    ?GetType@HeapGraphNode@v8@@QEBA?AW4Type@12@XZ=QQNT.original.dll.?GetType@HeapGraphNode@v8@@QEBA?AW4Type@12@XZ
    ?GetTypeInfo@CFunction@v8@@QEBAPEBVCFunctionInfo@2@XZ=QQNT.original.dll.?GetTypeInfo@CFunction@v8@@QEBAPEBVCFunctionInfo@2@XZ
    ?GetUnboundModuleScript@Module@v8@@QEAA?AV?$Local@VUnboundModuleScript@v8@@@2@XZ=QQNT.original.dll.?GetUnboundModuleScript@Module@v8@@QEAA?AV?$Local@VUnboundModuleScript@v8@@@2@XZ
    ?GetUnboundScript@Script@v8@@QEAA?AV?$Local@VUnboundScript@v8@@@2@XZ=QQNT.original.dll.?GetUnboundScript@Script@v8@@QEAA?AV?$Local@VUnboundScript@v8@@@2@XZ
    ?GetUnscopables@Symbol@v8@@SA?AV?$Local@VSymbol@v8@@@2@PEAVIsolate@2@@Z=QQNT.original.dll.?GetUnscopables@Symbol@v8@@SA?AV?$Local@VSymbol@v8@@@2@PEAVIsolate@2@@Z
    ?GetVersion@V8@v8@@SAPEBDXZ=QQNT.original.dll.?GetVersion@V8@v8@@SAPEBDXZ
    ?GetVersion@Version@internal@v8@@SAPEBDXZ=QQNT.original.dll.?GetVersion@Version@internal@v8@@SAPEBDXZ
    ?GetWasmFunctionIndex@Message@v8@@QEBAHXZ=QQNT.original.dll.?GetWasmFunctionIndex@Message@v8@@QEBAHXZ
    ?GetWasmModuleFromId@Delegate@ValueDeserializer@v8@@UEAA?AV?$MaybeLocal@VWasmModuleObject@v8@@@3@PEAVIsolate@3@I@Z=QQNT.original.dll.?GetWasmModuleFromId@Delegate@ValueDeserializer@v8@@UEAA?AV?$MaybeLocal@VWasmModuleObject@v8@@@3@PEAVIsolate@3@I@Z
    ?GetWasmModuleTransferId@Delegate@ValueSerializer@v8@@UEAA?AV?$Maybe@I@3@PEAVIsolate@3@V?$Local@VWasmModuleObject@v8@@@3@@Z=QQNT.original.dll.?GetWasmModuleTransferId@Delegate@ValueSerializer@v8@@UEAA?AV?$Maybe@I@3@PEAVIsolate@3@V?$Local@VWasmModuleObject@v8@@@3@@Z
    ?GetWireBytesRef@CompiledWasmModule@v8@@QEAA?AV?$MemorySpan@$$CBE@2@XZ=QQNT.original.dll.?GetWireBytesRef@CompiledWasmModule@v8@@QEAA?AV?$MemorySpan@$$CBE@2@XZ
    ?GetWireFormatVersion@ValueDeserializer@v8@@QEBAIXZ=QQNT.original.dll.?GetWireFormatVersion@ValueDeserializer@v8@@QEBAIXZ
    ?GetWriteBarrierType@WriteBarrier@internal@cppgc@@SA?AW4Type@123@PEBX0AEAUParams@123@@Z=QQNT.original.dll.?GetWriteBarrierType@WriteBarrier@internal@cppgc@@SA?AW4Type@123@PEBX0AEAUParams@123@@Z
    ?GetWriteBarrierType@WriteBarrier@internal@cppgc@@SA?AW4Type@123@PEBXAEAUParams@123@@Z=QQNT.original.dll.?GetWriteBarrierType@WriteBarrier@internal@cppgc@@SA?AW4Type@123@PEBXAEAUParams@123@@Z
    ?Global@Context@v8@@QEAA?AV?$Local@VObject@v8@@@2@XZ=QQNT.original.dll.?Global@Context@v8@@QEAA?AV?$Local@VObject@v8@@@2@XZ
    ?GlobalizeReference@api_internal@v8@@YAPEA_KPEAVIsolate@internal@2@_K@Z=QQNT.original.dll.?GlobalizeReference@api_internal@v8@@YAPEA_KPEAVIsolate@internal@2@_K@Z
    ?GlobalizeTracedReference@internal@v8@@YAPEA_KPEAVIsolate@12@_KPEA_KW4TracedReferenceStoreMode@12@W4TracedReferenceHandling@12@@Z=QQNT.original.dll.?GlobalizeTracedReference@internal@v8@@YAPEA_KPEAVIsolate@12@_KPEA_KW4TracedReferenceStoreMode@12@W4TracedReferenceHandling@12@@Z
    ?HandleExternalMemoryInterrupt@Isolate@v8@@AEAAXXZ=QQNT.original.dll.?HandleExternalMemoryInterrupt@Isolate@v8@@AEAAXXZ
    ?HandleMovableReference@Visitor@cppgc@@MEAAXPEAPEBX@Z=QQNT.original.dll.?HandleMovableReference@Visitor@cppgc@@MEAAXPEAPEBX@Z
    ?Has@Map@v8@@QEAA?AV?$Maybe@_N@2@V?$Local@VContext@v8@@@2@V?$Local@VValue@v8@@@2@@Z=QQNT.original.dll.?Has@Map@v8@@QEAA?AV?$Maybe@_N@2@V?$Local@VContext@v8@@@2@V?$Local@VValue@v8@@@2@@Z
    ?Has@Object@v8@@QEAA?AV?$Maybe@_N@2@V?$Local@VContext@v8@@@2@I@Z=QQNT.original.dll.?Has@Object@v8@@QEAA?AV?$Maybe@_N@2@V?$Local@VContext@v8@@@2@I@Z
    ?Has@Object@v8@@QEAA?AV?$Maybe@_N@2@V?$Local@VContext@v8@@@2@V?$Local@VValue@v8@@@2@@Z=QQNT.original.dll.?Has@Object@v8@@QEAA?AV?$Maybe@_N@2@V?$Local@VContext@v8@@@2@V?$Local@VValue@v8@@@2@@Z
    ?Has@Set@v8@@QEAA?AV?$Maybe@_N@2@V?$Local@VContext@v8@@@2@V?$Local@VValue@v8@@@2@@Z=QQNT.original.dll.?Has@Set@v8@@QEAA?AV?$Maybe@_N@2@V?$Local@VContext@v8@@@2@V?$Local@VValue@v8@@@2@@Z
    ?HasBuffer@ArrayBufferView@v8@@QEBA_NXZ=QQNT.original.dll.?HasBuffer@ArrayBufferView@v8@@QEBA_NXZ
    ?HasCaught@TryCatch@v8@@QEBA_NXZ=QQNT.original.dll.?HasCaught@TryCatch@v8@@QEBA_NXZ
    ?HasCustomHostObject@Delegate@ValueSerializer@v8@@UEAA_NPEAVIsolate@3@@Z=QQNT.original.dll.?HasCustomHostObject@Delegate@ValueSerializer@v8@@UEAA_NPEAVIsolate@3@@Z
    ?HasHandler@Promise@v8@@QEBA_NXZ=QQNT.original.dll.?HasHandler@Promise@v8@@QEBA_NXZ
    ?HasIndexedLookupInterceptor@Object@v8@@QEBA_NXZ=QQNT.original.dll.?HasIndexedLookupInterceptor@Object@v8@@QEBA_NXZ
    ?HasInstance@Buffer@node@@YA_NV?$Local@VObject@v8@@@v8@@@Z=QQNT.original.dll.?HasInstance@Buffer@node@@YA_NV?$Local@VObject@v8@@@v8@@@Z
    ?HasInstance@Buffer@node@@YA_NV?$Local@VValue@v8@@@v8@@@Z=QQNT.original.dll.?HasInstance@Buffer@node@@YA_NV?$Local@VValue@v8@@@v8@@@Z
    ?HasInstance@FunctionTemplate@v8@@QEAA_NV?$Local@VValue@v8@@@2@@Z=QQNT.original.dll.?HasInstance@FunctionTemplate@v8@@QEAA_NV?$Local@VValue@v8@@@2@@Z
    ?HasNamedLookupInterceptor@Object@v8@@QEBA_NXZ=QQNT.original.dll.?HasNamedLookupInterceptor@Object@v8@@QEBA_NXZ
    ?HasOptions@CFunctionInfo@v8@@QEBA_NXZ=QQNT.original.dll.?HasOptions@CFunctionInfo@v8@@QEBA_NXZ
    ?HasOwnProperty@Object@v8@@QEAA?AV?$Maybe@_N@2@V?$Local@VContext@v8@@@2@I@Z=QQNT.original.dll.?HasOwnProperty@Object@v8@@QEAA?AV?$Maybe@_N@2@V?$Local@VContext@v8@@@2@I@Z
    ?HasOwnProperty@Object@v8@@QEAA?AV?$Maybe@_N@2@V?$Local@VContext@v8@@@2@V?$Local@VName@v8@@@2@@Z=QQNT.original.dll.?HasOwnProperty@Object@v8@@QEAA?AV?$Maybe@_N@2@V?$Local@VContext@v8@@@2@V?$Local@VName@v8@@@2@@Z
    ?HasPendingBackgroundTasks@Isolate@v8@@QEAA_NXZ=QQNT.original.dll.?HasPendingBackgroundTasks@Isolate@v8@@QEAA_NXZ
    ?HasPendingException@Isolate@v8@@QEAA_NXZ=QQNT.original.dll.?HasPendingException@Isolate@v8@@QEAA_NXZ
    ?HasPrivate@Object@v8@@QEAA?AV?$Maybe@_N@2@V?$Local@VContext@v8@@@2@V?$Local@VPrivate@v8@@@2@@Z=QQNT.original.dll.?HasPrivate@Object@v8@@QEAA?AV?$Maybe@_N@2@V?$Local@VContext@v8@@@2@V?$Local@VPrivate@v8@@@2@@Z
    ?HasRealIndexedProperty@Object@v8@@QEAA?AV?$Maybe@_N@2@V?$Local@VContext@v8@@@2@I@Z=QQNT.original.dll.?HasRealIndexedProperty@Object@v8@@QEAA?AV?$Maybe@_N@2@V?$Local@VContext@v8@@@2@I@Z
    ?HasRealNamedCallbackProperty@Object@v8@@QEAA?AV?$Maybe@_N@2@V?$Local@VContext@v8@@@2@V?$Local@VName@v8@@@2@@Z=QQNT.original.dll.?HasRealNamedCallbackProperty@Object@v8@@QEAA?AV?$Maybe@_N@2@V?$Local@VContext@v8@@@2@V?$Local@VName@v8@@@2@@Z
    ?HasRealNamedProperty@Object@v8@@QEAA?AV?$Maybe@_N@2@V?$Local@VContext@v8@@@2@V?$Local@VName@v8@@@2@@Z=QQNT.original.dll.?HasRealNamedProperty@Object@v8@@QEAA?AV?$Maybe@_N@2@V?$Local@VContext@v8@@@2@V?$Local@VName@v8@@@2@@Z
    ?HasTemplateLiteralObject@Context@v8@@QEAA_NV?$Local@VValue@v8@@@2@@Z=QQNT.original.dll.?HasTemplateLiteralObject@Context@v8@@QEAA_NV?$Local@VValue@v8@@@2@@Z
    ?HasTerminated@TryCatch@v8@@QEBA_NXZ=QQNT.original.dll.?HasTerminated@TryCatch@v8@@QEBA_NXZ
    ?HasTopLevelAwait@Module@v8@@QEBA_NXZ=QQNT.original.dll.?HasTopLevelAwait@Module@v8@@QEBA_NXZ
    ?Hash@Version@internal@v8@@SAIXZ=QQNT.original.dll.?Hash@Version@internal@v8@@SAIXZ
    ?HostDefinedOptions@ScriptOrModule@v8@@QEAA?AV?$Local@VData@v8@@@2@XZ=QQNT.original.dll.?HostDefinedOptions@ScriptOrModule@v8@@QEAA?AV?$Local@VData@v8@@@2@XZ
    ?HostInitializeImportMetaObjectCallback@ModuleWrap@loader@node@@SAXV?$Local@VContext@v8@@@v8@@V?$Local@VModule@v8@@@5@V?$Local@VObject@v8@@@5@@Z=QQNT.original.dll.?HostInitializeImportMetaObjectCallback@ModuleWrap@loader@node@@SAXV?$Local@VContext@v8@@@v8@@V?$Local@VModule@v8@@@5@V?$Local@VObject@v8@@@5@@Z
    ?ImportModuleDynamically@loader@node@@YA?AV?$MaybeLocal@VPromise@v8@@@v8@@V?$Local@VContext@v8@@@4@V?$Local@VData@v8@@@4@V?$Local@VValue@v8@@@4@V?$Local@VString@v8@@@4@V?$Local@VFixedArray@v8@@@4@@Z=QQNT.original.dll.?ImportModuleDynamically@loader@node@@YA?AV?$MaybeLocal@VPromise@v8@@@v8@@V?$Local@VContext@v8@@@4@V?$Local@VData@v8@@@4@V?$Local@VValue@v8@@@4@V?$Local@VString@v8@@@4@V?$Local@VFixedArray@v8@@@4@@Z
    ?InContext@Isolate@v8@@QEAA_NXZ=QQNT.original.dll.?InContext@Isolate@v8@@QEAA_NXZ
    ?InYoungGenerationForStickyMarkbits@HeapLayout@internal@v8@@CA_NPEBVMemoryChunk@23@V?$Tagged@VHeapObject@internal@v8@@@23@@Z=QQNT.original.dll.?InYoungGenerationForStickyMarkbits@HeapLayout@internal@v8@@CA_NPEBVMemoryChunk@23@V?$Tagged@VHeapObject@internal@v8@@@23@@Z
    ?IncreaseHeapLimitForDebugging@Isolate@v8@@QEAAXXZ=QQNT.original.dll.?IncreaseHeapLimitForDebugging@Isolate@v8@@QEAAXXZ
    ?Inherit@FunctionTemplate@v8@@QEAAXV?$Local@VFunctionTemplate@v8@@@2@@Z=QQNT.original.dll.?Inherit@FunctionTemplate@v8@@QEAAXV?$Local@VFunctionTemplate@v8@@@2@@Z
    ?Init@TickSample@internal@v8@@QEAAXPEAVIsolate@23@AEBURegisterState@3@W4RecordCEntryFrame@123@_N3VTimeDelta@base@3@@Z=QQNT.original.dll.?Init@TickSample@internal@v8@@QEAAXPEAVIsolate@23@AEBURegisterState@3@W4RecordCEntryFrame@123@_N3VTimeDelta@base@3@@Z
    ?InitialTableLimit@GCInfoTable@internal@cppgc@@AEBAGXZ=QQNT.original.dll.?InitialTableLimit@GCInfoTable@internal@cppgc@@AEBAGXZ
    ?Initialize@GlobalGCInfoTable@internal@cppgc@@SAXAEAVPageAllocator@v8@@@Z=QQNT.original.dll.?Initialize@GlobalGCInfoTable@internal@cppgc@@SAXAEAVPageAllocator@v8@@@Z
    ?Initialize@HandleScope@v8@@IEAAXPEAVIsolate@2@@Z=QQNT.original.dll.?Initialize@HandleScope@v8@@IEAAXPEAVIsolate@2@@Z
    ?Initialize@Isolate@v8@@SAXPEAV12@AEBUCreateParams@12@@Z=QQNT.original.dll.?Initialize@Isolate@v8@@SAXPEAV12@AEBUCreateParams@12@@Z
    ?Initialize@Locker@v8@@AEAAXPEAVIsolate@2@@Z=QQNT.original.dll.?Initialize@Locker@v8@@AEAAXPEAVIsolate@2@@Z
    ?Initialize@ThreadIsolation@internal@v8@@SAXPEAVThreadIsolatedAllocator@3@@Z=QQNT.original.dll.?Initialize@ThreadIsolation@internal@v8@@SAXPEAVThreadIsolatedAllocator@3@@Z
    ?Initialize@Unlocker@v8@@AEAAXPEAVIsolate@2@@Z=QQNT.original.dll.?Initialize@Unlocker@v8@@AEAAXPEAVIsolate@2@@Z
    ?Initialize@V8@v8@@CA_NH@Z=QQNT.original.dll.?Initialize@V8@v8@@CA_NH@Z
    ?Initialize@V8@v8@@SA_NXZ=QQNT.original.dll.?Initialize@V8@v8@@SA_NXZ
    ?InitializeBeforeThreadCreation@SandboxHardwareSupport@v8@@SAXXZ=QQNT.original.dll.?InitializeBeforeThreadCreation@SandboxHardwareSupport@v8@@SAXXZ
    ?InitializeContext@node@@YA?AV?$Maybe@_N@v8@@V?$Local@VContext@v8@@@3@@Z=QQNT.original.dll.?InitializeContext@node@@YA?AV?$Maybe@_N@v8@@V?$Local@VContext@v8@@@3@@Z
    ?InitializeExternalStartupData@V8@v8@@SAXPEBD@Z=QQNT.original.dll.?InitializeExternalStartupData@V8@v8@@SAXPEBD@Z
    ?InitializeExternalStartupDataFromFile@V8@v8@@SAXPEBD@Z=QQNT.original.dll.?InitializeExternalStartupDataFromFile@V8@v8@@SAXPEBD@Z
    ?InitializeICU@V8@v8@@SA_NPEBD@Z=QQNT.original.dll.?InitializeICU@V8@v8@@SA_NPEBD@Z
    ?InitializeICUDefaultLocation@V8@v8@@SA_NPEBD0@Z=QQNT.original.dll.?InitializeICUDefaultLocation@V8@v8@@SA_NPEBD0@Z
    ?InitializeNodeWithArgs@node@@YAHPEAV?$vector@V?$basic_string@DU?$char_traits@D@__Cr@std@@V?$allocator@D@23@@__Cr@std@@V?$allocator@V?$basic_string@DU?$char_traits@D@__Cr@std@@V?$allocator@D@23@@__Cr@std@@@23@@__Cr@std@@00W4Flags@ProcessInitializationFlags@1@@Z=QQNT.original.dll.?InitializeNodeWithArgs@node@@YAHPEAV?$vector@V?$basic_string@DU?$char_traits@D@__Cr@std@@V?$allocator@D@23@@__Cr@std@@V?$allocator@V?$basic_string@DU?$char_traits@D@__Cr@std@@V?$allocator@D@23@@__Cr@std@@@23@@__Cr@std@@00W4Flags@ProcessInitializationFlags@1@@Z
    ?InitializeOncePerProcess@node@@YA?AV?$unique_ptr@VInitializationResult@node@@U?$default_delete@VInitializationResult@node@@@__Cr@std@@@__Cr@std@@AEBV?$vector@V?$basic_string@DU?$char_traits@D@__Cr@std@@V?$allocator@D@23@@__Cr@std@@V?$allocator@V?$basic_string@DU?$char_traits@D@__Cr@std@@V?$allocator@D@23@@__Cr@std@@@23@@34@W4Flags@ProcessInitializationFlags@1@@Z=QQNT.original.dll.?InitializeOncePerProcess@node@@YA?AV?$unique_ptr@VInitializationResult@node@@U?$default_delete@VInitializationResult@node@@@__Cr@std@@@__Cr@std@@AEBV?$vector@V?$basic_string@DU?$char_traits@D@__Cr@std@@V?$allocator@D@23@@__Cr@std@@V?$allocator@V?$basic_string@DU?$char_traits@D@__Cr@std@@V?$allocator@D@23@@__Cr@std@@@23@@34@W4Flags@ProcessInitializationFlags@1@@Z
    ?InitializePlatform@V8@v8@@SAXPEAVPlatform@2@@Z=QQNT.original.dll.?InitializePlatform@V8@v8@@SAXPEAVPlatform@2@@Z
    ?InitializeProcess@cppgc@@YAXPEAVPageAllocator@v8@@_K@Z=QQNT.original.dll.?InitializeProcess@cppgc@@YAXPEAVPageAllocator@v8@@_K@Z
    ?InstallConditionalFeatures@Isolate@v8@@QEAAXV?$Local@VContext@v8@@@2@@Z=QQNT.original.dll.?InstallConditionalFeatures@Isolate@v8@@QEAAXV?$Local@VContext@v8@@@2@@Z
    ?InstanceOf@Value@v8@@QEAA?AV?$Maybe@_N@2@V?$Local@VContext@v8@@@2@V?$Local@VObject@v8@@@2@@Z=QQNT.original.dll.?InstanceOf@Value@v8@@QEAA?AV?$Maybe@_N@2@V?$Local@VContext@v8@@@2@V?$Local@VObject@v8@@@2@@Z
    ?InstanceTemplate@FunctionTemplate@v8@@QEAA?AV?$Local@VObjectTemplate@v8@@@2@XZ=QQNT.original.dll.?InstanceTemplate@FunctionTemplate@v8@@QEAA?AV?$Local@VObjectTemplate@v8@@@2@XZ
    ?Instantiate@ModuleWrap@loader@node@@CAXAEBV?$FunctionCallbackInfo@VValue@v8@@@v8@@@Z=QQNT.original.dll.?Instantiate@ModuleWrap@loader@node@@CAXAEBV?$FunctionCallbackInfo@VValue@v8@@@v8@@@Z
    ?InstantiateModule@Module@v8@@QEAA?AV?$Maybe@_N@2@V?$Local@VContext@v8@@@2@P6A?AV?$MaybeLocal@VModule@v8@@@2@0V?$Local@VString@v8@@@2@V?$Local@VFixedArray@v8@@@2@V?$Local@VModule@v8@@@2@@ZP6A?AV?$MaybeLocal@VObject@v8@@@2@0123@Z@Z=QQNT.original.dll.?InstantiateModule@Module@v8@@QEAA?AV?$Maybe@_N@2@V?$Local@VContext@v8@@@2@P6A?AV?$MaybeLocal@VModule@v8@@@2@0V?$Local@VString@v8@@@2@V?$Local@VFixedArray@v8@@@2@V?$Local@VModule@v8@@@2@@ZP6A?AV?$MaybeLocal@VObject@v8@@@2@0123@Z@Z
    ?InstantiateSync@ModuleWrap@loader@node@@CAXAEBV?$FunctionCallbackInfo@VValue@v8@@@v8@@@Z=QQNT.original.dll.?InstantiateSync@ModuleWrap@loader@node@@CAXAEBV?$FunctionCallbackInfo@VValue@v8@@@v8@@@Z
    ?Instrumentation@ReasonEnum@Paused@API@Debugger@protocol@v8_inspector@@3PEBDEB=QQNT.original.dll.?Instrumentation@ReasonEnum@Paused@API@Debugger@protocol@v8_inspector@@3PEBDEB
    ?Int32Value@Value@v8@@QEBA?AV?$Maybe@H@2@V?$Local@VContext@v8@@@2@@Z=QQNT.original.dll.?Int32Value@Value@v8@@QEBA?AV?$Maybe@H@2@V?$Local@VContext@v8@@@2@@Z
    ?Int64Value@BigInt@v8@@QEBA_JPEA_N@Z=QQNT.original.dll.?Int64Value@BigInt@v8@@QEBA_JPEA_N@Z
    ?IntegerValue@Value@v8@@QEBA?AV?$Maybe@_J@2@V?$Local@VContext@v8@@@2@@Z=QQNT.original.dll.?IntegerValue@Value@v8@@QEBA?AV?$Maybe@_J@2@V?$Local@VContext@v8@@@2@@Z
    ?InternalFieldCount@Object@v8@@QEBAHXZ=QQNT.original.dll.?InternalFieldCount@Object@v8@@QEBAHXZ
    ?InternalFieldCount@Object@v8@@SAHAEBV?$BasicTracedReference@VObject@v8@@@2@@Z=QQNT.original.dll.?InternalFieldCount@Object@v8@@SAHAEBV?$BasicTracedReference@VObject@v8@@@2@@Z
    ?InternalFieldCount@Object@v8@@SAHAEBV?$PersistentBase@VObject@v8@@@2@@Z=QQNT.original.dll.?InternalFieldCount@Object@v8@@SAHAEBV?$PersistentBase@VObject@v8@@@2@@Z
    ?InternalFieldCount@ObjectTemplate@v8@@QEBAHXZ=QQNT.original.dll.?InternalFieldCount@ObjectTemplate@v8@@QEBAHXZ
    ?InternalFieldOutOfBounds@api_internal@v8@@YAXH@Z=QQNT.original.dll.?InternalFieldOutOfBounds@api_internal@v8@@YAXH@Z
    ?InternalizeString@String@v8@@QEAA?AV?$Local@VString@v8@@@2@PEAVIsolate@2@@Z=QQNT.original.dll.?InternalizeString@String@v8@@QEAA?AV?$Local@VString@v8@@@2@PEAVIsolate@2@@Z
    ?IsApiWrapper@Object@v8@@QEBA_NXZ=QQNT.original.dll.?IsApiWrapper@Object@v8@@QEBA_NXZ
    ?IsArgumentsObject@Value@v8@@QEBA_NXZ=QQNT.original.dll.?IsArgumentsObject@Value@v8@@QEBA_NXZ
    ?IsArray@Value@v8@@QEBA_NXZ=QQNT.original.dll.?IsArray@Value@v8@@QEBA_NXZ
    ?IsArrayBuffer@Value@v8@@QEBA_NXZ=QQNT.original.dll.?IsArrayBuffer@Value@v8@@QEBA_NXZ
    ?IsArrayBufferView@Value@v8@@QEBA_NXZ=QQNT.original.dll.?IsArrayBufferView@Value@v8@@QEBA_NXZ
    ?IsAsyncFunction@Value@v8@@QEBA_NXZ=QQNT.original.dll.?IsAsyncFunction@Value@v8@@QEBA_NXZ
    ?IsAvailable@OptimizingCompileDispatcherQueue@internal@v8@@QEAA_NXZ=QQNT.original.dll.?IsAvailable@OptimizingCompileDispatcherQueue@internal@v8@@QEAA_NXZ
    ?IsBaseConsistent@CageBaseGlobal@internal@cppgc@@CA_NXZ=QQNT.original.dll.?IsBaseConsistent@CageBaseGlobal@internal@cppgc@@CA_NXZ
    ?IsBigInt64Array@Value@v8@@QEBA_NXZ=QQNT.original.dll.?IsBigInt64Array@Value@v8@@QEBA_NXZ
    ?IsBigInt@Value@v8@@QEBA_NXZ=QQNT.original.dll.?IsBigInt@Value@v8@@QEBA_NXZ
    ?IsBigIntObject@Value@v8@@QEBA_NXZ=QQNT.original.dll.?IsBigIntObject@Value@v8@@QEBA_NXZ
    ?IsBigUint64Array@Value@v8@@QEBA_NXZ=QQNT.original.dll.?IsBigUint64Array@Value@v8@@QEBA_NXZ
    ?IsBoolean@Value@v8@@QEBA_NXZ=QQNT.original.dll.?IsBoolean@Value@v8@@QEBA_NXZ
    ?IsBooleanObject@Value@v8@@QEBA_NXZ=QQNT.original.dll.?IsBooleanObject@Value@v8@@QEBA_NXZ
    ?IsCacheable@ExternalStringResourceBase@String@v8@@UEBA_NXZ=QQNT.original.dll.?IsCacheable@ExternalStringResourceBase@String@v8@@UEBA_NXZ
    ?IsCallable@Object@v8@@QEBA_NXZ=QQNT.original.dll.?IsCallable@Object@v8@@QEBA_NXZ
    ?IsCandidate@Version@internal@v8@@SA_NXZ=QQNT.original.dll.?IsCandidate@Version@internal@v8@@SA_NXZ
    ?IsCodeGenerationFromStringsAllowed@Context@v8@@QEBA_NXZ=QQNT.original.dll.?IsCodeGenerationFromStringsAllowed@Context@v8@@QEBA_NXZ
    ?IsCodeLike@Object@v8@@QEBA_NPEAVIsolate@2@@Z=QQNT.original.dll.?IsCodeLike@Object@v8@@QEBA_NPEAVIsolate@2@@Z
    ?IsCodeLike@ObjectTemplate@v8@@QEBA_NXZ=QQNT.original.dll.?IsCodeLike@ObjectTemplate@v8@@QEBA_NXZ
    ?IsConstructor@Object@v8@@QEBA_NXZ=QQNT.original.dll.?IsConstructor@Object@v8@@QEBA_NXZ
    ?IsConstructor@StackFrame@v8@@QEBA_NXZ=QQNT.original.dll.?IsConstructor@StackFrame@v8@@QEBA_NXZ
    ?IsContext@Data@v8@@QEBA_NXZ=QQNT.original.dll.?IsContext@Data@v8@@QEBA_NXZ
    ?IsCookieEncryptionEnabled@fuses@electron@@YA_NXZ=QQNT.original.dll.?IsCookieEncryptionEnabled@fuses@electron@@YA_NXZ
    ?IsCreationThread@PersistentRegion@internal@cppgc@@AEAA_NXZ=QQNT.original.dll.?IsCreationThread@PersistentRegion@internal@cppgc@@AEAA_NXZ
    ?IsCurrent@Isolate@v8@@QEBA_NXZ=QQNT.original.dll.?IsCurrent@Isolate@v8@@QEBA_NXZ
    ?IsDataView@Value@v8@@QEBA_NXZ=QQNT.original.dll.?IsDataView@Value@v8@@QEBA_NXZ
    ?IsDate@Value@v8@@QEBA_NXZ=QQNT.original.dll.?IsDate@Value@v8@@QEBA_NXZ
    ?IsDead@Isolate@v8@@QEAA_NXZ=QQNT.original.dll.?IsDead@Isolate@v8@@QEAA_NXZ
    ?IsDetachable@ArrayBuffer@v8@@QEBA_NXZ=QQNT.original.dll.?IsDetachable@ArrayBuffer@v8@@QEBA_NXZ
    ?IsEmbeddedAsarIntegrityValidationEnabled@fuses@electron@@YA_NXZ=QQNT.original.dll.?IsEmbeddedAsarIntegrityValidationEnabled@fuses@electron@@YA_NXZ
    ?IsEnabled@WriteBarrier@internal@cppgc@@SA_NXZ=QQNT.original.dll.?IsEnabled@WriteBarrier@internal@cppgc@@SA_NXZ
    ?IsEnvironmentStopping@node@@YA_NPEAVIsolate@v8@@@Z=QQNT.original.dll.?IsEnvironmentStopping@node@@YA_NPEAVIsolate@v8@@@Z
    ?IsEval@StackFrame@v8@@QEBA_NXZ=QQNT.original.dll.?IsEval@StackFrame@v8@@QEBA_NXZ
    ?IsExecutionTerminating@Isolate@v8@@QEAA_NXZ=QQNT.original.dll.?IsExecutionTerminating@Isolate@v8@@QEAA_NXZ
    ?IsExternal@String@v8@@QEBA_NXZ=QQNT.original.dll.?IsExternal@String@v8@@QEBA_NXZ
    ?IsExternal@Value@v8@@QEBA_NXZ=QQNT.original.dll.?IsExternal@Value@v8@@QEBA_NXZ
    ?IsExternalOneByte@String@v8@@QEBA_NXZ=QQNT.original.dll.?IsExternalOneByte@String@v8@@QEBA_NXZ
    ?IsExternalTwoByte@String@v8@@QEBA_NXZ=QQNT.original.dll.?IsExternalTwoByte@String@v8@@QEBA_NXZ
    ?IsFalse@Value@v8@@QEBA_NXZ=QQNT.original.dll.?IsFalse@Value@v8@@QEBA_NXZ
    ?IsFixedArray@Data@v8@@QEBA_NXZ=QQNT.original.dll.?IsFixedArray@Data@v8@@QEBA_NXZ
    ?IsFloat16Array@Value@v8@@QEBA_NXZ=QQNT.original.dll.?IsFloat16Array@Value@v8@@QEBA_NXZ
    ?IsFloat32Array@Value@v8@@QEBA_NXZ=QQNT.original.dll.?IsFloat32Array@Value@v8@@QEBA_NXZ
    ?IsFloat64Array@Value@v8@@QEBA_NXZ=QQNT.original.dll.?IsFloat64Array@Value@v8@@QEBA_NXZ
    ?IsFunction@Value@v8@@QEBA_NXZ=QQNT.original.dll.?IsFunction@Value@v8@@QEBA_NXZ
    ?IsFunctionTemplate@Data@v8@@QEBA_NXZ=QQNT.original.dll.?IsFunctionTemplate@Data@v8@@QEBA_NXZ
    ?IsGarbageCollectionAllowed@DisallowGarbageCollectionScope@subtle@cppgc@@SA_NAEAVHeapHandle@3@@Z=QQNT.original.dll.?IsGarbageCollectionAllowed@DisallowGarbageCollectionScope@subtle@cppgc@@SA_NAEAVHeapHandle@3@@Z
    ?IsGeneratorFunction@Value@v8@@QEBA_NXZ=QQNT.original.dll.?IsGeneratorFunction@Value@v8@@QEBA_NXZ
    ?IsGeneratorObject@Value@v8@@QEBA_NXZ=QQNT.original.dll.?IsGeneratorObject@Value@v8@@QEBA_NXZ
    ?IsGrantFileProtocolExtraPrivilegesEnabled@fuses@electron@@YA_NXZ=QQNT.original.dll.?IsGrantFileProtocolExtraPrivilegesEnabled@fuses@electron@@YA_NXZ
    ?IsGraphAsync@Module@v8@@QEBA_NXZ=QQNT.original.dll.?IsGraphAsync@Module@v8@@QEBA_NXZ
    ?IsHeapLimitIncreasedForDebugging@Isolate@v8@@QEAA_NXZ=QQNT.original.dll.?IsHeapLimitIncreasedForDebugging@Isolate@v8@@QEAA_NXZ
    ?IsHeapObjectAliveImpl@LivenessBroker@cppgc@@AEBA_NPEBX@Z=QQNT.original.dll.?IsHeapObjectAliveImpl@LivenessBroker@cppgc@@AEBA_NPEBX@Z
    ?IsHeapObjectOld@testing@cppgc@@YA_NPEAX@Z=QQNT.original.dll.?IsHeapObjectOld@testing@cppgc@@YA_NPEAX@Z
    ?IsHostObject@Delegate@ValueSerializer@v8@@UEAA?AV?$Maybe@_N@3@PEAVIsolate@3@V?$Local@VObject@v8@@@3@@Z=QQNT.original.dll.?IsHostObject@Delegate@ValueSerializer@v8@@UEAA?AV?$Maybe@_N@3@PEAVIsolate@3@V?$Local@VObject@v8@@@3@@Z
    ?IsImmutableProto@ObjectTemplate@v8@@QEBA_NXZ=QQNT.original.dll.?IsImmutableProto@ObjectTemplate@v8@@QEBA_NXZ
    ?IsInAtomicPause@HeapState@subtle@cppgc@@SA_NAEBVHeapHandle@3@@Z=QQNT.original.dll.?IsInAtomicPause@HeapState@subtle@cppgc@@SA_NAEBVHeapHandle@3@@Z
    ?IsInUse@Isolate@v8@@QEAA_NXZ=QQNT.original.dll.?IsInUse@Isolate@v8@@QEAA_NXZ
    ?IsInt16Array@Value@v8@@QEBA_NXZ=QQNT.original.dll.?IsInt16Array@Value@v8@@QEBA_NXZ
    ?IsInt32@Value@v8@@QEBA_NXZ=QQNT.original.dll.?IsInt32@Value@v8@@QEBA_NXZ
    ?IsInt32Array@Value@v8@@QEBA_NXZ=QQNT.original.dll.?IsInt32Array@Value@v8@@QEBA_NXZ
    ?IsInt8Array@Value@v8@@QEBA_NXZ=QQNT.original.dll.?IsInt8Array@Value@v8@@QEBA_NXZ
    ?IsInvalid@V8StackTraceId@v8_inspector@@QEBA_NXZ=QQNT.original.dll.?IsInvalid@V8StackTraceId@v8_inspector@@QEBA_NXZ
    ?IsLeafTemplateForApiObject@FunctionTemplate@v8@@QEBA_NV?$Local@VValue@v8@@@2@@Z=QQNT.original.dll.?IsLeafTemplateForApiObject@FunctionTemplate@v8@@QEBA_NV?$Local@VValue@v8@@@2@@Z
    ?IsLoadBrowserProcessSpecificV8SnapshotEnabled@fuses@electron@@YA_NXZ=QQNT.original.dll.?IsLoadBrowserProcessSpecificV8SnapshotEnabled@fuses@electron@@YA_NXZ
    ?IsLocked@Locker@v8@@SA_NPEAVIsolate@2@@Z=QQNT.original.dll.?IsLocked@Locker@v8@@SA_NPEAVIsolate@2@@Z
    ?IsMap@Value@v8@@QEBA_NXZ=QQNT.original.dll.?IsMap@Value@v8@@QEBA_NXZ
    ?IsMapIterator@Value@v8@@QEBA_NXZ=QQNT.original.dll.?IsMapIterator@Value@v8@@QEBA_NXZ
    ?IsMarking@HeapState@subtle@cppgc@@SA_NAEBVHeapHandle@3@@Z=QQNT.original.dll.?IsMarking@HeapState@subtle@cppgc@@SA_NAEBVHeapHandle@3@@Z
    ?IsModule@Data@v8@@QEBA_NXZ=QQNT.original.dll.?IsModule@Data@v8@@QEBA_NXZ
    ?IsModuleNamespaceObject@Value@v8@@QEBA_NXZ=QQNT.original.dll.?IsModuleNamespaceObject@Value@v8@@QEBA_NXZ
    ?IsName@Value@v8@@QEBA_NXZ=QQNT.original.dll.?IsName@Value@v8@@QEBA_NXZ
    ?IsNativeError@Value@v8@@QEBA_NXZ=QQNT.original.dll.?IsNativeError@Value@v8@@QEBA_NXZ
    ?IsNodeCliInspectEnabled@fuses@electron@@YA_NXZ=QQNT.original.dll.?IsNodeCliInspectEnabled@fuses@electron@@YA_NXZ
    ?IsNodeOptionsEnabled@fuses@electron@@YA_NXZ=QQNT.original.dll.?IsNodeOptionsEnabled@fuses@electron@@YA_NXZ
    ?IsNotIndicativeOfMemoryLeakAtExit@ModuleWrap@loader@node@@UEBA_NXZ=QQNT.original.dll.?IsNotIndicativeOfMemoryLeakAtExit@ModuleWrap@loader@node@@UEBA_NXZ
    ?IsNull@Value@v8@@QEBA_NXZ=QQNT.original.dll.?IsNull@Value@v8@@QEBA_NXZ
    ?IsNullOrUndefined@Value@v8@@QEBA_NXZ=QQNT.original.dll.?IsNullOrUndefined@Value@v8@@QEBA_NXZ
    ?IsNumber@Value@v8@@QEBA_NXZ=QQNT.original.dll.?IsNumber@Value@v8@@QEBA_NXZ
    ?IsNumberObject@Value@v8@@QEBA_NXZ=QQNT.original.dll.?IsNumberObject@Value@v8@@QEBA_NXZ
    ?IsObject@Value@v8@@QEBA_NXZ=QQNT.original.dll.?IsObject@Value@v8@@QEBA_NXZ
    ?IsObjectTemplate@Data@v8@@QEBA_NXZ=QQNT.original.dll.?IsObjectTemplate@Data@v8@@QEBA_NXZ
    ?IsOneByte@String@v8@@QEBA_NXZ=QQNT.original.dll.?IsOneByte@String@v8@@QEBA_NXZ
    ?IsOnlyLoadAppFromAsarEnabled@fuses@electron@@YA_NXZ=QQNT.original.dll.?IsOnlyLoadAppFromAsarEnabled@fuses@electron@@YA_NXZ
    ?IsOpaque@Message@v8@@QEBA_NXZ=QQNT.original.dll.?IsOpaque@Message@v8@@QEBA_NXZ
    ?IsPrivate@Data@v8@@QEBA_NXZ=QQNT.original.dll.?IsPrivate@Data@v8@@QEBA_NXZ
    ?IsPromise@Value@v8@@QEBA_NXZ=QQNT.original.dll.?IsPromise@Value@v8@@QEBA_NXZ
    ?IsProxy@Value@v8@@QEBA_NXZ=QQNT.original.dll.?IsProxy@Value@v8@@QEBA_NXZ
    ?IsRegExp@Value@v8@@QEBA_NXZ=QQNT.original.dll.?IsRegExp@Value@v8@@QEBA_NXZ
    ?IsResizableByUserJavaScript@ArrayBuffer@v8@@QEBA_NXZ=QQNT.original.dll.?IsResizableByUserJavaScript@ArrayBuffer@v8@@QEBA_NXZ
    ?IsResizableByUserJavaScript@BackingStore@v8@@QEBA_NXZ=QQNT.original.dll.?IsResizableByUserJavaScript@BackingStore@v8@@QEBA_NXZ
    ?IsRevoked@Proxy@v8@@QEBA_NXZ=QQNT.original.dll.?IsRevoked@Proxy@v8@@QEBA_NXZ
    ?IsRunAsNodeEnabled@fuses@electron@@YA_NXZ=QQNT.original.dll.?IsRunAsNodeEnabled@fuses@electron@@YA_NXZ
    ?IsRunningMicrotasks@MicrotasksScope@v8@@SA_NPEAVIsolate@2@@Z=QQNT.original.dll.?IsRunningMicrotasks@MicrotasksScope@v8@@SA_NPEAVIsolate@2@@Z
    ?IsSandboxConfiguredSecurely@V8@v8@@SA_NXZ=QQNT.original.dll.?IsSandboxConfiguredSecurely@V8@v8@@SA_NXZ
    ?IsScriptSharedCrossOrigin@CpuProfileNode@v8@@QEBA_NXZ=QQNT.original.dll.?IsScriptSharedCrossOrigin@CpuProfileNode@v8@@QEBA_NXZ
    ?IsSet@CageBaseGlobal@internal@cppgc@@SA_NXZ=QQNT.original.dll.?IsSet@CageBaseGlobal@internal@cppgc@@SA_NXZ
    ?IsSet@Value@v8@@QEBA_NXZ=QQNT.original.dll.?IsSet@Value@v8@@QEBA_NXZ
    ?IsSetIterator@Value@v8@@QEBA_NXZ=QQNT.original.dll.?IsSetIterator@Value@v8@@QEBA_NXZ
    ?IsShared@BackingStore@v8@@QEBA_NXZ=QQNT.original.dll.?IsShared@BackingStore@v8@@QEBA_NXZ
    ?IsSharedArrayBuffer@Value@v8@@QEBA_NXZ=QQNT.original.dll.?IsSharedArrayBuffer@Value@v8@@QEBA_NXZ
    ?IsSharedCrossOrigin@Message@v8@@QEBA_NXZ=QQNT.original.dll.?IsSharedCrossOrigin@Message@v8@@QEBA_NXZ
    ?IsSourceTextModule@Module@v8@@QEBA_NXZ=QQNT.original.dll.?IsSourceTextModule@Module@v8@@QEBA_NXZ
    ?IsString@Value@v8@@QEBA_NXZ=QQNT.original.dll.?IsString@Value@v8@@QEBA_NXZ
    ?IsStringObject@Value@v8@@QEBA_NXZ=QQNT.original.dll.?IsStringObject@Value@v8@@QEBA_NXZ
    ?IsSweeping@HeapState@subtle@cppgc@@SA_NAEBVHeapHandle@3@@Z=QQNT.original.dll.?IsSweeping@HeapState@subtle@cppgc@@SA_NAEBVHeapHandle@3@@Z
    ?IsSweepingOnOwningThread@HeapState@subtle@cppgc@@SA_NAEBVHeapHandle@3@@Z=QQNT.original.dll.?IsSweepingOnOwningThread@HeapState@subtle@cppgc@@SA_NAEBVHeapHandle@3@@Z
    ?IsSymbol@Value@v8@@QEBA_NXZ=QQNT.original.dll.?IsSymbol@Value@v8@@QEBA_NXZ
    ?IsSymbolObject@Value@v8@@QEBA_NXZ=QQNT.original.dll.?IsSymbolObject@Value@v8@@QEBA_NXZ
    ?IsSyntheticModule@Module@v8@@QEBA_NXZ=QQNT.original.dll.?IsSyntheticModule@Module@v8@@QEBA_NXZ
    ?IsTakingSnapshot@HeapProfiler@v8@@QEAA_NXZ=QQNT.original.dll.?IsTakingSnapshot@HeapProfiler@v8@@QEAA_NXZ
    ?IsTrue@Value@v8@@QEBA_NXZ=QQNT.original.dll.?IsTrue@Value@v8@@QEBA_NXZ
    ?IsTypedArray@Value@v8@@QEBA_NXZ=QQNT.original.dll.?IsTypedArray@Value@v8@@QEBA_NXZ
    ?IsUint16Array@Value@v8@@QEBA_NXZ=QQNT.original.dll.?IsUint16Array@Value@v8@@QEBA_NXZ
    ?IsUint32@Value@v8@@QEBA_NXZ=QQNT.original.dll.?IsUint32@Value@v8@@QEBA_NXZ
    ?IsUint32Array@Value@v8@@QEBA_NXZ=QQNT.original.dll.?IsUint32Array@Value@v8@@QEBA_NXZ
    ?IsUint8Array@Value@v8@@QEBA_NXZ=QQNT.original.dll.?IsUint8Array@Value@v8@@QEBA_NXZ
    ?IsUint8ClampedArray@Value@v8@@QEBA_NXZ=QQNT.original.dll.?IsUint8ClampedArray@Value@v8@@QEBA_NXZ
    ?IsUndefined@Value@v8@@QEBA_NXZ=QQNT.original.dll.?IsUndefined@Value@v8@@QEBA_NXZ
    ?IsUndetectable@Object@v8@@QEBA_NXZ=QQNT.original.dll.?IsUndetectable@Object@v8@@QEBA_NXZ
    ?IsUserJavaScript@StackFrame@v8@@QEBA_NXZ=QQNT.original.dll.?IsUserJavaScript@StackFrame@v8@@QEBA_NXZ
    ?IsValid@StartupData@v8@@QEBA_NXZ=QQNT.original.dll.?IsValid@StartupData@v8@@QEBA_NXZ
    ?IsValue@Data@v8@@QEBA_NXZ=QQNT.original.dll.?IsValue@Data@v8@@QEBA_NXZ
    ?IsVerbose@TryCatch@v8@@QEBA_NXZ=QQNT.original.dll.?IsVerbose@TryCatch@v8@@QEBA_NXZ
    ?IsWasm@StackFrame@v8@@QEBA_NXZ=QQNT.original.dll.?IsWasm@StackFrame@v8@@QEBA_NXZ
    ?IsWasmMemoryObject@Value@v8@@QEBA_NXZ=QQNT.original.dll.?IsWasmMemoryObject@Value@v8@@QEBA_NXZ
    ?IsWasmModuleObject@Value@v8@@QEBA_NXZ=QQNT.original.dll.?IsWasmModuleObject@Value@v8@@QEBA_NXZ
    ?IsWasmNull@Value@v8@@QEBA_NXZ=QQNT.original.dll.?IsWasmNull@Value@v8@@QEBA_NXZ
    ?IsWeakMap@Value@v8@@QEBA_NXZ=QQNT.original.dll.?IsWeakMap@Value@v8@@QEBA_NXZ
    ?IsWeakRef@Value@v8@@QEBA_NXZ=QQNT.original.dll.?IsWeakRef@Value@v8@@QEBA_NXZ
    ?IsWeakSet@Value@v8@@QEBA_NXZ=QQNT.original.dll.?IsWeakSet@Value@v8@@QEBA_NXZ
    ?IsWithinCage@CagedHeapBase@internal@cppgc@@SA_NPEBX@Z=QQNT.original.dll.?IsWithinCage@CagedHeapBase@internal@cppgc@@SA_NPEBX@Z
    ?IsolateFromNeverReadOnlySpaceObject@internal@v8@@YAPEAVIsolate@12@_K@Z=QQNT.original.dll.?IsolateFromNeverReadOnlySpaceObject@internal@v8@@YAPEAVIsolate@12@_K@Z
    ?IsolateInBackgroundNotification@Isolate@v8@@QEAAXXZ=QQNT.original.dll.?IsolateInBackgroundNotification@Isolate@v8@@QEAAXXZ
    ?IsolateInForegroundNotification@Isolate@v8@@QEAAXXZ=QQNT.original.dll.?IsolateInForegroundNotification@Isolate@v8@@QEAAXXZ
    ?Iterate@Array@v8@@QEAA?AV?$Maybe@X@2@V?$Local@VContext@v8@@@2@P6A?AW4CallbackResult@12@IV?$Local@VValue@v8@@@2@PEAX@Z2@Z=QQNT.original.dll.?Iterate@Array@v8@@QEAA?AV?$Maybe@X@2@V?$Local@VContext@v8@@@2@P6A?AW4CallbackResult@12@IV?$Local@VValue@v8@@@2@PEAX@Z2@Z
    ?Iterate@CrossThreadPersistentRegion@internal@cppgc@@QEAAXAEAVRootVisitor@23@@Z=QQNT.original.dll.?Iterate@CrossThreadPersistentRegion@internal@cppgc@@QEAAXAEAVRootVisitor@23@@Z
    ?Iterate@PersistentRegionBase@internal@cppgc@@QEAAXAEAVRootVisitor@23@@Z=QQNT.original.dll.?Iterate@PersistentRegionBase@internal@cppgc@@QEAAXAEAVRootVisitor@23@@Z
    ?JSStackComparableAddressPrivate@BackupIncumbentScope@Context@v8@@AEBA_KXZ=QQNT.original.dll.?JSStackComparableAddressPrivate@BackupIncumbentScope@Context@v8@@AEBA_KXZ
    ?JSStackComparableAddressPrivate@TryCatch@v8@@AEAA_KXZ=QQNT.original.dll.?JSStackComparableAddressPrivate@TryCatch@v8@@AEAA_KXZ
    ?JitPage@JitPageReference@ThreadIsolation@internal@v8@@QEAAPEAV0234@XZ=QQNT.original.dll.?JitPage@JitPageReference@ThreadIsolation@internal@v8@@QEAAPEAV0234@XZ
    ?Leave@DisallowGarbageCollectionScope@subtle@cppgc@@SAXAEAVHeapHandle@3@@Z=QQNT.original.dll.?Leave@DisallowGarbageCollectionScope@subtle@cppgc@@SAXAEAVHeapHandle@3@@Z
    ?Leave@NoGarbageCollectionScope@subtle@cppgc@@SAXAEAVHeapHandle@3@@Z=QQNT.original.dll.?Leave@NoGarbageCollectionScope@subtle@cppgc@@SAXAEAVHeapHandle@3@@Z
    ?Length@Array@v8@@QEBAIXZ=QQNT.original.dll.?Length@Array@v8@@QEBAIXZ
    ?Length@Buffer@node@@YA_KV?$Local@VObject@v8@@@v8@@@Z=QQNT.original.dll.?Length@Buffer@node@@YA_KV?$Local@VObject@v8@@@v8@@@Z
    ?Length@Buffer@node@@YA_KV?$Local@VValue@v8@@@v8@@@Z=QQNT.original.dll.?Length@Buffer@node@@YA_KV?$Local@VValue@v8@@@v8@@@Z
    ?Length@FixedArray@v8@@QEBAHXZ=QQNT.original.dll.?Length@FixedArray@v8@@QEBAHXZ
    ?Length@OptimizingCompileDispatcherQueue@internal@v8@@QEAAHXZ=QQNT.original.dll.?Length@OptimizingCompileDispatcherQueue@internal@v8@@QEAAHXZ
    ?Length@PrimitiveArray@v8@@QEBAHXZ=QQNT.original.dll.?Length@PrimitiveArray@v8@@QEBAHXZ
    ?Length@String@v8@@QEBAHXZ=QQNT.original.dll.?Length@String@v8@@QEBAHXZ
    ?Length@TypedArray@v8@@QEAA_KXZ=QQNT.original.dll.?Length@TypedArray@v8@@QEAA_KXZ
    ?LimitForTesting@GCInfoTable@internal@cppgc@@QEBAGXZ=QQNT.original.dll.?LimitForTesting@GCInfoTable@internal@cppgc@@QEBAGXZ
    ?Line@SourceLocation@v8@@QEBA_KXZ=QQNT.original.dll.?Line@SourceLocation@v8@@QEBA_KXZ
    ?LineOffset@ScriptOrigin@v8@@QEBAHXZ=QQNT.original.dll.?LineOffset@ScriptOrigin@v8@@QEBAHXZ
    ?Link@ModuleWrap@loader@node@@CAXAEBV?$FunctionCallbackInfo@VValue@v8@@@v8@@@Z=QQNT.original.dll.?Link@ModuleWrap@loader@node@@CAXAEBV?$FunctionCallbackInfo@VValue@v8@@@v8@@@Z
    ?LinkExistingOrCreate@V8SerializationDuplicateTracker@v8_inspector@@QEAA?AV?$unique_ptr@VDictionaryValue@protocol@v8_inspector@@U?$default_delete@VDictionaryValue@protocol@v8_inspector@@@__Cr@std@@@__Cr@std@@V?$Local@VValue@v8@@@v8@@PEA_N@Z=QQNT.original.dll.?LinkExistingOrCreate@V8SerializationDuplicateTracker@v8_inspector@@QEAA?AV?$unique_ptr@VDictionaryValue@protocol@v8_inspector@@U?$default_delete@VDictionaryValue@protocol@v8_inspector@@@__Cr@std@@@__Cr@std@@V?$Local@VValue@v8@@@v8@@PEA_N@Z
    ?LoadEnvironment@node@@YA?AV?$MaybeLocal@VValue@v8@@@v8@@PEAVEnvironment@1@V?$basic_string_view@DU?$char_traits@D@__Cr@std@@@__Cr@std@@V?$function@$$A6AXPEAVEnvironment@node@@V?$Local@VValue@v8@@@v8@@1@Z@67@@Z=QQNT.original.dll.?LoadEnvironment@node@@YA?AV?$MaybeLocal@VValue@v8@@@v8@@PEAVEnvironment@1@V?$basic_string_view@DU?$char_traits@D@__Cr@std@@@__Cr@std@@V?$function@$$A6AXPEAVEnvironment@node@@V?$Local@VValue@v8@@@v8@@1@Z@67@@Z
    ?LoadEnvironment@node@@YA?AV?$MaybeLocal@VValue@v8@@@v8@@PEAVEnvironment@1@V?$function@$$A6A?AV?$MaybeLocal@VValue@v8@@@v8@@AEBUStartExecutionCallbackInfo@node@@@Z@__Cr@std@@V?$function@$$A6AXPEAVEnvironment@node@@V?$Local@VValue@v8@@@v8@@1@Z@67@@Z=QQNT.original.dll.?LoadEnvironment@node@@YA?AV?$MaybeLocal@VValue@v8@@@v8@@PEAVEnvironment@1@V?$function@$$A6A?AV?$MaybeLocal@VValue@v8@@@v8@@AEBUStartExecutionCallbackInfo@node@@@Z@__Cr@std@@V?$function@$$A6AXPEAVEnvironment@node@@V?$Local@VValue@v8@@@v8@@1@Z@67@@Z
    ?LocaleConfigurationChangeNotification@Isolate@v8@@QEAAXXZ=QQNT.original.dll.?LocaleConfigurationChangeNotification@Isolate@v8@@QEAAXXZ
    ?Lock@ExternalStringResourceBase@String@v8@@MEBAXXZ=QQNT.original.dll.?Lock@ExternalStringResourceBase@String@v8@@MEBAXXZ
    ?LookupAllocation@JitPageReference@ThreadIsolation@internal@v8@@QEAAAEAVJitAllocation@234@_K0W4JitAllocationType@234@@Z=QQNT.original.dll.?LookupAllocation@JitPageReference@ThreadIsolation@internal@v8@@QEAAAEAVJitAllocation@234@_K0W4JitAllocationType@234@@Z
    ?LookupJitAllocation@ThreadIsolation@internal@v8@@SA?AVWritableJitAllocation@23@_K0W4JitAllocationType@123@_N@Z=QQNT.original.dll.?LookupJitAllocation@ThreadIsolation@internal@v8@@SA?AVWritableJitAllocation@23@_K0W4JitAllocationType@123@_N@Z
    ?LookupJitPage@ThreadIsolation@internal@v8@@CA?AVJitPageReference@123@_K0@Z=QQNT.original.dll.?LookupJitPage@ThreadIsolation@internal@v8@@CA?AVJitPageReference@123@_K0@Z
    ?LookupJitPageLocked@ThreadIsolation@internal@v8@@CA?AVJitPageReference@123@_K0@Z=QQNT.original.dll.?LookupJitPageLocked@ThreadIsolation@internal@v8@@CA?AVJitPageReference@123@_K0@Z
    ?LookupJumpTableAllocations@ThreadIsolation@internal@v8@@SA?AVWritableJumpTablePair@23@_K000@Z=QQNT.original.dll.?LookupJumpTableAllocations@ThreadIsolation@internal@v8@@SA?AVWritableJumpTablePair@23@_K000@Z
    ?LookupWritableJitPage@ThreadIsolation@internal@v8@@SA?AVWritableJitPage@23@_K0@Z=QQNT.original.dll.?LookupWritableJitPage@ThreadIsolation@internal@v8@@SA?AVWritableJitPage@23@_K0@Z
    ?LowMemoryNotification@Isolate@v8@@QEAAXXZ=QQNT.original.dll.?LowMemoryNotification@Isolate@v8@@QEAAXXZ
    ?MakeCallback@AsyncResource@node@@QEAA?AV?$MaybeLocal@VValue@v8@@@v8@@PEBDHPEAV?$Local@VValue@v8@@@4@@Z=QQNT.original.dll.?MakeCallback@AsyncResource@node@@QEAA?AV?$MaybeLocal@VValue@v8@@@v8@@PEBDHPEAV?$Local@VValue@v8@@@4@@Z
    ?MakeCallback@AsyncResource@node@@QEAA?AV?$MaybeLocal@VValue@v8@@@v8@@V?$Local@VFunction@v8@@@4@HPEAV?$Local@VValue@v8@@@4@@Z=QQNT.original.dll.?MakeCallback@AsyncResource@node@@QEAA?AV?$MaybeLocal@VValue@v8@@@v8@@V?$Local@VFunction@v8@@@4@HPEAV?$Local@VValue@v8@@@4@@Z
    ?MakeCallback@AsyncResource@node@@QEAA?AV?$MaybeLocal@VValue@v8@@@v8@@V?$Local@VString@v8@@@4@HPEAV?$Local@VValue@v8@@@4@@Z=QQNT.original.dll.?MakeCallback@AsyncResource@node@@QEAA?AV?$MaybeLocal@VValue@v8@@@v8@@V?$Local@VString@v8@@@4@HPEAV?$Local@VValue@v8@@@4@@Z
    ?MakeCallback@node@@YA?AV?$Local@VValue@v8@@@v8@@PEAVIsolate@3@V?$Local@VObject@v8@@@3@PEBDHPEAV23@@Z=QQNT.original.dll.?MakeCallback@node@@YA?AV?$Local@VValue@v8@@@v8@@PEAVIsolate@3@V?$Local@VObject@v8@@@3@PEBDHPEAV23@@Z
    ?MakeCallback@node@@YA?AV?$Local@VValue@v8@@@v8@@PEAVIsolate@3@V?$Local@VObject@v8@@@3@V?$Local@VFunction@v8@@@3@HPEAV23@@Z=QQNT.original.dll.?MakeCallback@node@@YA?AV?$Local@VValue@v8@@@v8@@PEAVIsolate@3@V?$Local@VObject@v8@@@3@V?$Local@VFunction@v8@@@3@HPEAV23@@Z
    ?MakeCallback@node@@YA?AV?$Local@VValue@v8@@@v8@@PEAVIsolate@3@V?$Local@VObject@v8@@@3@V?$Local@VString@v8@@@3@HPEAV23@@Z=QQNT.original.dll.?MakeCallback@node@@YA?AV?$Local@VValue@v8@@@v8@@PEAVIsolate@3@V?$Local@VObject@v8@@@3@V?$Local@VString@v8@@@3@HPEAV23@@Z
    ?MakeCallback@node@@YA?AV?$MaybeLocal@VValue@v8@@@v8@@PEAVIsolate@3@V?$Local@VObject@v8@@@3@PEBDHPEAV?$Local@VValue@v8@@@3@Uasync_context@1@@Z=QQNT.original.dll.?MakeCallback@node@@YA?AV?$MaybeLocal@VValue@v8@@@v8@@PEAVIsolate@3@V?$Local@VObject@v8@@@3@PEBDHPEAV?$Local@VValue@v8@@@3@Uasync_context@1@@Z
    ?MakeCallback@node@@YA?AV?$MaybeLocal@VValue@v8@@@v8@@PEAVIsolate@3@V?$Local@VObject@v8@@@3@V?$Local@VFunction@v8@@@3@HPEAV?$Local@VValue@v8@@@3@Uasync_context@1@@Z=QQNT.original.dll.?MakeCallback@node@@YA?AV?$MaybeLocal@VValue@v8@@@v8@@PEAVIsolate@3@V?$Local@VObject@v8@@@3@V?$Local@VFunction@v8@@@3@HPEAV?$Local@VValue@v8@@@3@Uasync_context@1@@Z
    ?MakeCallback@node@@YA?AV?$MaybeLocal@VValue@v8@@@v8@@PEAVIsolate@3@V?$Local@VObject@v8@@@3@V?$Local@VString@v8@@@3@HPEAV?$Local@VValue@v8@@@3@Uasync_context@1@@Z=QQNT.original.dll.?MakeCallback@node@@YA?AV?$MaybeLocal@VValue@v8@@@v8@@PEAVIsolate@3@V?$Local@VObject@v8@@@3@V?$Local@VString@v8@@@3@HPEAV?$Local@VValue@v8@@@3@Uasync_context@1@@Z
    ?MakeExecutable@ThreadIsolation@internal@v8@@SA_N_K0@Z=QQNT.original.dll.?MakeExecutable@ThreadIsolation@internal@v8@@SA_N_K0@Z
    ?MakeExternal@String@v8@@QEAA_NPEAVExternalOneByteStringResource@12@@Z=QQNT.original.dll.?MakeExternal@String@v8@@QEAA_NPEAVExternalOneByteStringResource@12@@Z
    ?MakeExternal@String@v8@@QEAA_NPEAVExternalStringResource@12@@Z=QQNT.original.dll.?MakeExternal@String@v8@@QEAA_NPEAVExternalStringResource@12@@Z
    ?MakeExternal@String@v8@@QEAA_NPEAVIsolate@2@PEAVExternalOneByteStringResource@12@@Z=QQNT.original.dll.?MakeExternal@String@v8@@QEAA_NPEAVIsolate@2@PEAVExternalOneByteStringResource@12@@Z
    ?MakeExternal@String@v8@@QEAA_NPEAVIsolate@2@PEAVExternalStringResource@12@@Z=QQNT.original.dll.?MakeExternal@String@v8@@QEAA_NPEAVIsolate@2@PEAVExternalStringResource@12@@Z
    ?MakeWeak@api_internal@v8@@YAXPEAPEA_K@Z=QQNT.original.dll.?MakeWeak@api_internal@v8@@YAXPEAPEA_K@Z
    ?MakeWeak@api_internal@v8@@YAXPEA_KPEAXP6AXAEBV?$WeakCallbackInfo@X@2@@ZW4WeakCallbackType@2@@Z=QQNT.original.dll.?MakeWeak@api_internal@v8@@YAXPEA_KPEAXP6AXAEBV?$WeakCallbackInfo@X@2@@ZW4WeakCallbackType@2@@Z
    ?MarkAsHandled@Promise@v8@@QEAAXXZ=QQNT.original.dll.?MarkAsHandled@Promise@v8@@QEAAXXZ
    ?MarkAsSilent@Promise@v8@@QEAAXXZ=QQNT.original.dll.?MarkAsSilent@Promise@v8@@QEAAXXZ
    ?MarkAsUndetectable@ObjectTemplate@v8@@QEAAXXZ=QQNT.original.dll.?MarkAsUndetectable@ObjectTemplate@v8@@QEAAXXZ
    ?Matches@TypecheckWitness@v8@@QEBA_NV?$Local@VValue@v8@@@2@@Z=QQNT.original.dll.?Matches@TypecheckWitness@v8@@QEBA_NV?$Local@VValue@v8@@@2@@Z
    ?MaxByteLength@ArrayBuffer@v8@@QEBA_KXZ=QQNT.original.dll.?MaxByteLength@ArrayBuffer@v8@@QEBA_KXZ
    ?MaxByteLength@BackingStore@v8@@QEBA_KXZ=QQNT.original.dll.?MaxByteLength@BackingStore@v8@@QEBA_KXZ
    ?MaxByteLength@SharedArrayBuffer@v8@@QEBA_KXZ=QQNT.original.dll.?MaxByteLength@SharedArrayBuffer@v8@@QEBA_KXZ
    ?MaxTableSize@GCInfoTable@internal@cppgc@@AEBA_KXZ=QQNT.original.dll.?MaxTableSize@GCInfoTable@internal@cppgc@@AEBA_KXZ
    ?MaybeNew@ArrayBuffer@v8@@SA?AV?$MaybeLocal@VArrayBuffer@v8@@@2@PEAVIsolate@2@_KW4BackingStoreInitializationMode@2@@Z=QQNT.original.dll.?MaybeNew@ArrayBuffer@v8@@SA?AV?$MaybeLocal@VArrayBuffer@v8@@@2@PEAVIsolate@2@_KW4BackingStoreInitializationMode@2@@Z
    ?MeasureMemory@Isolate@v8@@QEAA_NV?$unique_ptr@VMeasureMemoryDelegate@v8@@U?$default_delete@VMeasureMemoryDelegate@v8@@@__Cr@std@@@__Cr@std@@W4MeasureMemoryExecution@2@@Z=QQNT.original.dll.?MeasureMemory@Isolate@v8@@QEAA_NV?$unique_ptr@VMeasureMemoryDelegate@v8@@U?$default_delete@VMeasureMemoryDelegate@v8@@@__Cr@std@@@__Cr@std@@W4MeasureMemoryExecution@2@@Z
    ?MeasurementComplete@MeasureMemoryDelegate@v8@@UEAAXUResult@12@@Z=QQNT.original.dll.?MeasurementComplete@MeasureMemoryDelegate@v8@@UEAAXUResult@12@@Z
    ?MemoryInfo@ModuleWrap@loader@node@@UEBAXPEAVMemoryTracker@3@@Z=QQNT.original.dll.?MemoryInfo@ModuleWrap@loader@node@@UEBAXPEAVMemoryTracker@3@@Z
    ?MemoryInfoName@ModuleWrap@loader@node@@UEBAPEBDXZ=QQNT.original.dll.?MemoryInfoName@ModuleWrap@loader@node@@UEBAPEBDXZ
    ?MemoryPressureNotification@Isolate@v8@@QEAAXW4MemoryPressureLevel@2@@Z=QQNT.original.dll.?MemoryPressureNotification@Isolate@v8@@QEAAXW4MemoryPressureLevel@2@@Z
    ?Merge@JitPageReference@ThreadIsolation@internal@v8@@QEAAXAEAV1234@@Z=QQNT.original.dll.?Merge@JitPageReference@ThreadIsolation@internal@v8@@QEAAXAEAV1234@@Z
    ?MergeFlags@?$CTypeInfoBuilder@H$S@v8@@CA?AW4Flags@CTypeInfo@2@XZ=QQNT.original.dll.?MergeFlags@?$CTypeInfoBuilder@H$S@v8@@CA?AW4Flags@CTypeInfo@2@XZ
    ?MergeFlags@?$CTypeInfoBuilder@I$S@v8@@CA?AW4Flags@CTypeInfo@2@XZ=QQNT.original.dll.?MergeFlags@?$CTypeInfoBuilder@I$S@v8@@CA?AW4Flags@CTypeInfo@2@XZ
    ?MergeFlags@?$CTypeInfoBuilder@M$S@v8@@CA?AW4Flags@CTypeInfo@2@XZ=QQNT.original.dll.?MergeFlags@?$CTypeInfoBuilder@M$S@v8@@CA?AW4Flags@CTypeInfo@2@XZ
    ?MergeFlags@?$CTypeInfoBuilder@N$S@v8@@CA?AW4Flags@CTypeInfo@2@XZ=QQNT.original.dll.?MergeFlags@?$CTypeInfoBuilder@N$S@v8@@CA?AW4Flags@CTypeInfo@2@XZ
    ?MergeWithExistingScript@ConsumeCodeCacheTask@ScriptCompiler@v8@@QEAAXXZ=QQNT.original.dll.?MergeWithExistingScript@ConsumeCodeCacheTask@ScriptCompiler@v8@@QEAAXXZ
    ?Message@TryCatch@v8@@QEBA?AV?$Local@VMessage@v8@@@2@XZ=QQNT.original.dll.?Message@TryCatch@v8@@QEBA?AV?$Local@VMessage@v8@@@2@XZ
    ?MoveGlobalReference@api_internal@v8@@YAXPEAPEA_K0@Z=QQNT.original.dll.?MoveGlobalReference@api_internal@v8@@YAXPEAPEA_K0@Z
    ?MoveTracedReference@internal@v8@@YAXPEAPEA_K0@Z=QQNT.original.dll.?MoveTracedReference@internal@v8@@YAXPEAPEA_K0@Z
    ?Name@Private@v8@@QEBA?AV?$Local@VValue@v8@@@2@XZ=QQNT.original.dll.?Name@Private@v8@@QEBA?AV?$Local@VValue@v8@@@2@XZ
    ?New@Array@v8@@SA?AV?$Local@VArray@v8@@@2@PEAVIsolate@2@H@Z=QQNT.original.dll.?New@Array@v8@@SA?AV?$Local@VArray@v8@@@2@PEAVIsolate@2@H@Z
    ?New@Array@v8@@SA?AV?$Local@VArray@v8@@@2@PEAVIsolate@2@PEAV?$Local@VValue@v8@@@2@_K@Z=QQNT.original.dll.?New@Array@v8@@SA?AV?$Local@VArray@v8@@@2@PEAVIsolate@2@PEAV?$Local@VValue@v8@@@2@_K@Z
    ?New@Array@v8@@SA?AV?$MaybeLocal@VArray@v8@@@2@V?$Local@VContext@v8@@@2@_KV?$function@$$A6A?AV?$MaybeLocal@VValue@v8@@@v8@@XZ@__Cr@std@@@Z=QQNT.original.dll.?New@Array@v8@@SA?AV?$MaybeLocal@VArray@v8@@@2@V?$Local@VContext@v8@@@2@_KV?$function@$$A6A?AV?$MaybeLocal@VValue@v8@@@v8@@XZ@__Cr@std@@@Z
    ?New@ArrayBuffer@v8@@SA?AV?$Local@VArrayBuffer@v8@@@2@PEAVIsolate@2@V?$shared_ptr@VBackingStore@v8@@@__Cr@std@@@Z=QQNT.original.dll.?New@ArrayBuffer@v8@@SA?AV?$Local@VArrayBuffer@v8@@@2@PEAVIsolate@2@V?$shared_ptr@VBackingStore@v8@@@__Cr@std@@@Z
    ?New@ArrayBuffer@v8@@SA?AV?$Local@VArrayBuffer@v8@@@2@PEAVIsolate@2@_KW4BackingStoreInitializationMode@2@@Z=QQNT.original.dll.?New@ArrayBuffer@v8@@SA?AV?$Local@VArrayBuffer@v8@@@2@PEAVIsolate@2@_KW4BackingStoreInitializationMode@2@@Z
    ?New@BigInt64Array@v8@@SA?AV?$Local@VBigInt64Array@v8@@@2@V?$Local@VArrayBuffer@v8@@@2@_K1@Z=QQNT.original.dll.?New@BigInt64Array@v8@@SA?AV?$Local@VBigInt64Array@v8@@@2@V?$Local@VArrayBuffer@v8@@@2@_K1@Z
    ?New@BigInt64Array@v8@@SA?AV?$Local@VBigInt64Array@v8@@@2@V?$Local@VSharedArrayBuffer@v8@@@2@_K1@Z=QQNT.original.dll.?New@BigInt64Array@v8@@SA?AV?$Local@VBigInt64Array@v8@@@2@V?$Local@VSharedArrayBuffer@v8@@@2@_K1@Z
    ?New@BigInt@v8@@SA?AV?$Local@VBigInt@v8@@@2@PEAVIsolate@2@_J@Z=QQNT.original.dll.?New@BigInt@v8@@SA?AV?$Local@VBigInt@v8@@@2@PEAVIsolate@2@_J@Z
    ?New@BigIntObject@v8@@SA?AV?$Local@VValue@v8@@@2@PEAVIsolate@2@_J@Z=QQNT.original.dll.?New@BigIntObject@v8@@SA?AV?$Local@VValue@v8@@@2@PEAVIsolate@2@_J@Z
    ?New@BigUint64Array@v8@@SA?AV?$Local@VBigUint64Array@v8@@@2@V?$Local@VArrayBuffer@v8@@@2@_K1@Z=QQNT.original.dll.?New@BigUint64Array@v8@@SA?AV?$Local@VBigUint64Array@v8@@@2@V?$Local@VArrayBuffer@v8@@@2@_K1@Z
    ?New@BigUint64Array@v8@@SA?AV?$Local@VBigUint64Array@v8@@@2@V?$Local@VSharedArrayBuffer@v8@@@2@_K1@Z=QQNT.original.dll.?New@BigUint64Array@v8@@SA?AV?$Local@VBigUint64Array@v8@@@2@V?$Local@VSharedArrayBuffer@v8@@@2@_K1@Z
    ?New@Boolean@v8@@SA?AV?$Local@VBoolean@v8@@@2@PEAVIsolate@2@_N@Z=QQNT.original.dll.?New@Boolean@v8@@SA?AV?$Local@VBoolean@v8@@@2@PEAVIsolate@2@_N@Z
    ?New@BooleanObject@v8@@SA?AV?$Local@VValue@v8@@@2@PEAVIsolate@2@_N@Z=QQNT.original.dll.?New@BooleanObject@v8@@SA?AV?$Local@VValue@v8@@@2@PEAVIsolate@2@_N@Z
    ?New@Buffer@node@@YA?AV?$MaybeLocal@VObject@v8@@@v8@@PEAVIsolate@4@PEAD_K@Z=QQNT.original.dll.?New@Buffer@node@@YA?AV?$MaybeLocal@VObject@v8@@@v8@@PEAVIsolate@4@PEAD_K@Z
    ?New@Buffer@node@@YA?AV?$MaybeLocal@VObject@v8@@@v8@@PEAVIsolate@4@PEAD_KP6AX1PEAX@Z3@Z=QQNT.original.dll.?New@Buffer@node@@YA?AV?$MaybeLocal@VObject@v8@@@v8@@PEAVIsolate@4@PEAD_KP6AX1PEAX@Z3@Z
    ?New@Buffer@node@@YA?AV?$MaybeLocal@VObject@v8@@@v8@@PEAVIsolate@4@V?$Local@VString@v8@@@4@W4encoding@2@@Z=QQNT.original.dll.?New@Buffer@node@@YA?AV?$MaybeLocal@VObject@v8@@@v8@@PEAVIsolate@4@V?$Local@VString@v8@@@4@W4encoding@2@@Z
    ?New@Buffer@node@@YA?AV?$MaybeLocal@VObject@v8@@@v8@@PEAVIsolate@4@_K@Z=QQNT.original.dll.?New@Buffer@node@@YA?AV?$MaybeLocal@VObject@v8@@@v8@@PEAVIsolate@4@_K@Z
    ?New@Buffer@node@@YA?AV?$MaybeLocal@VUint8Array@v8@@@v8@@PEAVIsolate@4@V?$Local@VArrayBuffer@v8@@@4@_K2@Z=QQNT.original.dll.?New@Buffer@node@@YA?AV?$MaybeLocal@VUint8Array@v8@@@v8@@PEAVIsolate@4@V?$Local@VArrayBuffer@v8@@@4@_K2@Z
    ?New@Context@v8@@SA?AV?$Local@VContext@v8@@@2@PEAVIsolate@2@PEAVExtensionConfiguration@2@V?$MaybeLocal@VObjectTemplate@v8@@@2@V?$MaybeLocal@VValue@v8@@@2@UDeserializeInternalFieldsCallback@2@PEAVMicrotaskQueue@2@UDeserializeContextDataCallback@2@UDeserializeAPIWrapperCallback@2@@Z=QQNT.original.dll.?New@Context@v8@@SA?AV?$Local@VContext@v8@@@2@PEAVIsolate@2@PEAVExtensionConfiguration@2@V?$MaybeLocal@VObjectTemplate@v8@@@2@V?$MaybeLocal@VValue@v8@@@2@UDeserializeInternalFieldsCallback@2@PEAVMicrotaskQueue@2@UDeserializeContextDataCallback@2@UDeserializeAPIWrapperCallback@2@@Z
    ?New@CpuProfiler@v8@@SAPEAV12@PEAVIsolate@2@W4CpuProfilingNamingMode@2@W4CpuProfilingLoggingMode@2@@Z=QQNT.original.dll.?New@CpuProfiler@v8@@SAPEAV12@PEAVIsolate@2@W4CpuProfilingNamingMode@2@W4CpuProfilingLoggingMode@2@@Z
    ?New@DataView@v8@@SA?AV?$Local@VDataView@v8@@@2@V?$Local@VArrayBuffer@v8@@@2@_K1@Z=QQNT.original.dll.?New@DataView@v8@@SA?AV?$Local@VDataView@v8@@@2@V?$Local@VArrayBuffer@v8@@@2@_K1@Z
    ?New@DataView@v8@@SA?AV?$Local@VDataView@v8@@@2@V?$Local@VSharedArrayBuffer@v8@@@2@_K1@Z=QQNT.original.dll.?New@DataView@v8@@SA?AV?$Local@VDataView@v8@@@2@V?$Local@VSharedArrayBuffer@v8@@@2@_K1@Z
    ?New@Date@v8@@SA?AV?$MaybeLocal@VValue@v8@@@2@V?$Local@VContext@v8@@@2@N@Z=QQNT.original.dll.?New@Date@v8@@SA?AV?$MaybeLocal@VValue@v8@@@2@V?$Local@VContext@v8@@@2@N@Z
    ?New@DictionaryTemplate@v8@@SA?AV?$Local@VDictionaryTemplate@v8@@@2@PEAVIsolate@2@V?$MemorySpan@$$CBV?$basic_string_view@DU?$char_traits@D@__Cr@std@@@__Cr@std@@@2@@Z=QQNT.original.dll.?New@DictionaryTemplate@v8@@SA?AV?$Local@VDictionaryTemplate@v8@@@2@PEAVIsolate@2@V?$MemorySpan@$$CBV?$basic_string_view@DU?$char_traits@D@__Cr@std@@@__Cr@std@@@2@@Z
    ?New@External@v8@@SA?AV?$Local@VExternal@v8@@@2@PEAVIsolate@2@PEAX@Z=QQNT.original.dll.?New@External@v8@@SA?AV?$Local@VExternal@v8@@@2@PEAVIsolate@2@PEAX@Z
    ?New@Float16Array@v8@@SA?AV?$Local@VFloat16Array@v8@@@2@V?$Local@VArrayBuffer@v8@@@2@_K1@Z=QQNT.original.dll.?New@Float16Array@v8@@SA?AV?$Local@VFloat16Array@v8@@@2@V?$Local@VArrayBuffer@v8@@@2@_K1@Z
    ?New@Float16Array@v8@@SA?AV?$Local@VFloat16Array@v8@@@2@V?$Local@VSharedArrayBuffer@v8@@@2@_K1@Z=QQNT.original.dll.?New@Float16Array@v8@@SA?AV?$Local@VFloat16Array@v8@@@2@V?$Local@VSharedArrayBuffer@v8@@@2@_K1@Z
    ?New@Float32Array@v8@@SA?AV?$Local@VFloat32Array@v8@@@2@V?$Local@VArrayBuffer@v8@@@2@_K1@Z=QQNT.original.dll.?New@Float32Array@v8@@SA?AV?$Local@VFloat32Array@v8@@@2@V?$Local@VArrayBuffer@v8@@@2@_K1@Z
    ?New@Float32Array@v8@@SA?AV?$Local@VFloat32Array@v8@@@2@V?$Local@VSharedArrayBuffer@v8@@@2@_K1@Z=QQNT.original.dll.?New@Float32Array@v8@@SA?AV?$Local@VFloat32Array@v8@@@2@V?$Local@VSharedArrayBuffer@v8@@@2@_K1@Z
    ?New@Float64Array@v8@@SA?AV?$Local@VFloat64Array@v8@@@2@V?$Local@VArrayBuffer@v8@@@2@_K1@Z=QQNT.original.dll.?New@Float64Array@v8@@SA?AV?$Local@VFloat64Array@v8@@@2@V?$Local@VArrayBuffer@v8@@@2@_K1@Z
    ?New@Float64Array@v8@@SA?AV?$Local@VFloat64Array@v8@@@2@V?$Local@VSharedArrayBuffer@v8@@@2@_K1@Z=QQNT.original.dll.?New@Float64Array@v8@@SA?AV?$Local@VFloat64Array@v8@@@2@V?$Local@VSharedArrayBuffer@v8@@@2@_K1@Z
    ?New@Function@v8@@SA?AV?$MaybeLocal@VFunction@v8@@@2@V?$Local@VContext@v8@@@2@P6AXAEBV?$FunctionCallbackInfo@VValue@v8@@@2@@ZV?$Local@VValue@v8@@@2@HW4ConstructorBehavior@2@W4SideEffectType@2@@Z=QQNT.original.dll.?New@Function@v8@@SA?AV?$MaybeLocal@VFunction@v8@@@2@V?$Local@VContext@v8@@@2@P6AXAEBV?$FunctionCallbackInfo@VValue@v8@@@2@@ZV?$Local@VValue@v8@@@2@HW4ConstructorBehavior@2@W4SideEffectType@2@@Z
    ?New@FunctionTemplate@v8@@SA?AV?$Local@VFunctionTemplate@v8@@@2@PEAVIsolate@2@P6AXAEBV?$FunctionCallbackInfo@VValue@v8@@@2@@ZV?$Local@VValue@v8@@@2@V?$Local@VSignature@v8@@@2@HW4ConstructorBehavior@2@W4SideEffectType@2@PEBVCFunction@2@GGG@Z=QQNT.original.dll.?New@FunctionTemplate@v8@@SA?AV?$Local@VFunctionTemplate@v8@@@2@PEAVIsolate@2@P6AXAEBV?$FunctionCallbackInfo@VValue@v8@@@2@@ZV?$Local@VValue@v8@@@2@V?$Local@VSignature@v8@@@2@HW4ConstructorBehavior@2@W4SideEffectType@2@PEBVCFunction@2@GGG@Z
    ?New@Int16Array@v8@@SA?AV?$Local@VInt16Array@v8@@@2@V?$Local@VArrayBuffer@v8@@@2@_K1@Z=QQNT.original.dll.?New@Int16Array@v8@@SA?AV?$Local@VInt16Array@v8@@@2@V?$Local@VArrayBuffer@v8@@@2@_K1@Z
    ?New@Int16Array@v8@@SA?AV?$Local@VInt16Array@v8@@@2@V?$Local@VSharedArrayBuffer@v8@@@2@_K1@Z=QQNT.original.dll.?New@Int16Array@v8@@SA?AV?$Local@VInt16Array@v8@@@2@V?$Local@VSharedArrayBuffer@v8@@@2@_K1@Z
    ?New@Int32Array@v8@@SA?AV?$Local@VInt32Array@v8@@@2@V?$Local@VArrayBuffer@v8@@@2@_K1@Z=QQNT.original.dll.?New@Int32Array@v8@@SA?AV?$Local@VInt32Array@v8@@@2@V?$Local@VArrayBuffer@v8@@@2@_K1@Z
    ?New@Int32Array@v8@@SA?AV?$Local@VInt32Array@v8@@@2@V?$Local@VSharedArrayBuffer@v8@@@2@_K1@Z=QQNT.original.dll.?New@Int32Array@v8@@SA?AV?$Local@VInt32Array@v8@@@2@V?$Local@VSharedArrayBuffer@v8@@@2@_K1@Z
    ?New@Int8Array@v8@@SA?AV?$Local@VInt8Array@v8@@@2@V?$Local@VArrayBuffer@v8@@@2@_K1@Z=QQNT.original.dll.?New@Int8Array@v8@@SA?AV?$Local@VInt8Array@v8@@@2@V?$Local@VArrayBuffer@v8@@@2@_K1@Z
    ?New@Int8Array@v8@@SA?AV?$Local@VInt8Array@v8@@@2@V?$Local@VSharedArrayBuffer@v8@@@2@_K1@Z=QQNT.original.dll.?New@Int8Array@v8@@SA?AV?$Local@VInt8Array@v8@@@2@V?$Local@VSharedArrayBuffer@v8@@@2@_K1@Z
    ?New@Integer@v8@@SA?AV?$Local@VInteger@v8@@@2@PEAVIsolate@2@H@Z=QQNT.original.dll.?New@Integer@v8@@SA?AV?$Local@VInteger@v8@@@2@PEAVIsolate@2@H@Z
    ?New@Isolate@v8@@SAPEAV12@AEBUCreateParams@12@@Z=QQNT.original.dll.?New@Isolate@v8@@SAPEAV12@AEBUCreateParams@12@@Z
    ?New@Map@v8@@SA?AV?$Local@VMap@v8@@@2@PEAVIsolate@2@@Z=QQNT.original.dll.?New@Map@v8@@SA?AV?$Local@VMap@v8@@@2@PEAVIsolate@2@@Z
    ?New@MicrotaskQueue@v8@@SA?AV?$unique_ptr@VMicrotaskQueue@v8@@U?$default_delete@VMicrotaskQueue@v8@@@__Cr@std@@@__Cr@std@@PEAVIsolate@2@W4MicrotasksPolicy@2@@Z=QQNT.original.dll.?New@MicrotaskQueue@v8@@SA?AV?$unique_ptr@VMicrotaskQueue@v8@@U?$default_delete@VMicrotaskQueue@v8@@@__Cr@std@@@__Cr@std@@PEAVIsolate@2@W4MicrotasksPolicy@2@@Z
    ?New@ModuleWrap@loader@node@@CAXAEBV?$FunctionCallbackInfo@VValue@v8@@@v8@@@Z=QQNT.original.dll.?New@ModuleWrap@loader@node@@CAXAEBV?$FunctionCallbackInfo@VValue@v8@@@v8@@@Z
    ?New@Number@v8@@SA?AV?$Local@VNumber@v8@@@2@PEAVIsolate@2@N@Z=QQNT.original.dll.?New@Number@v8@@SA?AV?$Local@VNumber@v8@@@2@PEAVIsolate@2@N@Z
    ?New@NumberObject@v8@@SA?AV?$Local@VValue@v8@@@2@PEAVIsolate@2@N@Z=QQNT.original.dll.?New@NumberObject@v8@@SA?AV?$Local@VValue@v8@@@2@PEAVIsolate@2@N@Z
    ?New@Object@v8@@SA?AV?$Local@VObject@v8@@@2@PEAVIsolate@2@@Z=QQNT.original.dll.?New@Object@v8@@SA?AV?$Local@VObject@v8@@@2@PEAVIsolate@2@@Z
    ?New@Object@v8@@SA?AV?$Local@VObject@v8@@@2@PEAVIsolate@2@V?$Local@VValue@v8@@@2@PEAV?$Local@VName@v8@@@2@PEAV52@_K@Z=QQNT.original.dll.?New@Object@v8@@SA?AV?$Local@VObject@v8@@@2@PEAVIsolate@2@V?$Local@VValue@v8@@@2@PEAV?$Local@VName@v8@@@2@PEAV52@_K@Z
    ?New@ObjectTemplate@v8@@SA?AV?$Local@VObjectTemplate@v8@@@2@PEAVIsolate@2@V?$Local@VFunctionTemplate@v8@@@2@@Z=QQNT.original.dll.?New@ObjectTemplate@v8@@SA?AV?$Local@VObjectTemplate@v8@@@2@PEAVIsolate@2@V?$Local@VFunctionTemplate@v8@@@2@@Z
    ?New@PrimitiveArray@v8@@SA?AV?$Local@VPrimitiveArray@v8@@@2@PEAVIsolate@2@H@Z=QQNT.original.dll.?New@PrimitiveArray@v8@@SA?AV?$Local@VPrimitiveArray@v8@@@2@PEAVIsolate@2@H@Z
    ?New@Private@v8@@SA?AV?$Local@VPrivate@v8@@@2@PEAVIsolate@2@V?$Local@VString@v8@@@2@@Z=QQNT.original.dll.?New@Private@v8@@SA?AV?$Local@VPrivate@v8@@@2@PEAVIsolate@2@V?$Local@VString@v8@@@2@@Z
    ?New@Proxy@v8@@SA?AV?$MaybeLocal@VProxy@v8@@@2@V?$Local@VContext@v8@@@2@V?$Local@VObject@v8@@@2@1@Z=QQNT.original.dll.?New@Proxy@v8@@SA?AV?$MaybeLocal@VProxy@v8@@@2@V?$Local@VContext@v8@@@2@V?$Local@VObject@v8@@@2@1@Z
    ?New@RegExp@v8@@SA?AV?$MaybeLocal@VRegExp@v8@@@2@V?$Local@VContext@v8@@@2@V?$Local@VString@v8@@@2@W4Flags@12@@Z=QQNT.original.dll.?New@RegExp@v8@@SA?AV?$MaybeLocal@VRegExp@v8@@@2@V?$Local@VContext@v8@@@2@V?$Local@VString@v8@@@2@W4Flags@12@@Z
    ?New@Resolver@Promise@v8@@SA?AV?$MaybeLocal@VResolver@Promise@v8@@@3@V?$Local@VContext@v8@@@3@@Z=QQNT.original.dll.?New@Resolver@Promise@v8@@SA?AV?$MaybeLocal@VResolver@Promise@v8@@@3@V?$Local@VContext@v8@@@3@@Z
    ?New@Set@v8@@SA?AV?$Local@VSet@v8@@@2@PEAVIsolate@2@@Z=QQNT.original.dll.?New@Set@v8@@SA?AV?$Local@VSet@v8@@@2@PEAVIsolate@2@@Z
    ?New@SharedArrayBuffer@v8@@SA?AV?$Local@VSharedArrayBuffer@v8@@@2@PEAVIsolate@2@V?$shared_ptr@VBackingStore@v8@@@__Cr@std@@@Z=QQNT.original.dll.?New@SharedArrayBuffer@v8@@SA?AV?$Local@VSharedArrayBuffer@v8@@@2@PEAVIsolate@2@V?$shared_ptr@VBackingStore@v8@@@__Cr@std@@@Z
    ?New@SharedArrayBuffer@v8@@SA?AV?$Local@VSharedArrayBuffer@v8@@@2@PEAVIsolate@2@_KW4BackingStoreInitializationMode@2@@Z=QQNT.original.dll.?New@SharedArrayBuffer@v8@@SA?AV?$Local@VSharedArrayBuffer@v8@@@2@PEAVIsolate@2@_KW4BackingStoreInitializationMode@2@@Z
    ?New@Signature@v8@@SA?AV?$Local@VSignature@v8@@@2@PEAVIsolate@2@V?$Local@VFunctionTemplate@v8@@@2@@Z=QQNT.original.dll.?New@Signature@v8@@SA?AV?$Local@VSignature@v8@@@2@PEAVIsolate@2@V?$Local@VFunctionTemplate@v8@@@2@@Z
    ?New@StringObject@v8@@SA?AV?$Local@VValue@v8@@@2@PEAVIsolate@2@V?$Local@VString@v8@@@2@@Z=QQNT.original.dll.?New@StringObject@v8@@SA?AV?$Local@VValue@v8@@@2@PEAVIsolate@2@V?$Local@VString@v8@@@2@@Z
    ?New@Symbol@v8@@SA?AV?$Local@VSymbol@v8@@@2@PEAVIsolate@2@V?$Local@VString@v8@@@2@@Z=QQNT.original.dll.?New@Symbol@v8@@SA?AV?$Local@VSymbol@v8@@@2@PEAVIsolate@2@V?$Local@VString@v8@@@2@@Z
    ?New@SymbolObject@v8@@SA?AV?$Local@VValue@v8@@@2@PEAVIsolate@2@V?$Local@VSymbol@v8@@@2@@Z=QQNT.original.dll.?New@SymbolObject@v8@@SA?AV?$Local@VValue@v8@@@2@PEAVIsolate@2@V?$Local@VSymbol@v8@@@2@@Z
    ?New@Uint16Array@v8@@SA?AV?$Local@VUint16Array@v8@@@2@V?$Local@VArrayBuffer@v8@@@2@_K1@Z=QQNT.original.dll.?New@Uint16Array@v8@@SA?AV?$Local@VUint16Array@v8@@@2@V?$Local@VArrayBuffer@v8@@@2@_K1@Z
    ?New@Uint16Array@v8@@SA?AV?$Local@VUint16Array@v8@@@2@V?$Local@VSharedArrayBuffer@v8@@@2@_K1@Z=QQNT.original.dll.?New@Uint16Array@v8@@SA?AV?$Local@VUint16Array@v8@@@2@V?$Local@VSharedArrayBuffer@v8@@@2@_K1@Z
    ?New@Uint32Array@v8@@SA?AV?$Local@VUint32Array@v8@@@2@V?$Local@VArrayBuffer@v8@@@2@_K1@Z=QQNT.original.dll.?New@Uint32Array@v8@@SA?AV?$Local@VUint32Array@v8@@@2@V?$Local@VArrayBuffer@v8@@@2@_K1@Z
    ?New@Uint32Array@v8@@SA?AV?$Local@VUint32Array@v8@@@2@V?$Local@VSharedArrayBuffer@v8@@@2@_K1@Z=QQNT.original.dll.?New@Uint32Array@v8@@SA?AV?$Local@VUint32Array@v8@@@2@V?$Local@VSharedArrayBuffer@v8@@@2@_K1@Z
    ?New@Uint8Array@v8@@SA?AV?$Local@VUint8Array@v8@@@2@V?$Local@VArrayBuffer@v8@@@2@_K1@Z=QQNT.original.dll.?New@Uint8Array@v8@@SA?AV?$Local@VUint8Array@v8@@@2@V?$Local@VArrayBuffer@v8@@@2@_K1@Z
    ?New@Uint8Array@v8@@SA?AV?$Local@VUint8Array@v8@@@2@V?$Local@VSharedArrayBuffer@v8@@@2@_K1@Z=QQNT.original.dll.?New@Uint8Array@v8@@SA?AV?$Local@VUint8Array@v8@@@2@V?$Local@VSharedArrayBuffer@v8@@@2@_K1@Z
    ?New@Uint8ClampedArray@v8@@SA?AV?$Local@VUint8ClampedArray@v8@@@2@V?$Local@VArrayBuffer@v8@@@2@_K1@Z=QQNT.original.dll.?New@Uint8ClampedArray@v8@@SA?AV?$Local@VUint8ClampedArray@v8@@@2@V?$Local@VArrayBuffer@v8@@@2@_K1@Z
    ?New@Uint8ClampedArray@v8@@SA?AV?$Local@VUint8ClampedArray@v8@@@2@V?$Local@VSharedArrayBuffer@v8@@@2@_K1@Z=QQNT.original.dll.?New@Uint8ClampedArray@v8@@SA?AV?$Local@VUint8ClampedArray@v8@@@2@V?$Local@VSharedArrayBuffer@v8@@@2@_K1@Z
    ?NewBackingStore@ArrayBuffer@v8@@SA?AV?$unique_ptr@VBackingStore@v8@@U?$default_delete@VBackingStore@v8@@@__Cr@std@@@__Cr@std@@PEAVIsolate@2@_KW4BackingStoreInitializationMode@2@@Z=QQNT.original.dll.?NewBackingStore@ArrayBuffer@v8@@SA?AV?$unique_ptr@VBackingStore@v8@@U?$default_delete@VBackingStore@v8@@@__Cr@std@@@__Cr@std@@PEAVIsolate@2@_KW4BackingStoreInitializationMode@2@@Z
    ?NewBackingStore@ArrayBuffer@v8@@SA?AV?$unique_ptr@VBackingStore@v8@@U?$default_delete@VBackingStore@v8@@@__Cr@std@@@__Cr@std@@PEAX_KP6AX010@Z0@Z=QQNT.original.dll.?NewBackingStore@ArrayBuffer@v8@@SA?AV?$unique_ptr@VBackingStore@v8@@U?$default_delete@VBackingStore@v8@@@__Cr@std@@@__Cr@std@@PEAX_KP6AX010@Z0@Z
    ?NewBackingStore@SharedArrayBuffer@v8@@SA?AV?$unique_ptr@VBackingStore@v8@@U?$default_delete@VBackingStore@v8@@@__Cr@std@@@__Cr@std@@PEAVIsolate@2@_KW4BackingStoreInitializationMode@2@@Z=QQNT.original.dll.?NewBackingStore@SharedArrayBuffer@v8@@SA?AV?$unique_ptr@VBackingStore@v8@@U?$default_delete@VBackingStore@v8@@@__Cr@std@@@__Cr@std@@PEAVIsolate@2@_KW4BackingStoreInitializationMode@2@@Z
    ?NewBackingStore@SharedArrayBuffer@v8@@SA?AV?$unique_ptr@VBackingStore@v8@@U?$default_delete@VBackingStore@v8@@@__Cr@std@@@__Cr@std@@PEAX_KP6AX010@Z0@Z=QQNT.original.dll.?NewBackingStore@SharedArrayBuffer@v8@@SA?AV?$unique_ptr@VBackingStore@v8@@U?$default_delete@VBackingStore@v8@@@__Cr@std@@@__Cr@std@@PEAX_KP6AX010@Z0@Z
    ?NewContext@node@@YA?AV?$Local@VContext@v8@@@v8@@PEAVIsolate@3@V?$Local@VObjectTemplate@v8@@@3@@Z=QQNT.original.dll.?NewContext@node@@YA?AV?$Local@VContext@v8@@@v8@@PEAVIsolate@3@V?$Local@VObjectTemplate@v8@@@3@@Z
    ?NewDefaultAllocator@Allocator@ArrayBuffer@v8@@SAPEAV123@XZ=QQNT.original.dll.?NewDefaultAllocator@Allocator@ArrayBuffer@v8@@SAPEAV123@XZ
    ?NewExternalOneByte@String@v8@@SA?AV?$MaybeLocal@VString@v8@@@2@PEAVIsolate@2@PEAVExternalOneByteStringResource@12@@Z=QQNT.original.dll.?NewExternalOneByte@String@v8@@SA?AV?$MaybeLocal@VString@v8@@@2@PEAVIsolate@2@PEAVExternalOneByteStringResource@12@@Z
    ?NewExternalTwoByte@String@v8@@SA?AV?$MaybeLocal@VString@v8@@@2@PEAVIsolate@2@PEAVExternalStringResource@12@@Z=QQNT.original.dll.?NewExternalTwoByte@String@v8@@SA?AV?$MaybeLocal@VString@v8@@@2@PEAVIsolate@2@PEAVExternalStringResource@12@@Z
    ?NewFromOneByte@String@v8@@SA?AV?$MaybeLocal@VString@v8@@@2@PEAVIsolate@2@PEBEW4NewStringType@2@H@Z=QQNT.original.dll.?NewFromOneByte@String@v8@@SA?AV?$MaybeLocal@VString@v8@@@2@PEAVIsolate@2@PEBEW4NewStringType@2@H@Z
    ?NewFromTwoByte@String@v8@@SA?AV?$MaybeLocal@VString@v8@@@2@PEAVIsolate@2@PEBGW4NewStringType@2@H@Z=QQNT.original.dll.?NewFromTwoByte@String@v8@@SA?AV?$MaybeLocal@VString@v8@@@2@PEAVIsolate@2@PEBGW4NewStringType@2@H@Z
    ?NewFromUnsigned@BigInt@v8@@SA?AV?$Local@VBigInt@v8@@@2@PEAVIsolate@2@_K@Z=QQNT.original.dll.?NewFromUnsigned@BigInt@v8@@SA?AV?$Local@VBigInt@v8@@@2@PEAVIsolate@2@_K@Z
    ?NewFromUnsigned@Integer@v8@@SA?AV?$Local@VInteger@v8@@@2@PEAVIsolate@2@I@Z=QQNT.original.dll.?NewFromUnsigned@Integer@v8@@SA?AV?$Local@VInteger@v8@@@2@PEAVIsolate@2@I@Z
    ?NewFromUtf8@String@v8@@SA?AV?$MaybeLocal@VString@v8@@@2@PEAVIsolate@2@PEBDW4NewStringType@2@H@Z=QQNT.original.dll.?NewFromUtf8@String@v8@@SA?AV?$MaybeLocal@VString@v8@@@2@PEAVIsolate@2@PEBDW4NewStringType@2@H@Z
    ?NewFromUtf8Literal@String@v8@@CA?AV?$Local@VString@v8@@@2@PEAVIsolate@2@PEBDW4NewStringType@2@H@Z=QQNT.original.dll.?NewFromUtf8Literal@String@v8@@CA?AV?$Local@VString@v8@@@2@PEAVIsolate@2@PEBDW4NewStringType@2@H@Z
    ?NewFromWords@BigInt@v8@@SA?AV?$MaybeLocal@VBigInt@v8@@@2@V?$Local@VContext@v8@@@2@HHPEB_K@Z=QQNT.original.dll.?NewFromWords@BigInt@v8@@SA?AV?$MaybeLocal@VBigInt@v8@@@2@V?$Local@VContext@v8@@@2@HHPEB_K@Z
    ?NewInstance@DictionaryTemplate@v8@@QEAA?AV?$Local@VObject@v8@@@2@V?$Local@VContext@v8@@@2@V?$MemorySpan@V?$MaybeLocal@VValue@v8@@@v8@@@2@@Z=QQNT.original.dll.?NewInstance@DictionaryTemplate@v8@@QEAA?AV?$Local@VObject@v8@@@2@V?$Local@VContext@v8@@@2@V?$MemorySpan@V?$MaybeLocal@VValue@v8@@@v8@@@2@@Z
    ?NewInstance@Function@v8@@QEBA?AV?$MaybeLocal@VObject@v8@@@2@V?$Local@VContext@v8@@@2@@Z=QQNT.original.dll.?NewInstance@Function@v8@@QEBA?AV?$MaybeLocal@VObject@v8@@@2@V?$Local@VContext@v8@@@2@@Z
    ?NewInstance@Function@v8@@QEBA?AV?$MaybeLocal@VObject@v8@@@2@V?$Local@VContext@v8@@@2@HQEAV?$Local@VValue@v8@@@2@@Z=QQNT.original.dll.?NewInstance@Function@v8@@QEBA?AV?$MaybeLocal@VObject@v8@@@2@V?$Local@VContext@v8@@@2@HQEAV?$Local@VValue@v8@@@2@@Z
    ?NewInstance@ObjectTemplate@v8@@QEAA?AV?$MaybeLocal@VObject@v8@@@2@V?$Local@VContext@v8@@@2@@Z=QQNT.original.dll.?NewInstance@ObjectTemplate@v8@@QEAA?AV?$MaybeLocal@VObject@v8@@@2@V?$Local@VContext@v8@@@2@@Z
    ?NewInstanceWithSideEffectType@Function@v8@@QEBA?AV?$MaybeLocal@VObject@v8@@@2@V?$Local@VContext@v8@@@2@HQEAV?$Local@VValue@v8@@@2@W4SideEffectType@2@@Z=QQNT.original.dll.?NewInstanceWithSideEffectType@Function@v8@@QEBA?AV?$MaybeLocal@VObject@v8@@@2@V?$Local@VContext@v8@@@2@HQEAV?$Local@VValue@v8@@@2@W4SideEffectType@2@@Z
    ?NewIsolate@node@@YAPEAVIsolate@v8@@PEAVArrayBufferAllocator@1@PEAUuv_loop_s@@PEAVMultiIsolatePlatform@1@PEBVEmbedderSnapshotData@1@AEBUIsolateSettings@1@@Z=QQNT.original.dll.?NewIsolate@node@@YAPEAVIsolate@v8@@PEAVArrayBufferAllocator@1@PEAUuv_loop_s@@PEAVMultiIsolatePlatform@1@PEBVEmbedderSnapshotData@1@AEBUIsolateSettings@1@@Z
    ?NewIsolate@node@@YAPEAVIsolate@v8@@V?$shared_ptr@VArrayBufferAllocator@node@@@__Cr@std@@PEAUuv_loop_s@@PEAVMultiIsolatePlatform@1@PEBVEmbedderSnapshotData@1@AEBUIsolateSettings@1@@Z=QQNT.original.dll.?NewIsolate@node@@YAPEAVIsolate@v8@@V?$shared_ptr@VArrayBufferAllocator@node@@@__Cr@std@@PEAUuv_loop_s@@PEAVMultiIsolatePlatform@1@PEBVEmbedderSnapshotData@1@AEBUIsolateSettings@1@@Z
    ?NewRemoteContext@Context@v8@@SA?AV?$MaybeLocal@VObject@v8@@@2@PEAVIsolate@2@V?$Local@VObjectTemplate@v8@@@2@V?$MaybeLocal@VValue@v8@@@2@@Z=QQNT.original.dll.?NewRemoteContext@Context@v8@@SA?AV?$MaybeLocal@VObject@v8@@@2@PEAVIsolate@2@V?$Local@VObjectTemplate@v8@@@2@V?$MaybeLocal@VValue@v8@@@2@@Z
    ?NewRemoteInstance@FunctionTemplate@v8@@QEAA?AV?$MaybeLocal@VObject@v8@@@2@XZ=QQNT.original.dll.?NewRemoteInstance@FunctionTemplate@v8@@QEAA?AV?$MaybeLocal@VObject@v8@@@2@XZ
    ?NewResizableBackingStore@ArrayBuffer@v8@@SA?AV?$unique_ptr@VBackingStore@v8@@U?$default_delete@VBackingStore@v8@@@__Cr@std@@@__Cr@std@@_K0@Z=QQNT.original.dll.?NewResizableBackingStore@ArrayBuffer@v8@@SA?AV?$unique_ptr@VBackingStore@v8@@U?$default_delete@VBackingStore@v8@@@__Cr@std@@@__Cr@std@@_K0@Z
    ?NewWithBacktrackLimit@RegExp@v8@@SA?AV?$MaybeLocal@VRegExp@v8@@@2@V?$Local@VContext@v8@@@2@V?$Local@VString@v8@@@2@W4Flags@12@I@Z=QQNT.original.dll.?NewWithBacktrackLimit@RegExp@v8@@SA?AV?$MaybeLocal@VRegExp@v8@@@2@V?$Local@VContext@v8@@@2@V?$Local@VString@v8@@@2@W4Flags@12@I@Z
    ?NewWithCFunctionOverloads@FunctionTemplate@v8@@SA?AV?$Local@VFunctionTemplate@v8@@@2@PEAVIsolate@2@P6AXAEBV?$FunctionCallbackInfo@VValue@v8@@@2@@ZV?$Local@VValue@v8@@@2@V?$Local@VSignature@v8@@@2@HW4ConstructorBehavior@2@W4SideEffectType@2@AEBV?$MemorySpan@$$CBVCFunction@v8@@@2@@Z=QQNT.original.dll.?NewWithCFunctionOverloads@FunctionTemplate@v8@@SA?AV?$Local@VFunctionTemplate@v8@@@2@PEAVIsolate@2@P6AXAEBV?$FunctionCallbackInfo@VValue@v8@@@2@@ZV?$Local@VValue@v8@@@2@V?$Local@VSignature@v8@@@2@HW4ConstructorBehavior@2@W4SideEffectType@2@AEBV?$MemorySpan@$$CBVCFunction@v8@@@2@@Z
    ?NewWithCache@FunctionTemplate@v8@@SA?AV?$Local@VFunctionTemplate@v8@@@2@PEAVIsolate@2@P6AXAEBV?$FunctionCallbackInfo@VValue@v8@@@2@@ZV?$Local@VPrivate@v8@@@2@V?$Local@VValue@v8@@@2@V?$Local@VSignature@v8@@@2@HW4SideEffectType@2@@Z=QQNT.original.dll.?NewWithCache@FunctionTemplate@v8@@SA?AV?$Local@VFunctionTemplate@v8@@@2@PEAVIsolate@2@P6AXAEBV?$FunctionCallbackInfo@VValue@v8@@@2@@ZV?$Local@VPrivate@v8@@@2@V?$Local@VValue@v8@@@2@V?$Local@VSignature@v8@@@2@HW4SideEffectType@2@@Z
    ?NodesInUse@CrossThreadPersistentRegion@internal@cppgc@@QEBA_KXZ=QQNT.original.dll.?NodesInUse@CrossThreadPersistentRegion@internal@cppgc@@QEBA_KXZ
    ?NodesInUse@PersistentRegionBase@internal@cppgc@@QEBA_KXZ=QQNT.original.dll.?NodesInUse@PersistentRegionBase@internal@cppgc@@QEBA_KXZ
    ?NotifyIsolateDisposal@Recorder@metrics@v8@@UEAAXXZ=QQNT.original.dll.?NotifyIsolateDisposal@Recorder@metrics@v8@@UEAAXXZ
    ?NumberOfGCInfos@GCInfoTable@internal@cppgc@@QEBAGXZ=QQNT.original.dll.?NumberOfGCInfos@GCInfoTable@internal@cppgc@@QEBAGXZ
    ?NumberOfHandles@HandleScope@v8@@SAHPEAVIsolate@2@@Z=QQNT.original.dll.?NumberOfHandles@HandleScope@v8@@SAHPEAVIsolate@2@@Z
    ?NumberOfHeapSpaces@Isolate@v8@@QEAA_KXZ=QQNT.original.dll.?NumberOfHeapSpaces@Isolate@v8@@QEAA_KXZ
    ?NumberOfTrackedHeapObjectTypes@Isolate@v8@@QEAA_KXZ=QQNT.original.dll.?NumberOfTrackedHeapObjectTypes@Isolate@v8@@QEAA_KXZ
    ?NumberValue@Value@v8@@QEBA?AV?$Maybe@N@2@V?$Local@VContext@v8@@@2@@Z=QQNT.original.dll.?NumberValue@Value@v8@@QEBA?AV?$Maybe@N@2@V?$Local@VContext@v8@@@2@@Z
    ?OOM@ReasonEnum@Paused@API@Debugger@protocol@v8_inspector@@3PEBDEB=QQNT.original.dll.?OOM@ReasonEnum@Paused@API@Debugger@protocol@v8_inspector@@3PEBDEB
    ?ObjectProtoToString@Object@v8@@QEAA?AV?$MaybeLocal@VString@v8@@@2@V?$Local@VContext@v8@@@2@@Z=QQNT.original.dll.?ObjectProtoToString@Object@v8@@QEAA?AV?$MaybeLocal@VString@v8@@@2@V?$Local@VContext@v8@@@2@@Z
    ?OffsetFromAddress@CagedHeapBase@internal@cppgc@@SA_KPEBX@Z=QQNT.original.dll.?OffsetFromAddress@CagedHeapBase@internal@cppgc@@SA_KPEBX@Z
    ?OnBytesReceived@WasmStreaming@v8@@QEAAXPEBE_K@Z=QQNT.original.dll.?OnBytesReceived@WasmStreaming@v8@@QEAAXPEBE_K@Z
    ?OnFatalError@node@@YAXPEBD0@Z=QQNT.original.dll.?OnFatalError@node@@YAXPEBD0@Z
    ?Options@ScriptOrigin@v8@@QEBA?AVScriptOriginOptions@2@XZ=QQNT.original.dll.?Options@ScriptOrigin@v8@@QEBA?AVScriptOriginOptions@2@XZ
    ?Other@ReasonEnum@Paused@API@Debugger@protocol@v8_inspector@@3PEBDEB=QQNT.original.dll.?Other@ReasonEnum@Paused@API@Debugger@protocol@v8_inspector@@3PEBDEB
    ?PCIsInV8@Unwinder@v8@@SA_N_KPEBUMemoryRange@2@PEAX@Z=QQNT.original.dll.?PCIsInV8@Unwinder@v8@@SA_N_KPEBUMemoryRange@2@PEAX@Z
    ?Parse@Date@v8@@SA?AV?$MaybeLocal@VValue@v8@@@2@V?$Local@VContext@v8@@@2@V?$Local@VString@v8@@@2@@Z=QQNT.original.dll.?Parse@Date@v8@@SA?AV?$MaybeLocal@VValue@v8@@@2@V?$Local@VContext@v8@@@2@V?$Local@VString@v8@@@2@@Z
    ?Parse@JSON@v8@@SA?AV?$MaybeLocal@VValue@v8@@@2@V?$Local@VContext@v8@@@2@V?$Local@VString@v8@@@2@@Z=QQNT.original.dll.?Parse@JSON@v8@@SA?AV?$MaybeLocal@VValue@v8@@@2@V?$Local@VContext@v8@@@2@V?$Local@VString@v8@@@2@@Z
    ?ParseEncoding@node@@YA?AW4encoding@1@PEAVIsolate@v8@@V?$Local@VValue@v8@@@4@W421@@Z=QQNT.original.dll.?ParseEncoding@node@@YA?AW4encoding@1@PEAVIsolate@v8@@V?$Local@VValue@v8@@@4@W421@@Z
    ?PerformCheckpoint@MicrotasksScope@v8@@SAXPEAVIsolate@2@@Z=QQNT.original.dll.?PerformCheckpoint@MicrotasksScope@v8@@SAXPEAVIsolate@2@@Z
    ?PerformMarkingStep@StandaloneTestingHeap@testing@cppgc@@QEAA_NW4EmbedderStackState@3@@Z=QQNT.original.dll.?PerformMarkingStep@StandaloneTestingHeap@testing@cppgc@@QEAA_NW4EmbedderStackState@3@@Z
    ?PerformMicrotaskCheckpoint@Isolate@v8@@QEAAXXZ=QQNT.original.dll.?PerformMicrotaskCheckpoint@Isolate@v8@@QEAAXXZ
    ?PostJob@Platform@cppgc@@UEAA?AV?$unique_ptr@VJobHandle@v8@@U?$default_delete@VJobHandle@v8@@@__Cr@std@@@__Cr@std@@W4TaskPriority@v8@@V?$unique_ptr@VJobTask@v8@@U?$default_delete@VJobTask@v8@@@__Cr@std@@@45@@Z=QQNT.original.dll.?PostJob@Platform@cppgc@@UEAA?AV?$unique_ptr@VJobHandle@v8@@U?$default_delete@VJobHandle@v8@@@__Cr@std@@@__Cr@std@@W4TaskPriority@v8@@V?$unique_ptr@VJobTask@v8@@U?$default_delete@VJobTask@v8@@@__Cr@std@@@45@@Z
    ?PrepareInstall@CompilationDependencies@compiler@internal@v8@@AEAA_NXZ=QQNT.original.dll.?PrepareInstall@CompilationDependencies@compiler@internal@v8@@AEAA_NXZ
    ?PrepareInstallPredictable@CompilationDependencies@compiler@internal@v8@@AEAA_NXZ=QQNT.original.dll.?PrepareInstallPredictable@CompilationDependencies@compiler@internal@v8@@AEAA_NXZ
    ?PrepareStackTraceCallback@node@@YA?AV?$MaybeLocal@VValue@v8@@@v8@@V?$Local@VContext@v8@@@3@V?$Local@VValue@v8@@@3@V?$Local@VArray@v8@@@3@@Z=QQNT.original.dll.?PrepareStackTraceCallback@node@@YA?AV?$MaybeLocal@VValue@v8@@@v8@@V?$Local@VContext@v8@@@3@V?$Local@VValue@v8@@@3@V?$Local@VArray@v8@@@3@@Z
    ?PreviewEntries@Object@v8@@QEAA?AV?$MaybeLocal@VArray@v8@@@2@PEA_N@Z=QQNT.original.dll.?PreviewEntries@Object@v8@@QEAA?AV?$MaybeLocal@VArray@v8@@@2@PEA_N@Z
    ?PreviousGCWasConservative@HeapState@subtle@cppgc@@SA_NAEBVHeapHandle@3@@Z=QQNT.original.dll.?PreviousGCWasConservative@HeapState@subtle@cppgc@@SA_NAEBVHeapHandle@3@@Z
    ?PrintCurrentStackTrace@Message@v8@@SAXPEAVIsolate@2@AEAV?$basic_ostream@DU?$char_traits@D@__Cr@std@@@__Cr@std@@@Z=QQNT.original.dll.?PrintCurrentStackTrace@Message@v8@@SAXPEAVIsolate@2@AEAV?$basic_ostream@DU?$char_traits@D@__Cr@std@@@__Cr@std@@@Z
    ?Prioritize@OptimizingCompileDispatcherQueue@internal@v8@@QEAAXV?$Tagged@VSharedFunctionInfo@internal@v8@@@23@@Z=QQNT.original.dll.?Prioritize@OptimizingCompileDispatcherQueue@internal@v8@@QEAAXV?$Tagged@VSharedFunctionInfo@internal@v8@@@23@@Z
    ?ProcessGlobalArgs@node@@YAHPEAV?$vector@V?$basic_string@DU?$char_traits@D@__Cr@std@@V?$allocator@D@23@@__Cr@std@@V?$allocator@V?$basic_string@DU?$char_traits@D@__Cr@std@@V?$allocator@D@23@@__Cr@std@@@23@@__Cr@std@@00W4OptionEnvvarSettings@1@@Z=QQNT.original.dll.?ProcessGlobalArgs@node@@YAHPEAV?$vector@V?$basic_string@DU?$char_traits@D@__Cr@std@@V?$allocator@D@23@@__Cr@std@@V?$allocator@V?$basic_string@DU?$char_traits@D@__Cr@std@@V?$allocator@D@23@@__Cr@std@@@23@@__Cr@std@@00W4OptionEnvvarSettings@1@@Z
    ?PromiseRejectCallback@node@@YAXVPromiseRejectMessage@v8@@@Z=QQNT.original.dll.?PromiseRejectCallback@node@@YAXVPromiseRejectMessage@v8@@@Z
    ?PromiseRejection@ReasonEnum@Paused@API@Debugger@protocol@v8_inspector@@3PEBDEB=QQNT.original.dll.?PromiseRejection@ReasonEnum@Paused@API@Debugger@protocol@v8_inspector@@3PEBDEB
    ?PrototypeTemplate@FunctionTemplate@v8@@QEAA?AV?$Local@VObjectTemplate@v8@@@2@XZ=QQNT.original.dll.?PrototypeTemplate@FunctionTemplate@v8@@QEAA?AV?$Local@VObjectTemplate@v8@@@2@XZ
    ?QueryObjects@HeapProfiler@v8@@QEAAXV?$Local@VContext@v8@@@2@PEAVQueryObjectPredicate@2@PEAV?$vector@V?$Global@VObject@v8@@@v8@@V?$allocator@V?$Global@VObject@v8@@@v8@@@__Cr@std@@@__Cr@std@@@Z=QQNT.original.dll.?QueryObjects@HeapProfiler@v8@@QEAAXV?$Local@VContext@v8@@@2@PEAVQueryObjectPredicate@2@PEAV?$vector@V?$Global@VObject@v8@@@v8@@V?$allocator@V?$Global@VObject@v8@@@v8@@@__Cr@std@@@__Cr@std@@@Z
    ?QueueIndex@OptimizingCompileDispatcherQueue@internal@v8@@AEAAHH@Z=QQNT.original.dll.?QueueIndex@OptimizingCompileDispatcherQueue@internal@v8@@AEAAHH@Z
    ?QuickIsFalse@Value@v8@@AEBA_NXZ=QQNT.original.dll.?QuickIsFalse@Value@v8@@AEBA_NXZ
    ?QuickIsNull@Value@v8@@AEBA_NXZ=QQNT.original.dll.?QuickIsNull@Value@v8@@AEBA_NXZ
    ?QuickIsNullOrUndefined@Value@v8@@AEBA_NXZ=QQNT.original.dll.?QuickIsNullOrUndefined@Value@v8@@AEBA_NXZ
    ?QuickIsString@Value@v8@@AEBA_NXZ=QQNT.original.dll.?QuickIsString@Value@v8@@AEBA_NXZ
    ?QuickIsTrue@Value@v8@@AEBA_NXZ=QQNT.original.dll.?QuickIsTrue@Value@v8@@AEBA_NXZ
    ?QuickIsUndefined@Value@v8@@AEBA_NXZ=QQNT.original.dll.?QuickIsUndefined@Value@v8@@AEBA_NXZ
    ?RangeError@Exception@v8@@SA?AV?$Local@VValue@v8@@@2@V?$Local@VString@v8@@@2@V32@@Z=QQNT.original.dll.?RangeError@Exception@v8@@SA?AV?$Local@VValue@v8@@@2@V?$Local@VString@v8@@@2@V32@@Z
    ?ReThrow@TryCatch@v8@@QEAA?AV?$Local@VValue@v8@@@2@XZ=QQNT.original.dll.?ReThrow@TryCatch@v8@@QEAA?AV?$Local@VValue@v8@@@2@XZ
    ?ReadDouble@ValueDeserializer@v8@@QEAA_NPEAN@Z=QQNT.original.dll.?ReadDouble@ValueDeserializer@v8@@QEAA_NPEAN@Z
    ?ReadHeader@ValueDeserializer@v8@@QEAA?AV?$Maybe@_N@2@V?$Local@VContext@v8@@@2@@Z=QQNT.original.dll.?ReadHeader@ValueDeserializer@v8@@QEAA?AV?$Maybe@_N@2@V?$Local@VContext@v8@@@2@@Z
    ?ReadHostObject@Delegate@ValueDeserializer@v8@@UEAA?AV?$MaybeLocal@VObject@v8@@@3@PEAVIsolate@3@@Z=QQNT.original.dll.?ReadHostObject@Delegate@ValueDeserializer@v8@@UEAA?AV?$MaybeLocal@VObject@v8@@@3@PEAVIsolate@3@@Z
    ?ReadOnlyPrototype@FunctionTemplate@v8@@QEAAXXZ=QQNT.original.dll.?ReadOnlyPrototype@FunctionTemplate@v8@@QEAAXXZ
    ?ReadRawBytes@ValueDeserializer@v8@@QEAA_N_KPEAPEBX@Z=QQNT.original.dll.?ReadRawBytes@ValueDeserializer@v8@@QEAA_N_KPEAPEBX@Z
    ?ReadUint32@ValueDeserializer@v8@@QEAA_NPEAI@Z=QQNT.original.dll.?ReadUint32@ValueDeserializer@v8@@QEAA_NPEAI@Z
    ?ReadUint64@ValueDeserializer@v8@@QEAA_NPEA_K@Z=QQNT.original.dll.?ReadUint64@ValueDeserializer@v8@@QEAA_NPEA_K@Z
    ?ReadValue@ValueDeserializer@v8@@QEAA?AV?$MaybeLocal@VValue@v8@@@2@V?$Local@VContext@v8@@@2@@Z=QQNT.original.dll.?ReadValue@ValueDeserializer@v8@@QEAA?AV?$MaybeLocal@VValue@v8@@@2@V?$Local@VContext@v8@@@2@@Z
    ?Reallocate@Allocator@ArrayBuffer@v8@@UEAAPEAXPEAX_K1@Z=QQNT.original.dll.?Reallocate@Allocator@ArrayBuffer@v8@@UEAAPEAXPEAX_K1@Z
    ?Reallocate@BackingStore@v8@@SA?AV?$unique_ptr@VBackingStore@v8@@U?$default_delete@VBackingStore@v8@@@__Cr@std@@@__Cr@std@@PEAVIsolate@2@V345@_K@Z=QQNT.original.dll.?Reallocate@BackingStore@v8@@SA?AV?$unique_ptr@VBackingStore@v8@@U?$default_delete@VBackingStore@v8@@@__Cr@std@@@__Cr@std@@PEAVIsolate@2@V345@_K@Z
    ?ReallocateBufferMemory@Delegate@ValueSerializer@v8@@UEAAPEAXPEAX_KPEA_K@Z=QQNT.original.dll.?ReallocateBufferMemory@Delegate@ValueSerializer@v8@@UEAAPEAXPEAX_KPEA_K@Z
    ?RecordDependency@CompilationDependencies@compiler@internal@v8@@QEAAXPEBVCompilationDependency@234@@Z=QQNT.original.dll.?RecordDependency@CompilationDependencies@compiler@internal@v8@@QEAAXPEBVCompilationDependency@234@@Z
    ?ReferenceError@Exception@v8@@SA?AV?$Local@VValue@v8@@@2@V?$Local@VString@v8@@@2@V32@@Z=QQNT.original.dll.?ReferenceError@Exception@v8@@SA?AV?$Local@VValue@v8@@@2@V?$Local@VString@v8@@@2@V32@@Z
    ?RefillFreeList@PersistentRegionBase@internal@cppgc@@AEAAXXZ=QQNT.original.dll.?RefillFreeList@PersistentRegionBase@internal@cppgc@@AEAAXXZ
    ?RefillFreeListAndAllocateNode@PersistentRegionBase@internal@cppgc@@IEAAPEAVPersistentNode@23@PEAXP6AXAEAVRootVisitor@23@PEBX@Z@Z=QQNT.original.dll.?RefillFreeListAndAllocateNode@PersistentRegionBase@internal@cppgc@@IEAAPEAVPersistentNode@23@PEAXP6AXAEAVRootVisitor@23@PEBX@Z@Z
    ?RegisterAllocation@JitPageReference@ThreadIsolation@internal@v8@@QEAAAEAVJitAllocation@234@_K0W4JitAllocationType@234@@Z=QQNT.original.dll.?RegisterAllocation@JitPageReference@ThreadIsolation@internal@v8@@QEAAAEAVJitAllocation@234@_K0W4JitAllocationType@234@@Z
    ?RegisterExtension@v8@@YAXV?$unique_ptr@VExtension@v8@@U?$default_delete@VExtension@v8@@@__Cr@std@@@__Cr@std@@@Z=QQNT.original.dll.?RegisterExtension@v8@@YAXV?$unique_ptr@VExtension@v8@@U?$default_delete@VExtension@v8@@@__Cr@std@@@__Cr@std@@@Z
    ?RegisterExternalReferences@ModuleWrap@loader@node@@SAXPEAVExternalReferenceRegistry@3@@Z=QQNT.original.dll.?RegisterExternalReferences@ModuleWrap@loader@node@@SAXPEAVExternalReferenceRegistry@3@@Z
    ?RegisterInstructionStreamAllocation@ThreadIsolation@internal@v8@@SA?AVWritableJitAllocation@23@_K0_N@Z=QQNT.original.dll.?RegisterInstructionStreamAllocation@ThreadIsolation@internal@v8@@SA?AVWritableJitAllocation@23@_K0_N@Z
    ?RegisterJitAllocation@ThreadIsolation@internal@v8@@SA?AVWritableJitAllocation@23@_K0W4JitAllocationType@123@_N@Z=QQNT.original.dll.?RegisterJitAllocation@ThreadIsolation@internal@v8@@SA?AVWritableJitAllocation@23@_K0W4JitAllocationType@123@_N@Z
    ?RegisterJitAllocationForTesting@ThreadIsolation@internal@v8@@SAX_K0@Z=QQNT.original.dll.?RegisterJitAllocationForTesting@ThreadIsolation@internal@v8@@SAX_K0@Z
    ?RegisterJitAllocations@ThreadIsolation@internal@v8@@SAX_KAEBV?$vector@_KV?$allocator@_K@__Cr@std@@@__Cr@std@@W4JitAllocationType@123@@Z=QQNT.original.dll.?RegisterJitAllocations@ThreadIsolation@internal@v8@@SAX_KAEBV?$vector@_KV?$allocator@_K@__Cr@std@@@__Cr@std@@W4JitAllocationType@123@@Z
    ?RegisterJitPage@ThreadIsolation@internal@v8@@SAX_K0@Z=QQNT.original.dll.?RegisterJitPage@ThreadIsolation@internal@v8@@SAX_K0@Z
    ?RegisterNewGCInfo@GCInfoTable@internal@cppgc@@QEAAGAEAU?$atomic@G@__Cr@std@@AEBUGCInfo@23@@Z=QQNT.original.dll.?RegisterNewGCInfo@GCInfoTable@internal@cppgc@@QEAAGAEAU?$atomic@G@__Cr@std@@AEBUGCInfo@23@@Z
    ?RegisterWeakCallback@Visitor@cppgc@@UEAAXP6AXAEBVLivenessBroker@2@PEBX@Z1@Z=QQNT.original.dll.?RegisterWeakCallback@Visitor@cppgc@@UEAAXP6AXAEBVLivenessBroker@2@PEBX@Z1@Z
    ?Reject@Resolver@Promise@v8@@QEAA?AV?$Maybe@_N@3@V?$Local@VContext@v8@@@3@V?$Local@VValue@v8@@@3@@Z=QQNT.original.dll.?Reject@Resolver@Promise@v8@@QEAA?AV?$Maybe@_N@3@V?$Local@VContext@v8@@@3@V?$Local@VValue@v8@@@3@@Z
    ?Release@ValueSerializer@v8@@QEAA?AU?$pair@PEAE_K@__Cr@std@@XZ=QQNT.original.dll.?Release@ValueSerializer@v8@@QEAA?AU?$pair@PEAE_K@__Cr@std@@XZ
    ?RemoveBeforeCallEnteredCallback@Isolate@v8@@QEAAXP6AXPEAV12@@Z@Z=QQNT.original.dll.?RemoveBeforeCallEnteredCallback@Isolate@v8@@QEAAXP6AXPEAV12@@Z@Z
    ?RemoveBuildEmbedderGraphCallback@HeapProfiler@v8@@QEAAXP6AXPEAVIsolate@2@PEAVEmbedderGraph@2@PEAX@Z2@Z=QQNT.original.dll.?RemoveBuildEmbedderGraphCallback@HeapProfiler@v8@@QEAAXP6AXPEAVIsolate@2@PEAVEmbedderGraph@2@PEAX@Z2@Z
    ?RemoveCallCompletedCallback@Isolate@v8@@QEAAXP6AXPEAV12@@Z@Z=QQNT.original.dll.?RemoveCallCompletedCallback@Isolate@v8@@QEAAXP6AXPEAV12@@Z@Z
    ?RemoveEnvironmentCleanupHook@node@@YAXPEAVIsolate@v8@@P6AXPEAX@Z1@Z=QQNT.original.dll.?RemoveEnvironmentCleanupHook@node@@YAXPEAVIsolate@v8@@P6AXPEAX@Z1@Z
    ?RemoveEnvironmentCleanupHookInternal@node@@YAXPEAUACHHandle@1@@Z=QQNT.original.dll.?RemoveEnvironmentCleanupHookInternal@node@@YAXPEAUACHHandle@1@@Z
    ?RemoveGCEpilogueCallback@Isolate@v8@@QEAAXP6AXPEAV12@W4GCType@2@W4GCCallbackFlags@2@@Z@Z=QQNT.original.dll.?RemoveGCEpilogueCallback@Isolate@v8@@QEAAXP6AXPEAV12@W4GCType@2@W4GCCallbackFlags@2@@Z@Z
    ?RemoveGCEpilogueCallback@Isolate@v8@@QEAAXP6AXPEAV12@W4GCType@2@W4GCCallbackFlags@2@PEAX@Z3@Z=QQNT.original.dll.?RemoveGCEpilogueCallback@Isolate@v8@@QEAAXP6AXPEAV12@W4GCType@2@W4GCCallbackFlags@2@PEAX@Z3@Z
    ?RemoveGCPrologueCallback@Isolate@v8@@QEAAXP6AXPEAV12@W4GCType@2@W4GCCallbackFlags@2@@Z@Z=QQNT.original.dll.?RemoveGCPrologueCallback@Isolate@v8@@QEAAXP6AXPEAV12@W4GCType@2@W4GCCallbackFlags@2@@Z@Z
    ?RemoveGCPrologueCallback@Isolate@v8@@QEAAXP6AXPEAV12@W4GCType@2@W4GCCallbackFlags@2@PEAX@Z3@Z=QQNT.original.dll.?RemoveGCPrologueCallback@Isolate@v8@@QEAAXP6AXPEAV12@W4GCType@2@W4GCCallbackFlags@2@PEAX@Z3@Z
    ?RemoveMessageListeners@Isolate@v8@@QEAAXP6AXV?$Local@VMessage@v8@@@2@V?$Local@VValue@v8@@@2@@Z@Z=QQNT.original.dll.?RemoveMessageListeners@Isolate@v8@@QEAAXP6AXV?$Local@VMessage@v8@@@2@V?$Local@VValue@v8@@@2@@Z@Z
    ?RemoveMicrotasksCompletedCallback@Isolate@v8@@QEAAXP6AXPEAV12@PEAX@Z1@Z=QQNT.original.dll.?RemoveMicrotasksCompletedCallback@Isolate@v8@@QEAAXP6AXPEAV12@PEAX@Z1@Z
    ?RemoveNearHeapLimitCallback@Isolate@v8@@QEAAXP6A_KPEAX_K1@Z1@Z=QQNT.original.dll.?RemoveNearHeapLimitCallback@Isolate@v8@@QEAAXP6A_KPEAX_K1@Z1@Z
    ?RemovePrototype@FunctionTemplate@v8@@QEAAXXZ=QQNT.original.dll.?RemovePrototype@FunctionTemplate@v8@@QEAAXXZ
    ?RequestGarbageCollectionForTesting@Isolate@v8@@QEAAXW4GarbageCollectionType@12@@Z=QQNT.original.dll.?RequestGarbageCollectionForTesting@Isolate@v8@@QEAAXW4GarbageCollectionType@12@@Z
    ?RequestGarbageCollectionForTesting@Isolate@v8@@QEAAXW4GarbageCollectionType@12@W4EmbedderStackState@cppgc@@@Z=QQNT.original.dll.?RequestGarbageCollectionForTesting@Isolate@v8@@QEAAXW4GarbageCollectionType@12@W4EmbedderStackState@cppgc@@@Z
    ?RequestInterrupt@Isolate@v8@@QEAAXP6AXPEAV12@PEAX@Z1@Z=QQNT.original.dll.?RequestInterrupt@Isolate@v8@@QEAAXP6AXPEAV12@PEAX@Z1@Z
    ?RequestInterrupt@node@@YAXPEAVEnvironment@1@P6AXPEAX@Z1@Z=QQNT.original.dll.?RequestInterrupt@node@@YAXPEAVEnvironment@1@P6AXPEAX@Z1@Z
    ?Reset@LongTaskStats@metrics@v8@@SAXPEAVIsolate@3@@Z=QQNT.original.dll.?Reset@LongTaskStats@metrics@v8@@SAXPEAVIsolate@3@@Z
    ?Reset@TryCatch@v8@@QEAAXXZ=QQNT.original.dll.?Reset@TryCatch@v8@@QEAAXXZ
    ?ResetForTesting@AgeTable@internal@cppgc@@QEAAXXZ=QQNT.original.dll.?ResetForTesting@AgeTable@internal@cppgc@@QEAAXXZ
    ?ResetInternal@TryCatch@v8@@AEAAXXZ=QQNT.original.dll.?ResetInternal@TryCatch@v8@@AEAAXXZ
    ?Resize@ExplicitManagementImpl@internal@cppgc@@CA_NPEAX_K@Z=QQNT.original.dll.?Resize@ExplicitManagementImpl@internal@cppgc@@CA_NPEAX_K@Z
    ?Resize@GCInfoTable@internal@cppgc@@AEAAXXZ=QQNT.original.dll.?Resize@GCInfoTable@internal@cppgc@@AEAAXXZ
    ?Resolve@Resolver@Promise@v8@@QEAA?AV?$Maybe@_N@3@V?$Local@VContext@v8@@@3@V?$Local@VValue@v8@@@3@@Z=QQNT.original.dll.?Resolve@Resolver@Promise@v8@@QEAA?AV?$Maybe@_N@3@V?$Local@VContext@v8@@@3@V?$Local@VValue@v8@@@3@@Z
    ?ResolveModuleCallback@ModuleWrap@loader@node@@CA?AV?$MaybeLocal@VModule@v8@@@v8@@V?$Local@VContext@v8@@@5@V?$Local@VString@v8@@@5@V?$Local@VFixedArray@v8@@@5@V?$Local@VModule@v8@@@5@@Z=QQNT.original.dll.?ResolveModuleCallback@ModuleWrap@loader@node@@CA?AV?$MaybeLocal@VModule@v8@@@v8@@V?$Local@VContext@v8@@@5@V?$Local@VString@v8@@@5@V?$Local@VFixedArray@v8@@@5@V?$Local@VModule@v8@@@5@@Z
    ?ResourceName@ScriptOrigin@v8@@QEBA?AV?$Local@VValue@v8@@@2@XZ=QQNT.original.dll.?ResourceName@ScriptOrigin@v8@@QEBA?AV?$Local@VValue@v8@@@2@XZ
    ?RestoreOriginalHeapLimit@Isolate@v8@@QEAAXXZ=QQNT.original.dll.?RestoreOriginalHeapLimit@Isolate@v8@@QEAAXXZ
    ?Result@Promise@v8@@QEAA?AV?$Local@VValue@v8@@@2@XZ=QQNT.original.dll.?Result@Promise@v8@@QEAA?AV?$Local@VValue@v8@@@2@XZ
    ?ReturnInfo@CFunction@v8@@QEBAAEBVCTypeInfo@2@XZ=QQNT.original.dll.?ReturnInfo@CFunction@v8@@QEBAAEBVCTypeInfo@2@XZ
    ?ReturnInfo@CFunctionInfo@v8@@QEBAAEBVCTypeInfo@2@XZ=QQNT.original.dll.?ReturnInfo@CFunctionInfo@v8@@QEBAAEBVCTypeInfo@2@XZ
    ?Revoke@Proxy@v8@@QEAAXXZ=QQNT.original.dll.?Revoke@Proxy@v8@@QEAAXXZ
    ?Run@ConsumeCodeCacheTask@ScriptCompiler@v8@@QEAAXXZ=QQNT.original.dll.?Run@ConsumeCodeCacheTask@ScriptCompiler@v8@@QEAAXXZ
    ?Run@Script@v8@@QEAA?AV?$MaybeLocal@VValue@v8@@@2@V?$Local@VContext@v8@@@2@@Z=QQNT.original.dll.?Run@Script@v8@@QEAA?AV?$MaybeLocal@VValue@v8@@@2@V?$Local@VContext@v8@@@2@@Z
    ?Run@Script@v8@@QEAA?AV?$MaybeLocal@VValue@v8@@@2@V?$Local@VContext@v8@@@2@V?$Local@VData@v8@@@2@@Z=QQNT.original.dll.?Run@Script@v8@@QEAA?AV?$MaybeLocal@VValue@v8@@@2@V?$Local@VContext@v8@@@2@V?$Local@VData@v8@@@2@@Z
    ?Run@ScriptStreamingTask@ScriptCompiler@v8@@QEAAXXZ=QQNT.original.dll.?Run@ScriptStreamingTask@ScriptCompiler@v8@@QEAAXXZ
    ?RunAtExit@node@@YAXPEAVEnvironment@1@@Z=QQNT.original.dll.?RunAtExit@node@@YAXPEAVEnvironment@1@@Z
    ?SameValue@Value@v8@@QEBA_NV?$Local@VValue@v8@@@2@@Z=QQNT.original.dll.?SameValue@Value@v8@@QEBA_NV?$Local@VValue@v8@@@2@@Z
    ?ScriptId@Function@v8@@QEBAHXZ=QQNT.original.dll.?ScriptId@Function@v8@@QEBAHXZ
    ?ScriptId@Module@v8@@QEBAHXZ=QQNT.original.dll.?ScriptId@Module@v8@@QEBAHXZ
    ?ScriptId@ScriptOrigin@v8@@QEBAHXZ=QQNT.original.dll.?ScriptId@ScriptOrigin@v8@@QEBAHXZ
    ?SelfSize@ModuleWrap@loader@node@@UEBA_KXZ=QQNT.original.dll.?SelfSize@ModuleWrap@loader@node@@UEBA_KXZ
    ?Serialize@CompiledWasmModule@v8@@QEAA?AUOwnedBuffer@2@XZ=QQNT.original.dll.?Serialize@CompiledWasmModule@v8@@QEAA?AUOwnedBuffer@2@XZ
    ?Serialize@CpuProfile@v8@@QEBAXPEAVOutputStream@2@W4SerializationFormat@12@@Z=QQNT.original.dll.?Serialize@CpuProfile@v8@@QEBAXPEAVOutputStream@2@W4SerializationFormat@12@@Z
    ?Serialize@HeapSnapshot@v8@@QEBAXPEAVOutputStream@2@W4SerializationFormat@12@@Z=QQNT.original.dll.?Serialize@HeapSnapshot@v8@@QEBAXPEAVOutputStream@2@W4SerializationFormat@12@@Z
    ?Set@Map@v8@@QEAA?AV?$MaybeLocal@VMap@v8@@@2@V?$Local@VContext@v8@@@2@V?$Local@VValue@v8@@@2@1@Z=QQNT.original.dll.?Set@Map@v8@@QEAA?AV?$MaybeLocal@VMap@v8@@@2@V?$Local@VContext@v8@@@2@V?$Local@VValue@v8@@@2@1@Z
    ?Set@Object@v8@@QEAA?AV?$Maybe@_N@2@V?$Local@VContext@v8@@@2@IV?$Local@VValue@v8@@@2@@Z=QQNT.original.dll.?Set@Object@v8@@QEAA?AV?$Maybe@_N@2@V?$Local@VContext@v8@@@2@IV?$Local@VValue@v8@@@2@@Z
    ?Set@Object@v8@@QEAA?AV?$Maybe@_N@2@V?$Local@VContext@v8@@@2@V?$Local@VValue@v8@@@2@1@Z=QQNT.original.dll.?Set@Object@v8@@QEAA?AV?$Maybe@_N@2@V?$Local@VContext@v8@@@2@V?$Local@VValue@v8@@@2@1@Z
    ?Set@Object@v8@@QEAA?AV?$Maybe@_N@2@V?$Local@VContext@v8@@@2@V?$Local@VValue@v8@@@2@1V?$MaybeLocal@VObject@v8@@@2@@Z=QQNT.original.dll.?Set@Object@v8@@QEAA?AV?$Maybe@_N@2@V?$Local@VContext@v8@@@2@V?$Local@VValue@v8@@@2@1V?$MaybeLocal@VObject@v8@@@2@@Z
    ?Set@PrimitiveArray@v8@@QEAAXPEAVIsolate@2@HV?$Local@VPrimitive@v8@@@2@@Z=QQNT.original.dll.?Set@PrimitiveArray@v8@@QEAAXPEAVIsolate@2@HV?$Local@VPrimitive@v8@@@2@@Z
    ?Set@Template@v8@@QEAAXPEAVIsolate@2@PEBDV?$Local@VData@v8@@@2@W4PropertyAttribute@2@@Z=QQNT.original.dll.?Set@Template@v8@@QEAAXPEAVIsolate@2@PEBDV?$Local@VData@v8@@@2@W4PropertyAttribute@2@@Z
    ?Set@Template@v8@@QEAAXV?$Local@VName@v8@@@2@V?$Local@VData@v8@@@2@W4PropertyAttribute@2@@Z=QQNT.original.dll.?Set@Template@v8@@QEAAXV?$Local@VName@v8@@@2@V?$Local@VData@v8@@@2@W4PropertyAttribute@2@@Z
    ?SetAbortOnUncaughtExceptionCallback@Isolate@v8@@QEAAXP6A_NPEAV12@@Z@Z=QQNT.original.dll.?SetAbortOnUncaughtExceptionCallback@Isolate@v8@@QEAAXP6A_NPEAV12@@Z@Z
    ?SetAbortScriptExecution@Context@v8@@QEAAXP6AXPEAVIsolate@2@V?$Local@VContext@v8@@@2@@Z@Z=QQNT.original.dll.?SetAbortScriptExecution@Context@v8@@QEAAXP6AXPEAVIsolate@2@V?$Local@VContext@v8@@@2@@Z@Z
    ?SetAcceptAnyReceiver@FunctionTemplate@v8@@QEAAX_N@Z=QQNT.original.dll.?SetAcceptAnyReceiver@FunctionTemplate@v8@@QEAAX_N@Z
    ?SetAccessCheckCallback@ObjectTemplate@v8@@QEAAXP6A_NV?$Local@VContext@v8@@@2@V?$Local@VObject@v8@@@2@V?$Local@VValue@v8@@@2@@Z2@Z=QQNT.original.dll.?SetAccessCheckCallback@ObjectTemplate@v8@@QEAAXP6A_NV?$Local@VContext@v8@@@2@V?$Local@VObject@v8@@@2@V?$Local@VValue@v8@@@2@@Z2@Z
    ?SetAccessCheckCallbackAndHandler@ObjectTemplate@v8@@QEAAXP6A_NV?$Local@VContext@v8@@@2@V?$Local@VObject@v8@@@2@V?$Local@VValue@v8@@@2@@ZAEBUNamedPropertyHandlerConfiguration@2@AEBUIndexedPropertyHandlerConfiguration@2@2@Z=QQNT.original.dll.?SetAccessCheckCallbackAndHandler@ObjectTemplate@v8@@QEAAXP6A_NV?$Local@VContext@v8@@@2@V?$Local@VObject@v8@@@2@V?$Local@VValue@v8@@@2@@ZAEBUNamedPropertyHandlerConfiguration@2@AEBUIndexedPropertyHandlerConfiguration@2@2@Z
    ?SetAccessorProperty@Object@v8@@QEAAXV?$Local@VName@v8@@@2@V?$Local@VFunction@v8@@@2@1W4PropertyAttribute@2@@Z=QQNT.original.dll.?SetAccessorProperty@Object@v8@@QEAAXV?$Local@VName@v8@@@2@V?$Local@VFunction@v8@@@2@1W4PropertyAttribute@2@@Z
    ?SetAccessorProperty@Template@v8@@QEAAXV?$Local@VName@v8@@@2@V?$Local@VFunctionTemplate@v8@@@2@1W4PropertyAttribute@2@@Z=QQNT.original.dll.?SetAccessorProperty@Template@v8@@QEAAXV?$Local@VName@v8@@@2@V?$Local@VFunctionTemplate@v8@@@2@1W4PropertyAttribute@2@@Z
    ?SetAddCrashKeyCallback@Isolate@v8@@QEAAXP6AXW4CrashKeyId@2@AEBV?$basic_string@DU?$char_traits@D@__Cr@std@@V?$allocator@D@23@@__Cr@std@@@Z@Z=QQNT.original.dll.?SetAddCrashKeyCallback@Isolate@v8@@QEAAXP6AXW4CrashKeyId@2@AEBV?$basic_string@DU?$char_traits@D@__Cr@std@@V?$allocator@D@23@@__Cr@std@@@Z@Z
    ?SetAddHistogramSampleFunction@Isolate@v8@@QEAAXP6AXPEAXH@Z@Z=QQNT.original.dll.?SetAddHistogramSampleFunction@Isolate@v8@@QEAAXP6AXPEAXH@Z@Z
    ?SetAge@AgeTable@internal@cppgc@@QEAAX_KW4Age@123@@Z=QQNT.original.dll.?SetAge@AgeTable@internal@cppgc@@QEAAX_KW4Age@123@@Z
    ?SetAgeForRange@AgeTable@internal@cppgc@@QEAAX_K0W4Age@123@W4AdjacentCardsPolicy@123@@Z=QQNT.original.dll.?SetAgeForRange@AgeTable@internal@cppgc@@QEAAX_K0W4Age@123@W4AdjacentCardsPolicy@123@@Z
    ?SetAlignedPointerInEmbedderData@Context@v8@@QEAAXHPEAX@Z=QQNT.original.dll.?SetAlignedPointerInEmbedderData@Context@v8@@QEAAXHPEAX@Z
    ?SetAlignedPointerInInternalField@Object@v8@@QEAAXHPEAX@Z=QQNT.original.dll.?SetAlignedPointerInInternalField@Object@v8@@QEAAXHPEAX@Z
    ?SetAlignedPointerInInternalFields@Object@v8@@QEAAXHQEAHQEAPEAX@Z=QQNT.original.dll.?SetAlignedPointerInInternalFields@Object@v8@@QEAAXHQEAHQEAPEAX@Z
    ?SetAllowAtomicsWait@Isolate@v8@@QEAAX_N@Z=QQNT.original.dll.?SetAllowAtomicsWait@Isolate@v8@@QEAAX_N@Z
    ?SetAllowWasmCodeGenerationCallback@Isolate@v8@@QEAAXP6A_NV?$Local@VContext@v8@@@2@V?$Local@VString@v8@@@2@@Z@Z=QQNT.original.dll.?SetAllowWasmCodeGenerationCallback@Isolate@v8@@QEAAXP6A_NV?$Local@VContext@v8@@@2@V?$Local@VString@v8@@@2@@Z@Z
    ?SetAtomicsWaitCallback@Isolate@v8@@QEAAXP6AXW4AtomicsWaitEvent@12@V?$Local@VSharedArrayBuffer@v8@@@2@_K_JNPEAVAtomicsWaitWakeHandle@12@PEAX@Z5@Z=QQNT.original.dll.?SetAtomicsWaitCallback@Isolate@v8@@QEAAXP6AXW4AtomicsWaitEvent@12@V?$Local@VSharedArrayBuffer@v8@@@2@_K_JNPEAVAtomicsWaitWakeHandle@12@PEAX@Z5@Z
    ?SetBatterySaverMode@Isolate@v8@@QEAAX_N@Z=QQNT.original.dll.?SetBatterySaverMode@Isolate@v8@@QEAAX_N@Z
    ?SetCallAsFunctionHandler@ObjectTemplate@v8@@QEAAXP6AXAEBV?$FunctionCallbackInfo@VValue@v8@@@2@@ZV?$Local@VValue@v8@@@2@@Z=QQNT.original.dll.?SetCallAsFunctionHandler@ObjectTemplate@v8@@QEAAXP6AXAEBV?$FunctionCallbackInfo@VValue@v8@@@2@@ZV?$Local@VValue@v8@@@2@@Z
    ?SetCallHandler@FunctionTemplate@v8@@QEAAXP6AXAEBV?$FunctionCallbackInfo@VValue@v8@@@2@@ZV?$Local@VValue@v8@@@2@W4SideEffectType@2@AEBV?$MemorySpan@$$CBVCFunction@v8@@@2@@Z=QQNT.original.dll.?SetCallHandler@FunctionTemplate@v8@@QEAAXP6AXAEBV?$FunctionCallbackInfo@VValue@v8@@@2@@ZV?$Local@VValue@v8@@@2@W4SideEffectType@2@AEBV?$MemorySpan@$$CBVCFunction@v8@@@2@@Z
    ?SetCaptureMessage@TryCatch@v8@@QEAAX_N@Z=QQNT.original.dll.?SetCaptureMessage@TryCatch@v8@@QEAAX_N@Z
    ?SetCaptureStackTraceForUncaughtExceptions@Isolate@v8@@QEAAX_NHW4StackTraceOptions@StackTrace@2@@Z=QQNT.original.dll.?SetCaptureStackTraceForUncaughtExceptions@Isolate@v8@@QEAAX_NHW4StackTraceOptions@StackTrace@2@@Z
    ?SetClassName@FunctionTemplate@v8@@QEAAXV?$Local@VString@v8@@@2@@Z=QQNT.original.dll.?SetClassName@FunctionTemplate@v8@@QEAAXV?$Local@VString@v8@@@2@@Z
    ?SetCodeLike@ObjectTemplate@v8@@QEAAXXZ=QQNT.original.dll.?SetCodeLike@ObjectTemplate@v8@@QEAAXXZ
    ?SetCompiledModuleBytes@WasmStreaming@v8@@QEAA_NPEBE_K@Z=QQNT.original.dll.?SetCompiledModuleBytes@WasmStreaming@v8@@QEAA_NPEBE_K@Z
    ?SetContinuationPreservedEmbedderData@Isolate@v8@@QEAAXV?$Local@VValue@v8@@@2@@Z=QQNT.original.dll.?SetContinuationPreservedEmbedderData@Isolate@v8@@QEAAXV?$Local@VValue@v8@@@2@@Z
    ?SetCounterFunction@Isolate@v8@@QEAAXP6APEAHPEBD@Z@Z=QQNT.original.dll.?SetCounterFunction@Isolate@v8@@QEAAXP6APEAHPEBD@Z@Z
    ?SetCppgcReference@node@@YAXPEAVIsolate@v8@@V?$Local@VObject@v8@@@3@PEAX@Z=QQNT.original.dll.?SetCppgcReference@node@@YAXPEAVIsolate@v8@@V?$Local@VObject@v8@@@3@PEAX@Z
    ?SetCreateHistogramFunction@Isolate@v8@@QEAAXP6APEAXPEBDHH_K@Z@Z=QQNT.original.dll.?SetCreateHistogramFunction@Isolate@v8@@QEAAXP6APEAXPEBDHH_K@Z@Z
    ?SetData@Isolate@v8@@QEAAXIPEAX@Z=QQNT.original.dll.?SetData@Isolate@v8@@QEAAXIPEAX@Z
    ?SetDcheckErrorHandler@V8@v8@@SAXP6AXPEBDH0@Z@Z=QQNT.original.dll.?SetDcheckErrorHandler@V8@v8@@SAXP6AXPEBDH0@Z@Z
    ?SetDefaultContext@SnapshotCreator@v8@@QEAAXV?$Local@VContext@v8@@@2@USerializeInternalFieldsCallback@2@USerializeContextDataCallback@2@USerializeAPIWrapperCallback@2@@Z=QQNT.original.dll.?SetDefaultContext@SnapshotCreator@v8@@QEAAXV?$Local@VContext@v8@@@2@USerializeInternalFieldsCallback@2@USerializeContextDataCallback@2@USerializeAPIWrapperCallback@2@@Z
    ?SetDetachKey@ArrayBuffer@v8@@QEAAXV?$Local@VValue@v8@@@2@@Z=QQNT.original.dll.?SetDetachKey@ArrayBuffer@v8@@QEAAXV?$Local@VValue@v8@@@2@@Z
    ?SetEmbedderData@Context@v8@@QEAAXHV?$Local@VValue@v8@@@2@@Z=QQNT.original.dll.?SetEmbedderData@Context@v8@@QEAAXHV?$Local@VValue@v8@@@2@@Z
    ?SetEmbedderRootsHandler@Isolate@v8@@QEAAXPEAVEmbedderRootsHandler@2@@Z=QQNT.original.dll.?SetEmbedderRootsHandler@Isolate@v8@@QEAAXPEAVEmbedderRootsHandler@2@@Z
    ?SetEntropySource@V8@v8@@SAXP6A_NPEAE_K@Z@Z=QQNT.original.dll.?SetEntropySource@V8@v8@@SAXP6A_NPEAE_K@Z@Z
    ?SetErrorMessageForCodeGenerationFromStrings@Context@v8@@QEAAXV?$Local@VString@v8@@@2@@Z=QQNT.original.dll.?SetErrorMessageForCodeGenerationFromStrings@Context@v8@@QEAAXV?$Local@VString@v8@@@2@@Z
    ?SetErrorMessageForWasmCodeGeneration@Context@v8@@QEAAXV?$Local@VString@v8@@@2@@Z=QQNT.original.dll.?SetErrorMessageForWasmCodeGeneration@Context@v8@@QEAAXV?$Local@VString@v8@@@2@@Z
    ?SetEventLogger@Isolate@v8@@QEAAXP6AXPEBDH@Z@Z=QQNT.original.dll.?SetEventLogger@Isolate@v8@@QEAAXP6AXPEBDH@Z@Z
    ?SetExceptionContext@FunctionTemplate@v8@@QEAAXW4ExceptionContext@2@@Z=QQNT.original.dll.?SetExceptionContext@FunctionTemplate@v8@@QEAAXW4ExceptionContext@2@@Z
    ?SetExceptionPropagationCallback@Isolate@v8@@QEAAXP6AXVExceptionPropagationMessage@2@@Z@Z=QQNT.original.dll.?SetExceptionPropagationCallback@Isolate@v8@@QEAAXP6AXVExceptionPropagationMessage@2@@Z@Z
    ?SetFailedAccessCheckCallbackFunction@Isolate@v8@@QEAAXP6AXV?$Local@VObject@v8@@@2@W4AccessType@2@V?$Local@VValue@v8@@@2@@Z@Z=QQNT.original.dll.?SetFailedAccessCheckCallbackFunction@Isolate@v8@@QEAAXP6AXV?$Local@VObject@v8@@@2@W4AccessType@2@V?$Local@VValue@v8@@@2@@Z@Z
    ?SetFatalErrorHandler@Isolate@v8@@QEAAXP6AXPEBD0@Z@Z=QQNT.original.dll.?SetFatalErrorHandler@Isolate@v8@@QEAAXP6AXPEBD0@Z@Z
    ?SetFatalErrorHandler@V8@v8@@SAXP6AXPEBDH0@Z@Z=QQNT.original.dll.?SetFatalErrorHandler@V8@v8@@SAXP6AXPEBDH0@Z@Z
    ?SetFatalMemoryErrorCallback@V8@v8@@SAXP6AXPEBDAEBUOOMDetails@2@@Z@Z=QQNT.original.dll.?SetFatalMemoryErrorCallback@V8@v8@@SAXP6AXPEBDAEBUOOMDetails@2@@Z@Z
    ?SetFilterETWSessionByURLCallback@Isolate@v8@@QEAAXP6A_NV?$Local@VContext@v8@@@2@AEBV?$basic_string@DU?$char_traits@D@__Cr@std@@V?$allocator@D@23@@__Cr@std@@@Z@Z=QQNT.original.dll.?SetFilterETWSessionByURLCallback@Isolate@v8@@QEAAXP6A_NV?$Local@VContext@v8@@@2@AEBV?$basic_string@DU?$char_traits@D@__Cr@std@@V?$allocator@D@23@@__Cr@std@@@Z@Z
    ?SetFlagsFromCommandLine@V8@v8@@SAXPEAHPEAPEAD_N@Z=QQNT.original.dll.?SetFlagsFromCommandLine@V8@v8@@SAXPEAHPEAPEAD_N@Z
    ?SetFlagsFromString@V8@v8@@SAXPEBD@Z=QQNT.original.dll.?SetFlagsFromString@V8@v8@@SAXPEBD@Z
    ?SetFlagsFromString@V8@v8@@SAXPEBD_K@Z=QQNT.original.dll.?SetFlagsFromString@V8@v8@@SAXPEBD_K@Z
    ?SetGetDetachednessCallback@HeapProfiler@v8@@QEAAXP6A?AW4Detachedness@Node@EmbedderGraph@2@PEAVIsolate@2@AEBV?$Local@VValue@v8@@@2@GPEAX@Z2@Z=QQNT.original.dll.?SetGetDetachednessCallback@HeapProfiler@v8@@QEAAXP6A?AW4Detachedness@Node@EmbedderGraph@2@PEAVIsolate@2@AEBV?$Local@VValue@v8@@@2@GPEAX@Z2@Z
    ?SetGetExternallyAllocatedMemoryInBytesCallback@Isolate@v8@@QEAAXP6A_KXZ@Z=QQNT.original.dll.?SetGetExternallyAllocatedMemoryInBytesCallback@Isolate@v8@@QEAAXP6A_KXZ@Z
    ?SetHandler@ObjectTemplate@v8@@QEAAXAEBUIndexedPropertyHandlerConfiguration@2@@Z=QQNT.original.dll.?SetHandler@ObjectTemplate@v8@@QEAAXAEBUIndexedPropertyHandlerConfiguration@2@@Z
    ?SetHandler@ObjectTemplate@v8@@QEAAXAEBUNamedPropertyHandlerConfiguration@2@@Z=QQNT.original.dll.?SetHandler@ObjectTemplate@v8@@QEAAXAEBUNamedPropertyHandlerConfiguration@2@@Z
    ?SetHostCreateShadowRealmContextCallback@Isolate@v8@@QEAAXP6A?AV?$MaybeLocal@VContext@v8@@@2@V?$Local@VContext@v8@@@2@@Z@Z=QQNT.original.dll.?SetHostCreateShadowRealmContextCallback@Isolate@v8@@QEAAXP6A?AV?$MaybeLocal@VContext@v8@@@2@V?$Local@VContext@v8@@@2@@Z@Z
    ?SetHostImportModuleDynamicallyCallback@Isolate@v8@@QEAAXP6A?AV?$MaybeLocal@VPromise@v8@@@2@V?$Local@VContext@v8@@@2@V?$Local@VData@v8@@@2@V?$Local@VValue@v8@@@2@V?$Local@VString@v8@@@2@V?$Local@VFixedArray@v8@@@2@@Z@Z=QQNT.original.dll.?SetHostImportModuleDynamicallyCallback@Isolate@v8@@QEAAXP6A?AV?$MaybeLocal@VPromise@v8@@@2@V?$Local@VContext@v8@@@2@V?$Local@VData@v8@@@2@V?$Local@VValue@v8@@@2@V?$Local@VString@v8@@@2@V?$Local@VFixedArray@v8@@@2@@Z@Z
    ?SetHostImportModuleWithPhaseDynamicallyCallback@Isolate@v8@@QEAAXP6A?AV?$MaybeLocal@VPromise@v8@@@2@V?$Local@VContext@v8@@@2@V?$Local@VData@v8@@@2@V?$Local@VValue@v8@@@2@V?$Local@VString@v8@@@2@W4ModuleImportPhase@2@V?$Local@VFixedArray@v8@@@2@@Z@Z=QQNT.original.dll.?SetHostImportModuleWithPhaseDynamicallyCallback@Isolate@v8@@QEAAXP6A?AV?$MaybeLocal@VPromise@v8@@@2@V?$Local@VContext@v8@@@2@V?$Local@VData@v8@@@2@V?$Local@VValue@v8@@@2@V?$Local@VString@v8@@@2@W4ModuleImportPhase@2@V?$Local@VFixedArray@v8@@@2@@Z@Z
    ?SetHostInitializeImportMetaObjectCallback@Isolate@v8@@QEAAXP6AXV?$Local@VContext@v8@@@2@V?$Local@VModule@v8@@@2@V?$Local@VObject@v8@@@2@@Z@Z=QQNT.original.dll.?SetHostInitializeImportMetaObjectCallback@Isolate@v8@@QEAAXP6AXV?$Local@VContext@v8@@@2@V?$Local@VModule@v8@@@2@V?$Local@VObject@v8@@@2@@Z@Z
    ?SetId@DiscardedSamplesDelegate@v8@@AEAAXI@Z=QQNT.original.dll.?SetId@DiscardedSamplesDelegate@v8@@AEAAXI@Z
    ?SetIdle@Isolate@v8@@QEAAX_N@Z=QQNT.original.dll.?SetIdle@Isolate@v8@@QEAAX_N@Z
    ?SetImmutableProto@ObjectTemplate@v8@@QEAAXXZ=QQNT.original.dll.?SetImmutableProto@ObjectTemplate@v8@@QEAAXXZ
    ?SetImportModuleDynamicallyCallback@ModuleWrap@loader@node@@CAXAEBV?$FunctionCallbackInfo@VValue@v8@@@v8@@@Z=QQNT.original.dll.?SetImportModuleDynamicallyCallback@ModuleWrap@loader@node@@CAXAEBV?$FunctionCallbackInfo@VValue@v8@@@v8@@@Z
    ?SetInitializeImportMetaObjectCallback@ModuleWrap@loader@node@@CAXAEBV?$FunctionCallbackInfo@VValue@v8@@@v8@@@Z=QQNT.original.dll.?SetInitializeImportMetaObjectCallback@ModuleWrap@loader@node@@CAXAEBV?$FunctionCallbackInfo@VValue@v8@@@v8@@@Z
    ?SetIntegrityLevel@Object@v8@@QEAA?AV?$Maybe@_N@2@V?$Local@VContext@v8@@@2@W4IntegrityLevel@2@@Z=QQNT.original.dll.?SetIntegrityLevel@Object@v8@@QEAA?AV?$Maybe@_N@2@V?$Local@VContext@v8@@@2@W4IntegrityLevel@2@@Z
    ?SetInterfaceName@FunctionTemplate@v8@@QEAAXV?$Local@VString@v8@@@2@@Z=QQNT.original.dll.?SetInterfaceName@FunctionTemplate@v8@@QEAAXV?$Local@VString@v8@@@2@@Z
    ?SetInternalField@Object@v8@@QEAAXHV?$Local@VData@v8@@@2@@Z=QQNT.original.dll.?SetInternalField@Object@v8@@QEAAXHV?$Local@VData@v8@@@2@@Z
    ?SetInternalFieldCount@ObjectTemplate@v8@@QEAAXH@Z=QQNT.original.dll.?SetInternalFieldCount@ObjectTemplate@v8@@QEAAXH@Z
    ?SetInternalFieldForNodeCore@Object@v8@@QEAAXHV?$Local@VModule@v8@@@2@@Z=QQNT.original.dll.?SetInternalFieldForNodeCore@Object@v8@@QEAAXHV?$Local@VModule@v8@@@2@@Z
    ?SetInternalFieldForNodeCore@Object@v8@@QEAAXHV?$Local@VUnboundScript@v8@@@2@@Z=QQNT.original.dll.?SetInternalFieldForNodeCore@Object@v8@@QEAAXHV?$Local@VUnboundScript@v8@@@2@@Z
    ?SetIntrinsicDataProperty@Template@v8@@QEAAXV?$Local@VName@v8@@@2@W4Intrinsic@2@W4PropertyAttribute@2@@Z=QQNT.original.dll.?SetIntrinsicDataProperty@Template@v8@@QEAAXV?$Local@VName@v8@@@2@W4Intrinsic@2@W4PropertyAttribute@2@@Z
    ?SetIsLoading@Isolate@v8@@QEAAX_N@Z=QQNT.original.dll.?SetIsLoading@Isolate@v8@@QEAAX_N@Z
    ?SetIsolateUpForNode@node@@YAXPEAVIsolate@v8@@@Z=QQNT.original.dll.?SetIsolateUpForNode@node@@YAXPEAVIsolate@v8@@@Z
    ?SetIsolateUpForNode@node@@YAXPEAVIsolate@v8@@AEBUIsolateSettings@1@@Z=QQNT.original.dll.?SetIsolateUpForNode@node@@YAXPEAVIsolate@v8@@AEBUIsolateSettings@1@@Z
    ?SetJavaScriptCompileHintsMagicEnabledCallback@Isolate@v8@@QEAAXP6A_NV?$Local@VContext@v8@@@2@@Z@Z=QQNT.original.dll.?SetJavaScriptCompileHintsMagicEnabledCallback@Isolate@v8@@QEAAXP6A_NV?$Local@VContext@v8@@@2@@Z@Z
    ?SetJitCodeEventHandler@Isolate@v8@@QEAAXW4JitCodeEventOptions@2@P6AXPEBUJitCodeEvent@2@@Z@Z=QQNT.original.dll.?SetJitCodeEventHandler@Isolate@v8@@QEAAXW4JitCodeEventOptions@2@P6AXPEBUJitCodeEvent@2@@Z@Z
    ?SetKnownSerializedValue@V8SerializationDuplicateTracker@v8_inspector@@AEAAXV?$Local@VValue@v8@@@v8@@PEAVDictionaryValue@protocol@2@@Z=QQNT.original.dll.?SetKnownSerializedValue@V8SerializationDuplicateTracker@v8_inspector@@AEAAXV?$Local@VValue@v8@@@v8@@PEAVDictionaryValue@protocol@2@@Z
    ?SetLazyDataProperty@Object@v8@@QEAA?AV?$Maybe@_N@2@V?$Local@VContext@v8@@@2@V?$Local@VName@v8@@@2@P6AX1AEBV?$PropertyCallbackInfo@VValue@v8@@@2@@ZV?$Local@VValue@v8@@@2@W4PropertyAttribute@2@W4SideEffectType@2@6@Z=QQNT.original.dll.?SetLazyDataProperty@Object@v8@@QEAA?AV?$Maybe@_N@2@V?$Local@VContext@v8@@@2@V?$Local@VName@v8@@@2@P6AX1AEBV?$PropertyCallbackInfo@VValue@v8@@@2@@ZV?$Local@VValue@v8@@@2@W4PropertyAttribute@2@W4SideEffectType@2@6@Z
    ?SetLazyDataProperty@Template@v8@@QEAAXV?$Local@VName@v8@@@2@P6AX0AEBV?$PropertyCallbackInfo@VValue@v8@@@2@@ZV?$Local@VValue@v8@@@2@W4PropertyAttribute@2@W4SideEffectType@2@5@Z=QQNT.original.dll.?SetLazyDataProperty@Template@v8@@QEAAXV?$Local@VName@v8@@@2@P6AX0AEBV?$PropertyCallbackInfo@VValue@v8@@@2@@ZV?$Local@VValue@v8@@@2@W4PropertyAttribute@2@W4SideEffectType@2@5@Z
    ?SetLength@FunctionTemplate@v8@@QEAAXH@Z=QQNT.original.dll.?SetLength@FunctionTemplate@v8@@QEAAXH@Z
    ?SetMaxAsyncTaskStacksForTest@v8_inspector@@YAXPEAVV8Inspector@1@H@Z=QQNT.original.dll.?SetMaxAsyncTaskStacksForTest@v8_inspector@@YAXPEAVV8Inspector@1@H@Z
    ?SetMetricsRecorder@Isolate@v8@@QEAAXAEBV?$shared_ptr@VRecorder@metrics@v8@@@__Cr@std@@@Z=QQNT.original.dll.?SetMetricsRecorder@Isolate@v8@@QEAAXAEBV?$shared_ptr@VRecorder@metrics@v8@@@__Cr@std@@@Z
    ?SetMicrotaskQueue@Context@v8@@QEAAXPEAVMicrotaskQueue@2@@Z=QQNT.original.dll.?SetMicrotaskQueue@Context@v8@@QEAAXPEAVMicrotaskQueue@2@@Z
    ?SetMicrotasksPolicy@Isolate@v8@@QEAAXW4MicrotasksPolicy@2@@Z=QQNT.original.dll.?SetMicrotasksPolicy@Isolate@v8@@QEAAXW4MicrotasksPolicy@2@@Z
    ?SetModifyCodeGenerationFromStringsCallback@Isolate@v8@@QEAAXP6A?AUModifyCodeGenerationFromStringsResult@2@V?$Local@VContext@v8@@@2@V?$Local@VValue@v8@@@2@_N@Z@Z=QQNT.original.dll.?SetModifyCodeGenerationFromStringsCallback@Isolate@v8@@QEAAXP6A?AUModifyCodeGenerationFromStringsResult@2@V?$Local@VContext@v8@@@2@V?$Local@VValue@v8@@@2@_N@Z@Z
    ?SetMoreFunctionsCanBeSerializedCallback@WasmStreaming@v8@@QEAAXV?$function@$$A6AXVCompiledWasmModule@v8@@@Z@__Cr@std@@@Z=QQNT.original.dll.?SetMoreFunctionsCanBeSerializedCallback@WasmStreaming@v8@@QEAAXV?$function@$$A6AXVCompiledWasmModule@v8@@@Z@__Cr@std@@@Z
    ?SetName@Function@v8@@QEAAXV?$Local@VString@v8@@@2@@Z=QQNT.original.dll.?SetName@Function@v8@@QEAAXV?$Local@VString@v8@@@2@@Z
    ?SetNativeDataProperty@Object@v8@@QEAA?AV?$Maybe@_N@2@V?$Local@VContext@v8@@@2@V?$Local@VName@v8@@@2@P6AX1AEBV?$PropertyCallbackInfo@VValue@v8@@@2@@ZP6AX1V?$Local@VValue@v8@@@2@AEBV?$PropertyCallbackInfo@X@2@@Z4W4PropertyAttribute@2@W4SideEffectType@2@8@Z=QQNT.original.dll.?SetNativeDataProperty@Object@v8@@QEAA?AV?$Maybe@_N@2@V?$Local@VContext@v8@@@2@V?$Local@VName@v8@@@2@P6AX1AEBV?$PropertyCallbackInfo@VValue@v8@@@2@@ZP6AX1V?$Local@VValue@v8@@@2@AEBV?$PropertyCallbackInfo@X@2@@Z4W4PropertyAttribute@2@W4SideEffectType@2@8@Z
    ?SetNativeDataProperty@Template@v8@@QEAAXV?$Local@VName@v8@@@2@P6AX0AEBV?$PropertyCallbackInfo@VValue@v8@@@2@@ZP6AX0V?$Local@VValue@v8@@@2@AEBV?$PropertyCallbackInfo@X@2@@Z3W4PropertyAttribute@2@W4SideEffectType@2@7@Z=QQNT.original.dll.?SetNativeDataProperty@Template@v8@@QEAAXV?$Local@VName@v8@@@2@P6AX0AEBV?$PropertyCallbackInfo@VValue@v8@@@2@@ZP6AX0V?$Local@VValue@v8@@@2@AEBV?$PropertyCallbackInfo@X@2@@Z3W4PropertyAttribute@2@W4SideEffectType@2@7@Z
    ?SetOOMErrorHandler@Isolate@v8@@QEAAXP6AXPEBDAEBUOOMDetails@2@@Z@Z=QQNT.original.dll.?SetOOMErrorHandler@Isolate@v8@@QEAAXP6AXPEBDAEBUOOMDetails@2@@Z@Z
    ?SetPrepareStackTraceCallback@Isolate@v8@@QEAAXP6A?AV?$MaybeLocal@VValue@v8@@@2@V?$Local@VContext@v8@@@2@V?$Local@VValue@v8@@@2@V?$Local@VArray@v8@@@2@@Z@Z=QQNT.original.dll.?SetPrepareStackTraceCallback@Isolate@v8@@QEAAXP6A?AV?$MaybeLocal@VValue@v8@@@2@V?$Local@VContext@v8@@@2@V?$Local@VValue@v8@@@2@V?$Local@VArray@v8@@@2@@Z@Z
    ?SetPriority@Isolate@v8@@QEAAXW4Priority@12@@Z=QQNT.original.dll.?SetPriority@Isolate@v8@@QEAAXW4Priority@12@@Z
    ?SetPrivate@Object@v8@@QEAA?AV?$Maybe@_N@2@V?$Local@VContext@v8@@@2@V?$Local@VPrivate@v8@@@2@V?$Local@VValue@v8@@@2@@Z=QQNT.original.dll.?SetPrivate@Object@v8@@QEAA?AV?$Maybe@_N@2@V?$Local@VContext@v8@@@2@V?$Local@VPrivate@v8@@@2@V?$Local@VValue@v8@@@2@@Z
    ?SetPrivate@Template@v8@@QEAAXV?$Local@VPrivate@v8@@@2@V?$Local@VData@v8@@@2@W4PropertyAttribute@2@@Z=QQNT.original.dll.?SetPrivate@Template@v8@@QEAAXV?$Local@VPrivate@v8@@@2@V?$Local@VData@v8@@@2@W4PropertyAttribute@2@@Z
    ?SetProcessExitHandler@node@@YAXPEAVEnvironment@1@$$QEAV?$function@$$A6AXPEAVEnvironment@node@@H@Z@__Cr@std@@@Z=QQNT.original.dll.?SetProcessExitHandler@node@@YAXPEAVEnvironment@1@$$QEAV?$function@$$A6AXPEAVEnvironment@node@@H@Z@__Cr@std@@@Z
    ?SetPromiseHook@Isolate@v8@@QEAAXP6AXW4PromiseHookType@2@V?$Local@VPromise@v8@@@2@V?$Local@VValue@v8@@@2@@Z@Z=QQNT.original.dll.?SetPromiseHook@Isolate@v8@@QEAAXP6AXW4PromiseHookType@2@V?$Local@VPromise@v8@@@2@V?$Local@VValue@v8@@@2@@Z@Z
    ?SetPromiseHooks@Context@v8@@QEAAXV?$Local@VFunction@v8@@@2@000@Z=QQNT.original.dll.?SetPromiseHooks@Context@v8@@QEAAXV?$Local@VFunction@v8@@@2@000@Z
    ?SetPromiseRejectCallback@Isolate@v8@@QEAAXP6AXVPromiseRejectMessage@2@@Z@Z=QQNT.original.dll.?SetPromiseRejectCallback@Isolate@v8@@QEAAXP6AXVPromiseRejectMessage@2@@Z@Z
    ?SetPrototype@Object@v8@@QEAA?AV?$Maybe@_N@2@V?$Local@VContext@v8@@@2@V?$Local@VValue@v8@@@2@@Z=QQNT.original.dll.?SetPrototype@Object@v8@@QEAA?AV?$Maybe@_N@2@V?$Local@VContext@v8@@@2@V?$Local@VValue@v8@@@2@@Z
    ?SetPrototypeProviderTemplate@FunctionTemplate@v8@@QEAAXV?$Local@VFunctionTemplate@v8@@@2@@Z=QQNT.original.dll.?SetPrototypeProviderTemplate@FunctionTemplate@v8@@QEAAXV?$Local@VFunctionTemplate@v8@@@2@@Z
    ?SetPrototypeV2@Object@v8@@QEAA?AV?$Maybe@_N@2@V?$Local@VContext@v8@@@2@V?$Local@VValue@v8@@@2@@Z=QQNT.original.dll.?SetPrototypeV2@Object@v8@@QEAA?AV?$Maybe@_N@2@V?$Local@VContext@v8@@@2@V?$Local@VValue@v8@@@2@@Z
    ?SetRAILMode@Isolate@v8@@QEAAXW4RAILMode@2@@Z=QQNT.original.dll.?SetRAILMode@Isolate@v8@@QEAAXW4RAILMode@2@@Z
    ?SetReturnAddressLocationResolver@V8@v8@@SAXP6A_K_K@Z@Z=QQNT.original.dll.?SetReturnAddressLocationResolver@V8@v8@@SAXP6A_K_K@Z@Z
    ?SetSamplingInterval@CpuProfiler@v8@@QEAAXH@Z=QQNT.original.dll.?SetSamplingInterval@CpuProfiler@v8@@QEAAXH@Z
    ?SetSecurityToken@Context@v8@@QEAAXV?$Local@VValue@v8@@@2@@Z=QQNT.original.dll.?SetSecurityToken@Context@v8@@QEAAXV?$Local@VValue@v8@@@2@@Z
    ?SetSharedArrayBufferConstructorEnabledCallback@Isolate@v8@@QEAAXP6A_NV?$Local@VContext@v8@@@2@@Z@Z=QQNT.original.dll.?SetSharedArrayBufferConstructorEnabledCallback@Isolate@v8@@QEAAXP6A_NV?$Local@VContext@v8@@@2@@Z@Z
    ?SetSnapshotDataBlob@V8@v8@@SAXPEAVStartupData@2@@Z=QQNT.original.dll.?SetSnapshotDataBlob@V8@v8@@SAXPEAVStartupData@2@@Z
    ?SetStackLimit@Isolate@v8@@QEAAX_K@Z=QQNT.original.dll.?SetStackLimit@Isolate@v8@@QEAAX_K@Z
    ?SetSupportsLegacyWireFormat@ValueDeserializer@v8@@QEAAX_N@Z=QQNT.original.dll.?SetSupportsLegacyWireFormat@ValueDeserializer@v8@@QEAAX_N@Z
    ?SetSyntheticExport@ModuleWrap@loader@node@@CAXAEBV?$FunctionCallbackInfo@VValue@v8@@@v8@@@Z=QQNT.original.dll.?SetSyntheticExport@ModuleWrap@loader@node@@CAXAEBV?$FunctionCallbackInfo@VValue@v8@@@v8@@@Z
    ?SetSyntheticModuleExport@Module@v8@@QEAA?AV?$Maybe@_N@2@PEAVIsolate@2@V?$Local@VString@v8@@@2@V?$Local@VValue@v8@@@2@@Z=QQNT.original.dll.?SetSyntheticModuleExport@Module@v8@@QEAA?AV?$Maybe@_N@2@PEAVIsolate@2@V?$Local@VString@v8@@@2@V?$Local@VValue@v8@@@2@@Z
    ?SetTracingController@node@@YAXPEAVTracingController@v8@@@Z=QQNT.original.dll.?SetTracingController@node@@YAXPEAVTracingController@v8@@@Z
    ?SetTreatArrayBufferViewsAsHostObjects@ValueSerializer@v8@@QEAAX_N@Z=QQNT.original.dll.?SetTreatArrayBufferViewsAsHostObjects@ValueSerializer@v8@@QEAAX_N@Z
    ?SetUnhandledExceptionCallback@V8@v8@@SAXP6AHPEAU_EXCEPTION_POINTERS@@@Z@Z=QQNT.original.dll.?SetUnhandledExceptionCallback@V8@v8@@SAXP6AHPEAU_EXCEPTION_POINTERS@@@Z@Z
    ?SetUrl@WasmStreaming@v8@@QEAAXPEBD_K@Z=QQNT.original.dll.?SetUrl@WasmStreaming@v8@@QEAAXPEBD_K@Z
    ?SetUseCounterCallback@Isolate@v8@@QEAAXP6AXPEAV12@W4UseCounterFeature@12@@Z@Z=QQNT.original.dll.?SetUseCounterCallback@Isolate@v8@@QEAAXP6AXPEAV12@W4UseCounterFeature@12@@Z@Z
    ?SetUsePreciseSampling@CpuProfiler@v8@@QEAAX_N@Z=QQNT.original.dll.?SetUsePreciseSampling@CpuProfiler@v8@@QEAAX_N@Z
    ?SetVerbose@TryCatch@v8@@QEAAX_N@Z=QQNT.original.dll.?SetVerbose@TryCatch@v8@@QEAAX_N@Z
    ?SetWasmAsyncResolvePromiseCallback@Isolate@v8@@QEAAXP6AXPEAV12@V?$Local@VContext@v8@@@2@V?$Local@VResolver@Promise@v8@@@2@V?$Local@VValue@v8@@@2@W4WasmAsyncSuccess@2@@Z@Z=QQNT.original.dll.?SetWasmAsyncResolvePromiseCallback@Isolate@v8@@QEAAXP6AXPEAV12@V?$Local@VContext@v8@@@2@V?$Local@VResolver@Promise@v8@@@2@V?$Local@VValue@v8@@@2@W4WasmAsyncSuccess@2@@Z@Z
    ?SetWasmImportedStringsEnabledCallback@Isolate@v8@@QEAAXP6A_NV?$Local@VContext@v8@@@2@@Z@Z=QQNT.original.dll.?SetWasmImportedStringsEnabledCallback@Isolate@v8@@QEAAXP6A_NV?$Local@VContext@v8@@@2@@Z@Z
    ?SetWasmInstanceCallback@Isolate@v8@@QEAAXP6A_NAEBV?$FunctionCallbackInfo@VValue@v8@@@2@@Z@Z=QQNT.original.dll.?SetWasmInstanceCallback@Isolate@v8@@QEAAXP6A_NAEBV?$FunctionCallbackInfo@VValue@v8@@@2@@Z@Z
    ?SetWasmJSPIEnabledCallback@Isolate@v8@@QEAAXP6A_NV?$Local@VContext@v8@@@2@@Z@Z=QQNT.original.dll.?SetWasmJSPIEnabledCallback@Isolate@v8@@QEAAXP6A_NV?$Local@VContext@v8@@@2@@Z@Z
    ?SetWasmLoadSourceMapCallback@Isolate@v8@@QEAAXP6A?AV?$Local@VString@v8@@@2@PEAV12@PEBD@Z@Z=QQNT.original.dll.?SetWasmLoadSourceMapCallback@Isolate@v8@@QEAAXP6A?AV?$Local@VString@v8@@@2@PEAV12@PEBD@Z@Z
    ?SetWasmModuleCallback@Isolate@v8@@QEAAXP6A_NAEBV?$FunctionCallbackInfo@VValue@v8@@@2@@Z@Z=QQNT.original.dll.?SetWasmModuleCallback@Isolate@v8@@QEAAXP6A_NAEBV?$FunctionCallbackInfo@VValue@v8@@@2@@Z@Z
    ?SetWasmStreamingCallback@Isolate@v8@@QEAAXP6AXAEBV?$FunctionCallbackInfo@VValue@v8@@@2@@Z@Z=QQNT.original.dll.?SetWasmStreamingCallback@Isolate@v8@@QEAAXP6AXAEBV?$FunctionCallbackInfo@VValue@v8@@@2@@Z@Z
    ?ShouldAbortOnUncaughtException@node@@YA_NPEAVIsolate@v8@@@Z=QQNT.original.dll.?ShouldAbortOnUncaughtException@node@@YA_NPEAVIsolate@v8@@@Z
    ?ShouldMergeWithExistingScript@ConsumeCodeCacheTask@ScriptCompiler@v8@@QEBA_NXZ=QQNT.original.dll.?ShouldMergeWithExistingScript@ConsumeCodeCacheTask@ScriptCompiler@v8@@QEBA_NXZ
    ?ShouldThrowOnError@internal@v8@@YA_NPEAVIsolate@12@@Z=QQNT.original.dll.?ShouldThrowOnError@internal@v8@@YA_NPEAVIsolate@12@@Z
    ?Shrink@JitPageReference@ThreadIsolation@internal@v8@@QEAAXPEAVJitPage@234@@Z=QQNT.original.dll.?Shrink@JitPageReference@ThreadIsolation@internal@v8@@QEAAXPEAVJitPage@234@@Z
    ?ShutdownProcess@cppgc@@YAXXZ=QQNT.original.dll.?ShutdownProcess@cppgc@@YAXXZ
    ?Size@JitPageReference@ThreadIsolation@internal@v8@@QEBA_KXZ=QQNT.original.dll.?Size@JitPageReference@ThreadIsolation@internal@v8@@QEBA_KXZ
    ?Size@Map@v8@@QEBA_KXZ=QQNT.original.dll.?Size@Map@v8@@QEBA_KXZ
    ?Size@Set@v8@@QEBA_KXZ=QQNT.original.dll.?Size@Set@v8@@QEBA_KXZ
    ?SlowGetAlignedPointerFromEmbedderData@Context@v8@@AEAAPEAXH@Z=QQNT.original.dll.?SlowGetAlignedPointerFromEmbedderData@Context@v8@@AEAAPEAXH@Z
    ?SlowGetAlignedPointerFromInternalField@Object@v8@@AEAAPEAXH@Z=QQNT.original.dll.?SlowGetAlignedPointerFromInternalField@Object@v8@@AEAAPEAXH@Z
    ?SlowGetAlignedPointerFromInternalField@Object@v8@@AEAAPEAXPEAVIsolate@2@H@Z=QQNT.original.dll.?SlowGetAlignedPointerFromInternalField@Object@v8@@AEAAPEAXPEAVIsolate@2@H@Z
    ?SlowGetEmbedderData@Context@v8@@AEAA?AV?$Local@VValue@v8@@@2@H@Z=QQNT.original.dll.?SlowGetEmbedderData@Context@v8@@AEAA?AV?$Local@VValue@v8@@@2@H@Z
    ?SlowGetInternalField@Object@v8@@AEAA?AV?$Local@VData@v8@@@2@H@Z=QQNT.original.dll.?SlowGetInternalField@Object@v8@@AEAA?AV?$Local@VData@v8@@@2@H@Z
    ?SourceMapUrl@ScriptOrigin@v8@@QEBA?AV?$Local@VValue@v8@@@2@XZ=QQNT.original.dll.?SourceMapUrl@ScriptOrigin@v8@@QEBA?AV?$Local@VValue@v8@@@2@XZ
    ?SourceOffsetToLocation@Module@v8@@QEBA?AVLocation@2@H@Z=QQNT.original.dll.?SourceOffsetToLocation@Module@v8@@QEBA?AVLocation@2@H@Z
    ?SourceTextAvailable@ConsumeCodeCacheTask@ScriptCompiler@v8@@QEAAXPEAVIsolate@3@V?$Local@VString@v8@@@3@AEBVScriptOrigin@3@@Z=QQNT.original.dll.?SourceTextAvailable@ConsumeCodeCacheTask@ScriptCompiler@v8@@QEAAXPEAVIsolate@3@V?$Local@VString@v8@@@3@AEBVScriptOrigin@3@@Z
    ?SpinEventLoop@node@@YA?AV?$Maybe@H@v8@@PEAVEnvironment@1@@Z=QQNT.original.dll.?SpinEventLoop@node@@YA?AV?$Maybe@H@v8@@PEAVEnvironment@1@@Z
    ?SplitJitPage@ThreadIsolation@internal@v8@@CA?AVJitPageReference@123@_K0@Z=QQNT.original.dll.?SplitJitPage@ThreadIsolation@internal@v8@@CA?AVJitPageReference@123@_K0@Z
    ?SplitJitPageLocked@ThreadIsolation@internal@v8@@CA?AVJitPageReference@123@_K0@Z=QQNT.original.dll.?SplitJitPageLocked@ThreadIsolation@internal@v8@@CA?AVJitPageReference@123@_K0@Z
    ?SplitJitPages@ThreadIsolation@internal@v8@@CA?AU?$pair@VJitPageReference@ThreadIsolation@internal@v8@@V1234@@__Cr@std@@_K000@Z=QQNT.original.dll.?SplitJitPages@ThreadIsolation@internal@v8@@CA?AU?$pair@VJitPageReference@ThreadIsolation@internal@v8@@V1234@@__Cr@std@@_K000@Z
    ?StackTrace@TryCatch@v8@@QEBA?AV?$MaybeLocal@VValue@v8@@@2@V?$Local@VContext@v8@@@2@@Z=QQNT.original.dll.?StackTrace@TryCatch@v8@@QEBA?AV?$MaybeLocal@VValue@v8@@@2@V?$Local@VContext@v8@@@2@@Z
    ?StackTrace@TryCatch@v8@@SA?AV?$MaybeLocal@VValue@v8@@@2@V?$Local@VContext@v8@@@2@V?$Local@VValue@v8@@@2@@Z=QQNT.original.dll.?StackTrace@TryCatch@v8@@SA?AV?$MaybeLocal@VValue@v8@@@2@V?$Local@VContext@v8@@@2@V?$Local@VValue@v8@@@2@@Z
    ?Start@CpuProfiler@v8@@QEAA?AUCpuProfilingResult@2@V?$Local@VString@v8@@@2@VCpuProfilingOptions@2@V?$unique_ptr@VDiscardedSamplesDelegate@v8@@U?$default_delete@VDiscardedSamplesDelegate@v8@@@__Cr@std@@@__Cr@std@@@Z=QQNT.original.dll.?Start@CpuProfiler@v8@@QEAA?AUCpuProfilingResult@2@V?$Local@VString@v8@@@2@VCpuProfilingOptions@2@V?$unique_ptr@VDiscardedSamplesDelegate@v8@@U?$default_delete@VDiscardedSamplesDelegate@v8@@@__Cr@std@@@__Cr@std@@@Z
    ?Start@CpuProfiler@v8@@QEAA?AUCpuProfilingResult@2@V?$Local@VString@v8@@@2@W4CpuProfilingMode@2@_NI@Z=QQNT.original.dll.?Start@CpuProfiler@v8@@QEAA?AUCpuProfilingResult@2@V?$Local@VString@v8@@@2@W4CpuProfilingMode@2@_NI@Z
    ?Start@CpuProfiler@v8@@QEAA?AUCpuProfilingResult@2@V?$Local@VString@v8@@@2@_N@Z=QQNT.original.dll.?Start@CpuProfiler@v8@@QEAA?AUCpuProfilingResult@2@V?$Local@VString@v8@@@2@_N@Z
    ?Start@CpuProfiler@v8@@QEAA?AUCpuProfilingResult@2@VCpuProfilingOptions@2@V?$unique_ptr@VDiscardedSamplesDelegate@v8@@U?$default_delete@VDiscardedSamplesDelegate@v8@@@__Cr@std@@@__Cr@std@@@Z=QQNT.original.dll.?Start@CpuProfiler@v8@@QEAA?AUCpuProfilingResult@2@VCpuProfilingOptions@2@V?$unique_ptr@VDiscardedSamplesDelegate@v8@@U?$default_delete@VDiscardedSamplesDelegate@v8@@@__Cr@std@@@__Cr@std@@@Z
    ?Start@node@@YAHHQEAPEAD@Z=QQNT.original.dll.?Start@node@@YAHHQEAPEAD@Z
    ?StartConsumingCodeCache@ScriptCompiler@v8@@SAPEAVConsumeCodeCacheTask@12@PEAVIsolate@2@V?$unique_ptr@UCachedData@ScriptCompiler@v8@@U?$default_delete@UCachedData@ScriptCompiler@v8@@@__Cr@std@@@__Cr@std@@@Z=QQNT.original.dll.?StartConsumingCodeCache@ScriptCompiler@v8@@SAPEAVConsumeCodeCacheTask@12@PEAVIsolate@2@V?$unique_ptr@UCachedData@ScriptCompiler@v8@@U?$default_delete@UCachedData@ScriptCompiler@v8@@@__Cr@std@@@__Cr@std@@@Z
    ?StartConsumingCodeCacheOnBackground@ScriptCompiler@v8@@SAPEAVConsumeCodeCacheTask@12@PEAVIsolate@2@V?$unique_ptr@UCachedData@ScriptCompiler@v8@@U?$default_delete@UCachedData@ScriptCompiler@v8@@@__Cr@std@@@__Cr@std@@@Z=QQNT.original.dll.?StartConsumingCodeCacheOnBackground@ScriptCompiler@v8@@SAPEAVConsumeCodeCacheTask@12@PEAVIsolate@2@V?$unique_ptr@UCachedData@ScriptCompiler@v8@@U?$default_delete@UCachedData@ScriptCompiler@v8@@@__Cr@std@@@__Cr@std@@@Z
    ?StartGarbageCollection@StandaloneTestingHeap@testing@cppgc@@QEAAXXZ=QQNT.original.dll.?StartGarbageCollection@StandaloneTestingHeap@testing@cppgc@@QEAAXXZ
    ?StartOfAllocationAt@JitPageReference@ThreadIsolation@internal@v8@@QEAA_K_K@Z=QQNT.original.dll.?StartOfAllocationAt@JitPageReference@ThreadIsolation@internal@v8@@QEAA_K_K@Z
    ?StartOfJitAllocationAt@ThreadIsolation@internal@v8@@SA?AV?$optional@_K@__Cr@std@@_K@Z=QQNT.original.dll.?StartOfJitAllocationAt@ThreadIsolation@internal@v8@@SA?AV?$optional@_K@__Cr@std@@_K@Z
    ?StartProfiling@CpuProfiler@v8@@QEAA?AW4CpuProfilingStatus@2@V?$Local@VString@v8@@@2@VCpuProfilingOptions@2@V?$unique_ptr@VDiscardedSamplesDelegate@v8@@U?$default_delete@VDiscardedSamplesDelegate@v8@@@__Cr@std@@@__Cr@std@@@Z=QQNT.original.dll.?StartProfiling@CpuProfiler@v8@@QEAA?AW4CpuProfilingStatus@2@V?$Local@VString@v8@@@2@VCpuProfilingOptions@2@V?$unique_ptr@VDiscardedSamplesDelegate@v8@@U?$default_delete@VDiscardedSamplesDelegate@v8@@@__Cr@std@@@__Cr@std@@@Z
    ?StartProfiling@CpuProfiler@v8@@QEAA?AW4CpuProfilingStatus@2@V?$Local@VString@v8@@@2@W4CpuProfilingMode@2@_NI@Z=QQNT.original.dll.?StartProfiling@CpuProfiler@v8@@QEAA?AW4CpuProfilingStatus@2@V?$Local@VString@v8@@@2@W4CpuProfilingMode@2@_NI@Z
    ?StartProfiling@CpuProfiler@v8@@QEAA?AW4CpuProfilingStatus@2@V?$Local@VString@v8@@@2@_N@Z=QQNT.original.dll.?StartProfiling@CpuProfiler@v8@@QEAA?AW4CpuProfilingStatus@2@V?$Local@VString@v8@@@2@_N@Z
    ?StartSamplingHeapProfiler@HeapProfiler@v8@@QEAA_N_KHW4SamplingFlags@12@@Z=QQNT.original.dll.?StartSamplingHeapProfiler@HeapProfiler@v8@@QEAA_N_KHW4SamplingFlags@12@@Z
    ?StartStreaming@ScriptCompiler@v8@@SAPEAVScriptStreamingTask@12@PEAVIsolate@2@PEAVStreamedSource@12@W4ScriptType@2@W4CompileOptions@12@P6A_NHPEAX@Z4@Z=QQNT.original.dll.?StartStreaming@ScriptCompiler@v8@@SAPEAVScriptStreamingTask@12@PEAVIsolate@2@PEAVStreamedSource@12@W4ScriptType@2@W4CompileOptions@12@P6A_NHPEAX@Z4@Z
    ?StartTrackingHeapObjects@HeapProfiler@v8@@QEAAX_N@Z=QQNT.original.dll.?StartTrackingHeapObjects@HeapProfiler@v8@@QEAAX_N@Z
    ?State@Promise@v8@@QEAA?AW4PromiseState@12@XZ=QQNT.original.dll.?State@Promise@v8@@QEAA?AW4PromiseState@12@XZ
    ?SteeleMarkingBarrier@WriteBarrier@internal@cppgc@@SAXAEBUParams@123@PEBX@Z=QQNT.original.dll.?SteeleMarkingBarrier@WriteBarrier@internal@cppgc@@SAXAEBUParams@123@PEBX@Z
    ?SteeleMarkingBarrierSlow@WriteBarrier@internal@cppgc@@CAXPEBX@Z=QQNT.original.dll.?SteeleMarkingBarrierSlow@WriteBarrier@internal@cppgc@@CAXPEBX@Z
    ?SteeleMarkingBarrierSlowWithSentinelCheck@WriteBarrier@internal@cppgc@@CAXPEBX@Z=QQNT.original.dll.?SteeleMarkingBarrierSlowWithSentinelCheck@WriteBarrier@internal@cppgc@@CAXPEBX@Z
    ?Step@ReasonEnum@Paused@API@Debugger@protocol@v8_inspector@@3PEBDEB=QQNT.original.dll.?Step@ReasonEnum@Paused@API@Debugger@protocol@v8_inspector@@3PEBDEB
    ?Stop@CpuProfiler@v8@@QEAAPEAVCpuProfile@2@I@Z=QQNT.original.dll.?Stop@CpuProfiler@v8@@QEAAPEAVCpuProfile@2@I@Z
    ?Stop@node@@YAHPEAVEnvironment@1@W4Flags@StopFlags@1@@Z=QQNT.original.dll.?Stop@node@@YAHPEAVEnvironment@1@W4Flags@StopFlags@1@@Z
    ?StopProfiling@CpuProfiler@v8@@QEAAPEAVCpuProfile@2@V?$Local@VString@v8@@@2@@Z=QQNT.original.dll.?StopProfiling@CpuProfiler@v8@@QEAAPEAVCpuProfile@2@V?$Local@VString@v8@@@2@@Z
    ?StopSamplingHeapProfiler@HeapProfiler@v8@@QEAAXXZ=QQNT.original.dll.?StopSamplingHeapProfiler@HeapProfiler@v8@@QEAAXXZ
    ?StopTrackingHeapObjects@HeapProfiler@v8@@QEAAXXZ=QQNT.original.dll.?StopTrackingHeapObjects@HeapProfiler@v8@@QEAAXXZ
    ?StrictEquals@Value@v8@@QEBA_NV?$Local@VValue@v8@@@2@@Z=QQNT.original.dll.?StrictEquals@Value@v8@@QEBA_NV?$Local@VValue@v8@@@2@@Z
    ?StringEquals@String@v8@@QEBA_NV?$Local@VString@v8@@@2@@Z=QQNT.original.dll.?StringEquals@String@v8@@QEBA_NV?$Local@VString@v8@@@2@@Z
    ?Stringify@JSON@v8@@SA?AV?$MaybeLocal@VString@v8@@@2@V?$Local@VContext@v8@@@2@V?$Local@VValue@v8@@@2@V?$Local@VString@v8@@@2@@Z=QQNT.original.dll.?Stringify@JSON@v8@@SA?AV?$MaybeLocal@VString@v8@@@2@V?$Local@VContext@v8@@@2@V?$Local@VValue@v8@@@2@V?$Local@VString@v8@@@2@@Z
    ?SupportsCppClassNamesAsObjectNames@NameProvider@cppgc@@SA_NXZ=QQNT.original.dll.?SupportsCppClassNamesAsObjectNames@NameProvider@cppgc@@SA_NXZ
    ?SyntaxError@Exception@v8@@SA?AV?$Local@VValue@v8@@@2@V?$Local@VString@v8@@@2@V32@@Z=QQNT.original.dll.?SyntaxError@Exception@v8@@SA?AV?$Local@VValue@v8@@@2@V?$Local@VString@v8@@@2@V32@@Z
    ?SyntheticModuleEvaluationStepsCallback@ModuleWrap@loader@node@@CA?AV?$MaybeLocal@VValue@v8@@@v8@@V?$Local@VContext@v8@@@5@V?$Local@VModule@v8@@@5@@Z=QQNT.original.dll.?SyntheticModuleEvaluationStepsCallback@ModuleWrap@loader@node@@CA?AV?$MaybeLocal@VValue@v8@@@v8@@V?$Local@VContext@v8@@@5@V?$Local@VModule@v8@@@5@@Z
    ?SystemClockTimeMillis@Platform@v8@@KANXZ=QQNT.original.dll.?SystemClockTimeMillis@Platform@v8@@KANXZ
    ?TableSlotForTesting@GCInfoTable@internal@cppgc@@QEAAAEAUGCInfo@23@G@Z=QQNT.original.dll.?TableSlotForTesting@GCInfoTable@internal@cppgc@@QEAAAEAUGCInfo@23@G@Z
    ?TakeHeapSnapshot@HeapProfiler@v8@@QEAAPEBVHeapSnapshot@2@AEBUHeapSnapshotOptions@12@@Z=QQNT.original.dll.?TakeHeapSnapshot@HeapProfiler@v8@@QEAAPEBVHeapSnapshot@2@AEBUHeapSnapshotOptions@12@@Z
    ?TakeHeapSnapshot@HeapProfiler@v8@@QEAAPEBVHeapSnapshot@2@PEAVActivityControl@2@PEAVObjectNameResolver@12@_N2@Z=QQNT.original.dll.?TakeHeapSnapshot@HeapProfiler@v8@@QEAAPEBVHeapSnapshot@2@PEAVActivityControl@2@PEAVObjectNameResolver@12@_N2@Z
    ?TearDownOncePerProcess@node@@YAXXZ=QQNT.original.dll.?TearDownOncePerProcess@node@@YAXXZ
    ?Terminate@CppHeap@v8@@QEAAXXZ=QQNT.original.dll.?Terminate@CppHeap@v8@@QEAAXXZ
    ?TerminateExecution@Isolate@v8@@QEAAXXZ=QQNT.original.dll.?TerminateExecution@Isolate@v8@@QEAAXXZ
    ?Then@Promise@v8@@QEAA?AV?$MaybeLocal@VPromise@v8@@@2@V?$Local@VContext@v8@@@2@V?$Local@VFunction@v8@@@2@1@Z=QQNT.original.dll.?Then@Promise@v8@@QEAA?AV?$MaybeLocal@VPromise@v8@@@2@V?$Local@VContext@v8@@@2@V?$Local@VFunction@v8@@@2@1@Z
    ?Then@Promise@v8@@QEAA?AV?$MaybeLocal@VPromise@v8@@@2@V?$Local@VContext@v8@@@2@V?$Local@VFunction@v8@@@2@@Z=QQNT.original.dll.?Then@Promise@v8@@QEAA?AV?$MaybeLocal@VPromise@v8@@@2@V?$Local@VContext@v8@@@2@V?$Local@VFunction@v8@@@2@@Z
    ?ThrowError@Isolate@v8@@QEAA?AV?$Local@VValue@v8@@@2@V?$Local@VString@v8@@@2@@Z=QQNT.original.dll.?ThrowError@Isolate@v8@@QEAA?AV?$Local@VValue@v8@@@2@V?$Local@VString@v8@@@2@@Z
    ?ThrowException@Isolate@v8@@QEAA?AV?$Local@VValue@v8@@@2@V32@@Z=QQNT.original.dll.?ThrowException@Isolate@v8@@QEAA?AV?$Local@VValue@v8@@@2@V32@@Z
    ?ToArrayIndex@Value@v8@@QEBA?AV?$MaybeLocal@VUint32@v8@@@2@V?$Local@VContext@v8@@@2@@Z=QQNT.original.dll.?ToArrayIndex@Value@v8@@QEBA?AV?$MaybeLocal@VUint32@v8@@@2@V?$Local@VContext@v8@@@2@@Z
    ?ToBigInt@Value@v8@@QEBA?AV?$MaybeLocal@VBigInt@v8@@@2@V?$Local@VContext@v8@@@2@@Z=QQNT.original.dll.?ToBigInt@Value@v8@@QEBA?AV?$MaybeLocal@VBigInt@v8@@@2@V?$Local@VContext@v8@@@2@@Z
    ?ToBoolean@Value@v8@@QEBA?AV?$Local@VBoolean@v8@@@2@PEAVIsolate@2@@Z=QQNT.original.dll.?ToBoolean@Value@v8@@QEBA?AV?$Local@VBoolean@v8@@@2@PEAVIsolate@2@@Z
    ?ToDetailString@Value@v8@@QEBA?AV?$MaybeLocal@VString@v8@@@2@V?$Local@VContext@v8@@@2@@Z=QQNT.original.dll.?ToDetailString@Value@v8@@QEBA?AV?$MaybeLocal@VString@v8@@@2@V?$Local@VContext@v8@@@2@@Z
    ?ToISOString@Date@v8@@QEBA?AV?$Local@VString@v8@@@2@XZ=QQNT.original.dll.?ToISOString@Date@v8@@QEBA?AV?$Local@VString@v8@@@2@XZ
    ?ToInt32@Value@v8@@QEBA?AV?$MaybeLocal@VInt32@v8@@@2@V?$Local@VContext@v8@@@2@@Z=QQNT.original.dll.?ToInt32@Value@v8@@QEBA?AV?$MaybeLocal@VInt32@v8@@@2@V?$Local@VContext@v8@@@2@@Z
    ?ToInteger@Value@v8@@QEBA?AV?$MaybeLocal@VInteger@v8@@@2@V?$Local@VContext@v8@@@2@@Z=QQNT.original.dll.?ToInteger@Value@v8@@QEBA?AV?$MaybeLocal@VInteger@v8@@@2@V?$Local@VContext@v8@@@2@@Z
    ?ToLocalEmpty@api_internal@v8@@YAXXZ=QQNT.original.dll.?ToLocalEmpty@api_internal@v8@@YAXXZ
    ?ToNumber@Value@v8@@QEBA?AV?$MaybeLocal@VNumber@v8@@@2@V?$Local@VContext@v8@@@2@@Z=QQNT.original.dll.?ToNumber@Value@v8@@QEBA?AV?$MaybeLocal@VNumber@v8@@@2@V?$Local@VContext@v8@@@2@@Z
    ?ToNumeric@Value@v8@@QEBA?AV?$MaybeLocal@VNumeric@v8@@@2@V?$Local@VContext@v8@@@2@@Z=QQNT.original.dll.?ToNumeric@Value@v8@@QEBA?AV?$MaybeLocal@VNumeric@v8@@@2@V?$Local@VContext@v8@@@2@@Z
    ?ToObject@Value@v8@@QEBA?AV?$MaybeLocal@VObject@v8@@@2@V?$Local@VContext@v8@@@2@@Z=QQNT.original.dll.?ToObject@Value@v8@@QEBA?AV?$MaybeLocal@VObject@v8@@@2@V?$Local@VContext@v8@@@2@@Z
    ?ToPrimitive@Value@v8@@QEBA?AV?$MaybeLocal@VPrimitive@v8@@@2@V?$Local@VContext@v8@@@2@@Z=QQNT.original.dll.?ToPrimitive@Value@v8@@QEBA?AV?$MaybeLocal@VPrimitive@v8@@@2@V?$Local@VContext@v8@@@2@@Z
    ?ToString@SourceLocation@v8@@QEBA?AV?$basic_string@DU?$char_traits@D@__Cr@std@@V?$allocator@D@23@@__Cr@std@@XZ=QQNT.original.dll.?ToString@SourceLocation@v8@@QEBA?AV?$basic_string@DU?$char_traits@D@__Cr@std@@V?$allocator@D@23@@__Cr@std@@XZ
    ?ToString@V8StackTraceId@v8_inspector@@QEAA?AV?$unique_ptr@VStringBuffer@v8_inspector@@U?$default_delete@VStringBuffer@v8_inspector@@@__Cr@std@@@__Cr@std@@XZ=QQNT.original.dll.?ToString@V8StackTraceId@v8_inspector@@QEAA?AV?$unique_ptr@VStringBuffer@v8_inspector@@U?$default_delete@VStringBuffer@v8_inspector@@@__Cr@std@@@__Cr@std@@XZ
    ?ToString@Value@v8@@QEBA?AV?$MaybeLocal@VString@v8@@@2@V?$Local@VContext@v8@@@2@@Z=QQNT.original.dll.?ToString@Value@v8@@QEBA?AV?$MaybeLocal@VString@v8@@@2@V?$Local@VContext@v8@@@2@@Z
    ?ToUTCString@Date@v8@@QEBA?AV?$Local@VString@v8@@@2@XZ=QQNT.original.dll.?ToUTCString@Date@v8@@QEBA?AV?$Local@VString@v8@@@2@XZ
    ?ToUint32@Value@v8@@QEBA?AV?$MaybeLocal@VUint32@v8@@@2@V?$Local@VContext@v8@@@2@@Z=QQNT.original.dll.?ToUint32@Value@v8@@QEBA?AV?$MaybeLocal@VUint32@v8@@@2@V?$Local@VContext@v8@@@2@@Z
    ?ToWordsArray@BigInt@v8@@QEBAXPEAH0PEA_K@Z=QQNT.original.dll.?ToWordsArray@BigInt@v8@@QEBAXPEAH0PEA_K@Z
    ?ToggleMainThreadMarking@StandaloneTestingHeap@testing@cppgc@@QEAAX_N@Z=QQNT.original.dll.?ToggleMainThreadMarking@StandaloneTestingHeap@testing@cppgc@@QEAAX_N@Z
    ?TotalAllocatedObjectSize@ProcessHeapStatistics@cppgc@@SA_KXZ=QQNT.original.dll.?TotalAllocatedObjectSize@ProcessHeapStatistics@cppgc@@SA_KXZ
    ?TotalAllocatedSpace@ProcessHeapStatistics@cppgc@@SA_KXZ=QQNT.original.dll.?TotalAllocatedSpace@ProcessHeapStatistics@cppgc@@SA_KXZ
    ?TransferArrayBuffer@ValueDeserializer@v8@@QEAAXIV?$Local@VArrayBuffer@v8@@@2@@Z=QQNT.original.dll.?TransferArrayBuffer@ValueDeserializer@v8@@QEAAXIV?$Local@VArrayBuffer@v8@@@2@@Z
    ?TransferArrayBuffer@ValueSerializer@v8@@QEAAXIV?$Local@VArrayBuffer@v8@@@2@@Z=QQNT.original.dll.?TransferArrayBuffer@ValueSerializer@v8@@QEAAXIV?$Local@VArrayBuffer@v8@@@2@@Z
    ?TransferSharedArrayBuffer@ValueDeserializer@v8@@QEAAXIV?$Local@VSharedArrayBuffer@v8@@@2@@Z=QQNT.original.dll.?TransferSharedArrayBuffer@ValueDeserializer@v8@@QEAAXIV?$Local@VSharedArrayBuffer@v8@@@2@@Z
    ?TransitionDependencyOffTheRecord@CompilationDependencies@compiler@internal@v8@@QEBAPEBVCompilationDependency@234@VMapRef@234@@Z=QQNT.original.dll.?TransitionDependencyOffTheRecord@CompilationDependencies@compiler@internal@v8@@QEBAPEBVCompilationDependency@234@VMapRef@234@@Z
    ?TriggerNodeReport@node@@YA?AV?$basic_string@DU?$char_traits@D@__Cr@std@@V?$allocator@D@23@@__Cr@std@@PEAVEnvironment@1@PEBD1AEBV234@V?$Local@VValue@v8@@@v8@@@Z=QQNT.original.dll.?TriggerNodeReport@node@@YA?AV?$basic_string@DU?$char_traits@D@__Cr@std@@V?$allocator@D@23@@__Cr@std@@PEAVEnvironment@1@PEBD1AEBV234@V?$Local@VValue@v8@@@v8@@@Z
    ?TriggerNodeReport@node@@YA?AV?$basic_string@DU?$char_traits@D@__Cr@std@@V?$allocator@D@23@@__Cr@std@@PEAVIsolate@v8@@PEBD1AEBV234@V?$Local@VValue@v8@@@6@@Z=QQNT.original.dll.?TriggerNodeReport@node@@YA?AV?$basic_string@DU?$char_traits@D@__Cr@std@@V?$allocator@D@23@@__Cr@std@@PEAVIsolate@v8@@PEBD1AEBV234@V?$Local@VValue@v8@@@6@@Z
    ?TryAllocateNodeFromFreeList@PersistentRegionBase@internal@cppgc@@IEAAPEAVPersistentNode@23@PEAXP6AXAEAVRootVisitor@23@PEBX@Z@Z=QQNT.original.dll.?TryAllocateNodeFromFreeList@PersistentRegionBase@internal@cppgc@@IEAAPEAVPersistentNode@23@PEAXP6AXAEAVRootVisitor@23@PEBX@Z@Z
    ?TryGetCurrent@Isolate@v8@@SAPEAV12@XZ=QQNT.original.dll.?TryGetCurrent@Isolate@v8@@SAPEAV12@XZ
    ?TryHandleWebAssemblyTrapWindows@v8@@YA_NPEAU_EXCEPTION_POINTERS@@@Z=QQNT.original.dll.?TryHandleWebAssemblyTrapWindows@v8@@YA_NPEAU_EXCEPTION_POINTERS@@@Z
    ?TryLookupJitPage@ThreadIsolation@internal@v8@@CA?AV?$optional@VJitPageReference@ThreadIsolation@internal@v8@@@__Cr@std@@_K0@Z=QQNT.original.dll.?TryLookupJitPage@ThreadIsolation@internal@v8@@CA?AV?$optional@VJitPageReference@ThreadIsolation@internal@v8@@@__Cr@std@@_K0@Z
    ?TryLookupJitPageLocked@ThreadIsolation@internal@v8@@CA?AV?$optional@VJitPageReference@ThreadIsolation@internal@v8@@@__Cr@std@@_K0@Z=QQNT.original.dll.?TryLookupJitPageLocked@ThreadIsolation@internal@v8@@CA?AV?$optional@VJitPageReference@ThreadIsolation@internal@v8@@@__Cr@std@@_K0@Z
    ?TryResetRoot@EmbedderRootsHandler@v8@@UEAA_NAEBV?$TracedReference@VValue@v8@@@2@@Z=QQNT.original.dll.?TryResetRoot@EmbedderRootsHandler@v8@@UEAA_NAEBV?$TracedReference@VValue@v8@@@2@@Z
    ?TryUnwindV8Frames@Unwinder@v8@@SA_NAEBUJSEntryStubs@2@_KPEBUMemoryRange@2@PEAURegisterState@2@PEBX@Z=QQNT.original.dll.?TryUnwindV8Frames@Unwinder@v8@@SA_NAEBUJSEntryStubs@2@_KPEBUMemoryRange@2@PEAURegisterState@2@PEBX@Z
    ?TypeError@Exception@v8@@SA?AV?$Local@VValue@v8@@@2@V?$Local@VString@v8@@@2@V32@@Z=QQNT.original.dll.?TypeError@Exception@v8@@SA?AV?$Local@VValue@v8@@@2@V?$Local@VString@v8@@@2@V32@@Z
    ?TypeOf@Value@v8@@QEAA?AV?$Local@VString@v8@@@2@PEAVIsolate@2@@Z=QQNT.original.dll.?TypeOf@Value@v8@@QEAA?AV?$Local@VString@v8@@@2@PEAVIsolate@2@@Z
    ?UVException@node@@YA?AV?$Local@VValue@v8@@@v8@@PEAVIsolate@3@HPEBD111@Z=QQNT.original.dll.?UVException@node@@YA?AV?$Local@VValue@v8@@@v8@@PEAVIsolate@3@HPEBD111@Z
    ?Uint32Value@Value@v8@@QEBA?AV?$Maybe@I@2@V?$Local@VContext@v8@@@2@@Z=QQNT.original.dll.?Uint32Value@Value@v8@@QEBA?AV?$Maybe@I@2@V?$Local@VContext@v8@@@2@@Z
    ?Uint64Value@BigInt@v8@@QEBA_KPEA_N@Z=QQNT.original.dll.?Uint64Value@BigInt@v8@@QEBA_KPEA_N@Z
    ?Unaccount@ExternalStringResourceBase@String@v8@@UEAAXPEAVIsolate@3@@Z=QQNT.original.dll.?Unaccount@ExternalStringResourceBase@String@v8@@UEAAXPEAVIsolate@3@@Z
    ?Unlock@ExternalStringResourceBase@String@v8@@MEBAXXZ=QQNT.original.dll.?Unlock@ExternalStringResourceBase@String@v8@@MEBAXXZ
    ?Unpack@WasmStreaming@v8@@SA?AV?$shared_ptr@VWasmStreaming@v8@@@__Cr@std@@PEAVIsolate@2@V?$Local@VValue@v8@@@2@@Z=QQNT.original.dll.?Unpack@WasmStreaming@v8@@SA?AV?$shared_ptr@VWasmStreaming@v8@@@__Cr@std@@PEAVIsolate@2@V?$Local@VValue@v8@@@2@@Z
    ?UnregisterAllocation@JitPageReference@ThreadIsolation@internal@v8@@QEAAX_K@Z=QQNT.original.dll.?UnregisterAllocation@JitPageReference@ThreadIsolation@internal@v8@@QEAAX_K@Z
    ?UnregisterAllocationsExcept@JitPageReference@ThreadIsolation@internal@v8@@QEAAX_K0AEBV?$vector@_KV?$allocator@_K@__Cr@std@@@__Cr@std@@@Z=QQNT.original.dll.?UnregisterAllocationsExcept@JitPageReference@ThreadIsolation@internal@v8@@QEAAX_K0AEBV?$vector@_KV?$allocator@_K@__Cr@std@@@__Cr@std@@@Z
    ?UnregisterJitAllocationForTesting@ThreadIsolation@internal@v8@@SAX_K0@Z=QQNT.original.dll.?UnregisterJitAllocationForTesting@ThreadIsolation@internal@v8@@SAX_K0@Z
    ?UnregisterJitPage@ThreadIsolation@internal@v8@@SAX_K0@Z=QQNT.original.dll.?UnregisterJitPage@ThreadIsolation@internal@v8@@SAX_K0@Z
    ?UnregisterRange@JitPageReference@ThreadIsolation@internal@v8@@QEAAX_K0@Z=QQNT.original.dll.?UnregisterRange@JitPageReference@ThreadIsolation@internal@v8@@QEAAX_K0@Z
    ?UnregisterWasmAllocation@ThreadIsolation@internal@v8@@SAX_K0@Z=QQNT.original.dll.?UnregisterWasmAllocation@ThreadIsolation@internal@v8@@SAX_K0@Z
    ?Unwrap@Object@v8@@CAPEAXPEAVIsolate@2@_KUCppHeapPointerTagRange@2@@Z=QQNT.original.dll.?Unwrap@Object@v8@@CAPEAXPEAVIsolate@2@_KUCppHeapPointerTagRange@2@@Z
    ?Update@TypecheckWitness@v8@@QEAAXV?$Local@VValue@v8@@@2@@Z=QQNT.original.dll.?Update@TypecheckWitness@v8@@QEAAXV?$Local@VValue@v8@@@2@@Z
    ?UpdateDataCache@ExternalOneByteStringResource@String@v8@@QEAAXXZ=QQNT.original.dll.?UpdateDataCache@ExternalOneByteStringResource@String@v8@@QEAAXXZ
    ?UpdateDataCache@ExternalStringResource@String@v8@@QEAAXXZ=QQNT.original.dll.?UpdateDataCache@ExternalStringResource@String@v8@@QEAAXXZ
    ?UpdateLoadStartTime@Isolate@v8@@QEAAXXZ=QQNT.original.dll.?UpdateLoadStartTime@Isolate@v8@@QEAAXXZ
    ?UseDefaultSecurityToken@Context@v8@@QEAAXXZ=QQNT.original.dll.?UseDefaultSecurityToken@Context@v8@@QEAAXXZ
    ?UseDetailedSourcePositionsForProfiling@CpuProfiler@v8@@SAXPEAVIsolate@2@@Z=QQNT.original.dll.?UseDetailedSourcePositionsForProfiling@CpuProfiler@v8@@SAXPEAVIsolate@2@@Z
    ?Utf8Length@String@v8@@QEBAHPEAVIsolate@2@@Z=QQNT.original.dll.?Utf8Length@String@v8@@QEBAHPEAVIsolate@2@@Z
    ?V8Node@EmbedderGraph@v8@@UEAAPEAVNode@12@AEBV?$Local@VData@v8@@@2@@Z=QQNT.original.dll.?V8Node@EmbedderGraph@v8@@UEAAPEAVNode@12@AEBV?$Local@VData@v8@@@2@@Z
    ?ValidateIndex@FastApiTypedArrayBase@v8@@QEBAX_K@Z=QQNT.original.dll.?ValidateIndex@FastApiTypedArrayBase@v8@@QEBAX_K@Z
    ?Value@Boolean@v8@@QEBA_NXZ=QQNT.original.dll.?Value@Boolean@v8@@QEBA_NXZ
    ?Value@External@v8@@QEBAPEAXXZ=QQNT.original.dll.?Value@External@v8@@QEBAPEAXXZ
    ?Value@Int32@v8@@QEBAHXZ=QQNT.original.dll.?Value@Int32@v8@@QEBAHXZ
    ?Value@Integer@v8@@QEBA_JXZ=QQNT.original.dll.?Value@Integer@v8@@QEBA_JXZ
    ?Value@Number@v8@@QEBANXZ=QQNT.original.dll.?Value@Number@v8@@QEBANXZ
    ?Value@Uint32@v8@@QEBAIXZ=QQNT.original.dll.?Value@Uint32@v8@@QEBAIXZ
    ?ValueOf@BigIntObject@v8@@QEBA?AV?$Local@VBigInt@v8@@@2@XZ=QQNT.original.dll.?ValueOf@BigIntObject@v8@@QEBA?AV?$Local@VBigInt@v8@@@2@XZ
    ?ValueOf@BooleanObject@v8@@QEBA_NXZ=QQNT.original.dll.?ValueOf@BooleanObject@v8@@QEBA_NXZ
    ?ValueOf@Date@v8@@QEBANXZ=QQNT.original.dll.?ValueOf@Date@v8@@QEBANXZ
    ?ValueOf@NumberObject@v8@@QEBANXZ=QQNT.original.dll.?ValueOf@NumberObject@v8@@QEBANXZ
    ?ValueOf@StringObject@v8@@QEBA?AV?$Local@VString@v8@@@2@XZ=QQNT.original.dll.?ValueOf@StringObject@v8@@QEBA?AV?$Local@VString@v8@@@2@XZ
    ?ValueOf@SymbolObject@v8@@QEBA?AV?$Local@VSymbol@v8@@@2@XZ=QQNT.original.dll.?ValueOf@SymbolObject@v8@@QEBA?AV?$Local@VSymbol@v8@@@2@XZ
    ?VerifyExternalStringResource@String@v8@@AEBAXPEAVExternalStringResource@12@@Z=QQNT.original.dll.?VerifyExternalStringResource@String@v8@@AEBAXPEAVExternalStringResource@12@@Z
    ?VerifyExternalStringResourceBase@String@v8@@AEBAXPEAVExternalStringResourceBase@12@W4Encoding@12@@Z=QQNT.original.dll.?VerifyExternalStringResourceBase@String@v8@@AEBAXPEAVExternalStringResourceBase@12@W4Encoding@12@@Z
    ?VerifyHandleIsNonEmpty@internal@v8@@YAX_N@Z=QQNT.original.dll.?VerifyHandleIsNonEmpty@internal@v8@@YAX_N@Z
    ?VerifyHostDefinedOptions@ScriptOrigin@v8@@AEBAXXZ=QQNT.original.dll.?VerifyHostDefinedOptions@ScriptOrigin@v8@@AEBAXXZ
    ?VerifyOnStack@?$StackAllocated@$00@api_internal@v8@@IEBAXXZ=QQNT.original.dll.?VerifyOnStack@?$StackAllocated@$00@api_internal@v8@@IEBAXXZ
    ?Visit@Visitor@cppgc@@MEAAXPEBXUTraceDescriptor@2@@Z=QQNT.original.dll.?Visit@Visitor@cppgc@@MEAAXPEBXUTraceDescriptor@2@@Z
    ?VisitEphemeron@Visitor@cppgc@@MEAAXPEBX0UTraceDescriptor@2@@Z=QQNT.original.dll.?VisitEphemeron@Visitor@cppgc@@MEAAXPEBX0UTraceDescriptor@2@@Z
    ?VisitExternalResources@Isolate@v8@@QEAAXPEAVExternalResourceVisitor@2@@Z=QQNT.original.dll.?VisitExternalResources@Isolate@v8@@QEAAXPEAVExternalResourceVisitor@2@@Z
    ?VisitExternalString@ExternalResourceVisitor@v8@@UEAAXV?$Local@VString@v8@@@2@@Z=QQNT.original.dll.?VisitExternalString@ExternalResourceVisitor@v8@@UEAAXV?$Local@VString@v8@@@2@@Z
    ?VisitMultipleCompressedMember@Visitor@cppgc@@MEAAXPEBX_KP6A?AUTraceDescriptor@2@0@Z@Z=QQNT.original.dll.?VisitMultipleCompressedMember@Visitor@cppgc@@MEAAXPEBX_KP6A?AUTraceDescriptor@2@0@Z@Z
    ?VisitMultipleUncompressedMember@Visitor@cppgc@@MEAAXPEBX_KP6A?AUTraceDescriptor@2@0@Z@Z=QQNT.original.dll.?VisitMultipleUncompressedMember@Visitor@cppgc@@MEAAXPEBX_KP6A?AUTraceDescriptor@2@0@Z@Z
    ?VisitPersistentHandle@PersistentHandleVisitor@v8@@UEAAXPEAV?$Persistent@VValue@v8@@V?$NonCopyablePersistentTraits@VValue@v8@@@2@@2@G@Z=QQNT.original.dll.?VisitPersistentHandle@PersistentHandleVisitor@v8@@UEAAXPEAV?$Persistent@VValue@v8@@V?$NonCopyablePersistentTraits@VValue@v8@@@2@@2@G@Z
    ?VisitRoot@RootVisitor@internal@cppgc@@MEAAXPEBXUTraceDescriptor@3@AEBVSourceLocation@v8@@@Z=QQNT.original.dll.?VisitRoot@RootVisitor@internal@cppgc@@MEAAXPEBXUTraceDescriptor@3@AEBVSourceLocation@v8@@@Z
    ?VisitWeak@Visitor@cppgc@@MEAAXPEBXUTraceDescriptor@2@P6AXAEBVLivenessBroker@2@0@Z0@Z=QQNT.original.dll.?VisitWeak@Visitor@cppgc@@MEAAXPEBXUTraceDescriptor@2@P6AXAEBVLivenessBroker@2@0@Z0@Z
    ?VisitWeakContainer@Visitor@cppgc@@MEAAXPEBXUTraceDescriptor@2@1P6AXAEBVLivenessBroker@2@0@Z0@Z=QQNT.original.dll.?VisitWeakContainer@Visitor@cppgc@@MEAAXPEBXUTraceDescriptor@2@1P6AXAEBVLivenessBroker@2@0@Z0@Z
    ?VisitWeakRoot@RootVisitor@internal@cppgc@@MEAAXPEBXUTraceDescriptor@3@P6AXAEBVLivenessBroker@3@0@Z0AEBVSourceLocation@v8@@@Z=QQNT.original.dll.?VisitWeakRoot@RootVisitor@internal@cppgc@@MEAAXPEBXUTraceDescriptor@3@P6AXAEBVLivenessBroker@3@0@Z0AEBVSourceLocation@v8@@@Z
    ?Wake@AtomicsWaitWakeHandle@Isolate@v8@@QEAAXXZ=QQNT.original.dll.?Wake@AtomicsWaitWakeHandle@Isolate@v8@@QEAAXXZ
    ?WasDetached@ArrayBuffer@v8@@QEBA_NXZ=QQNT.original.dll.?WasDetached@ArrayBuffer@v8@@QEBA_NXZ
    ?WasmCompileError@Exception@v8@@SA?AV?$Local@VValue@v8@@@2@V?$Local@VString@v8@@@2@V32@@Z=QQNT.original.dll.?WasmCompileError@Exception@v8@@SA?AV?$Local@VValue@v8@@@2@V?$Local@VString@v8@@@2@V32@@Z
    ?WasmLinkError@Exception@v8@@SA?AV?$Local@VValue@v8@@@2@V?$Local@VString@v8@@@2@V32@@Z=QQNT.original.dll.?WasmLinkError@Exception@v8@@SA?AV?$Local@VValue@v8@@@2@V?$Local@VString@v8@@@2@V32@@Z
    ?WasmRuntimeError@Exception@v8@@SA?AV?$Local@VValue@v8@@@2@V?$Local@VString@v8@@@2@V32@@Z=QQNT.original.dll.?WasmRuntimeError@Exception@v8@@SA?AV?$Local@VValue@v8@@@2@V?$Local@VString@v8@@@2@V32@@Z
    ?WinapiErrnoException@node@@YA?AV?$Local@VValue@v8@@@v8@@PEAVIsolate@3@HPEBD11@Z=QQNT.original.dll.?WinapiErrnoException@node@@YA?AV?$Local@VValue@v8@@@v8@@PEAVIsolate@3@HPEBD11@Z
    ?WordCount@BigInt@v8@@QEBAHXZ=QQNT.original.dll.?WordCount@BigInt@v8@@QEBAHXZ
    ?Wrap@Object@v8@@CAXPEAVIsolate@2@_KW4CppHeapPointerTag@2@PEAX@Z=QQNT.original.dll.?Wrap@Object@v8@@CAXPEAVIsolate@2@_KW4CppHeapPointerTag@2@PEAX@Z
    ?Wrap@Object@v8@@SAXPEAVIsolate@2@AEBV?$BasicTracedReference@VObject@v8@@@2@PEAXW4CppHeapPointerTag@2@@Z=QQNT.original.dll.?Wrap@Object@v8@@SAXPEAVIsolate@2@AEBV?$BasicTracedReference@VObject@v8@@@2@PEAXW4CppHeapPointerTag@2@@Z
    ?Wrap@Object@v8@@SAXPEAVIsolate@2@AEBV?$Local@VObject@v8@@@2@PEAXW4CppHeapPointerTag@2@@Z=QQNT.original.dll.?Wrap@Object@v8@@SAXPEAVIsolate@2@AEBV?$Local@VObject@v8@@@2@PEAXW4CppHeapPointerTag@2@@Z
    ?Wrap@Object@v8@@SAXPEAVIsolate@2@AEBV?$PersistentBase@VObject@v8@@@2@PEAXW4CppHeapPointerTag@2@@Z=QQNT.original.dll.?Wrap@Object@v8@@SAXPEAVIsolate@2@AEBV?$PersistentBase@VObject@v8@@@2@PEAXW4CppHeapPointerTag@2@@Z
    ?Write@String@v8@@QEBAHPEAVIsolate@2@PEAGHHH@Z=QQNT.original.dll.?Write@String@v8@@QEBAHPEAVIsolate@2@PEAGHHH@Z
    ?WriteDouble@ValueSerializer@v8@@QEAAXN@Z=QQNT.original.dll.?WriteDouble@ValueSerializer@v8@@QEAAXN@Z
    ?WriteHeader@ValueSerializer@v8@@QEAAXXZ=QQNT.original.dll.?WriteHeader@ValueSerializer@v8@@QEAAXXZ
    ?WriteHeapStatsChunk@OutputStream@v8@@UEAA?AW4WriteResult@12@PEAUHeapStatsUpdate@2@H@Z=QQNT.original.dll.?WriteHeapStatsChunk@OutputStream@v8@@UEAA?AW4WriteResult@12@PEAUHeapStatsUpdate@2@H@Z
    ?WriteHostObject@Delegate@ValueSerializer@v8@@UEAA?AV?$Maybe@_N@3@PEAVIsolate@3@V?$Local@VObject@v8@@@3@@Z=QQNT.original.dll.?WriteHostObject@Delegate@ValueSerializer@v8@@UEAA?AV?$Maybe@_N@3@PEAVIsolate@3@V?$Local@VObject@v8@@@3@@Z
    ?WriteOneByte@String@v8@@QEBAHPEAVIsolate@2@PEAEHHH@Z=QQNT.original.dll.?WriteOneByte@String@v8@@QEBAHPEAVIsolate@2@PEAEHHH@Z
    ?WriteProtectMemory@ThreadIsolation@internal@v8@@SA_N_K0W4Permission@PageAllocator@3@@Z=QQNT.original.dll.?WriteProtectMemory@ThreadIsolation@internal@v8@@SA_N_K0W4Permission@PageAllocator@3@@Z
    ?WriteRawBytes@ValueSerializer@v8@@QEAAXPEBX_K@Z=QQNT.original.dll.?WriteRawBytes@ValueSerializer@v8@@QEAAXPEBX_K@Z
    ?WriteUint32@ValueSerializer@v8@@QEAAXI@Z=QQNT.original.dll.?WriteUint32@ValueSerializer@v8@@QEAAXI@Z
    ?WriteUint64@ValueSerializer@v8@@QEAAX_K@Z=QQNT.original.dll.?WriteUint64@ValueSerializer@v8@@QEAAX_K@Z
    ?WriteUtf8@String@v8@@QEBAHPEAVIsolate@2@PEADHPEAHH@Z=QQNT.original.dll.?WriteUtf8@String@v8@@QEBAHPEAVIsolate@2@PEADHPEAHH@Z
    ?WriteValue@ValueSerializer@v8@@QEAA?AV?$Maybe@_N@2@V?$Local@VContext@v8@@@2@V?$Local@VValue@v8@@@2@@Z=QQNT.original.dll.?WriteValue@ValueSerializer@v8@@QEAA?AV?$Maybe@_N@2@V?$Local@VContext@v8@@@2@V?$Local@VValue@v8@@@2@@Z
    ?XHR@ReasonEnum@Paused@API@Debugger@protocol@v8_inspector@@3PEBDEB=QQNT.original.dll.?XHR@ReasonEnum@Paused@API@Debugger@protocol@v8_inspector@@3PEBDEB
    ?__alloc@?$vector@UCpuProfileDeoptFrame@v8@@V?$allocator@UCpuProfileDeoptFrame@v8@@@__Cr@std@@@__Cr@std@@AEAAAEAV?$allocator@UCpuProfileDeoptFrame@v8@@@23@XZ=QQNT.original.dll.?__alloc@?$vector@UCpuProfileDeoptFrame@v8@@V?$allocator@UCpuProfileDeoptFrame@v8@@@__Cr@std@@@__Cr@std@@AEAAAEAV?$allocator@UCpuProfileDeoptFrame@v8@@@23@XZ
    ?__alloc@?$vector@UCpuProfileDeoptFrame@v8@@V?$allocator@UCpuProfileDeoptFrame@v8@@@__Cr@std@@@__Cr@std@@AEBAAEBV?$allocator@UCpuProfileDeoptFrame@v8@@@23@XZ=QQNT.original.dll.?__alloc@?$vector@UCpuProfileDeoptFrame@v8@@V?$allocator@UCpuProfileDeoptFrame@v8@@@__Cr@std@@@__Cr@std@@AEBAAEBV?$allocator@UCpuProfileDeoptFrame@v8@@@23@XZ
    ?__alloc@?$vector@UCpuProfileDeoptInfo@v8@@V?$allocator@UCpuProfileDeoptInfo@v8@@@__Cr@std@@@__Cr@std@@AEAAAEAV?$allocator@UCpuProfileDeoptInfo@v8@@@23@XZ=QQNT.original.dll.?__alloc@?$vector@UCpuProfileDeoptInfo@v8@@V?$allocator@UCpuProfileDeoptInfo@v8@@@__Cr@std@@@__Cr@std@@AEAAAEAV?$allocator@UCpuProfileDeoptInfo@v8@@@23@XZ
    ?__alloc@?$vector@UCpuProfileDeoptInfo@v8@@V?$allocator@UCpuProfileDeoptInfo@v8@@@__Cr@std@@@__Cr@std@@AEBAAEBV?$allocator@UCpuProfileDeoptInfo@v8@@@23@XZ=QQNT.original.dll.?__alloc@?$vector@UCpuProfileDeoptInfo@v8@@V?$allocator@UCpuProfileDeoptInfo@v8@@@__Cr@std@@@__Cr@std@@AEBAAEBV?$allocator@UCpuProfileDeoptInfo@v8@@@23@XZ
    ?__annotate_contiguous_container@?$vector@UCpuProfileDeoptFrame@v8@@V?$allocator@UCpuProfileDeoptFrame@v8@@@__Cr@std@@@__Cr@std@@AEBAXPEBX0@Z=QQNT.original.dll.?__annotate_contiguous_container@?$vector@UCpuProfileDeoptFrame@v8@@V?$allocator@UCpuProfileDeoptFrame@v8@@@__Cr@std@@@__Cr@std@@AEBAXPEBX0@Z
    ?__annotate_contiguous_container@?$vector@UCpuProfileDeoptInfo@v8@@V?$allocator@UCpuProfileDeoptInfo@v8@@@__Cr@std@@@__Cr@std@@AEBAXPEBX0@Z=QQNT.original.dll.?__annotate_contiguous_container@?$vector@UCpuProfileDeoptInfo@v8@@V?$allocator@UCpuProfileDeoptInfo@v8@@@__Cr@std@@@__Cr@std@@AEBAXPEBX0@Z
    ?__annotate_delete@?$vector@UCpuProfileDeoptFrame@v8@@V?$allocator@UCpuProfileDeoptFrame@v8@@@__Cr@std@@@__Cr@std@@AEBAXXZ=QQNT.original.dll.?__annotate_delete@?$vector@UCpuProfileDeoptFrame@v8@@V?$allocator@UCpuProfileDeoptFrame@v8@@@__Cr@std@@@__Cr@std@@AEBAXXZ
    ?__annotate_delete@?$vector@UCpuProfileDeoptInfo@v8@@V?$allocator@UCpuProfileDeoptInfo@v8@@@__Cr@std@@@__Cr@std@@AEBAXXZ=QQNT.original.dll.?__annotate_delete@?$vector@UCpuProfileDeoptInfo@v8@@V?$allocator@UCpuProfileDeoptInfo@v8@@@__Cr@std@@@__Cr@std@@AEBAXXZ
    ?__annotate_increase@?$vector@UCpuProfileDeoptFrame@v8@@V?$allocator@UCpuProfileDeoptFrame@v8@@@__Cr@std@@@__Cr@std@@AEBAX_K@Z=QQNT.original.dll.?__annotate_increase@?$vector@UCpuProfileDeoptFrame@v8@@V?$allocator@UCpuProfileDeoptFrame@v8@@@__Cr@std@@@__Cr@std@@AEBAX_K@Z
    ?__annotate_increase@?$vector@UCpuProfileDeoptInfo@v8@@V?$allocator@UCpuProfileDeoptInfo@v8@@@__Cr@std@@@__Cr@std@@AEBAX_K@Z=QQNT.original.dll.?__annotate_increase@?$vector@UCpuProfileDeoptInfo@v8@@V?$allocator@UCpuProfileDeoptInfo@v8@@@__Cr@std@@@__Cr@std@@AEBAX_K@Z
    ?__annotate_new@?$vector@UCpuProfileDeoptFrame@v8@@V?$allocator@UCpuProfileDeoptFrame@v8@@@__Cr@std@@@__Cr@std@@AEBAX_K@Z=QQNT.original.dll.?__annotate_new@?$vector@UCpuProfileDeoptFrame@v8@@V?$allocator@UCpuProfileDeoptFrame@v8@@@__Cr@std@@@__Cr@std@@AEBAX_K@Z
    ?__annotate_new@?$vector@UCpuProfileDeoptInfo@v8@@V?$allocator@UCpuProfileDeoptInfo@v8@@@__Cr@std@@@__Cr@std@@AEBAX_K@Z=QQNT.original.dll.?__annotate_new@?$vector@UCpuProfileDeoptInfo@v8@@V?$allocator@UCpuProfileDeoptInfo@v8@@@__Cr@std@@@__Cr@std@@AEBAX_K@Z
    ?__annotate_shrink@?$vector@UCpuProfileDeoptFrame@v8@@V?$allocator@UCpuProfileDeoptFrame@v8@@@__Cr@std@@@__Cr@std@@AEBAX_K@Z=QQNT.original.dll.?__annotate_shrink@?$vector@UCpuProfileDeoptFrame@v8@@V?$allocator@UCpuProfileDeoptFrame@v8@@@__Cr@std@@@__Cr@std@@AEBAX_K@Z
    ?__annotate_shrink@?$vector@UCpuProfileDeoptInfo@v8@@V?$allocator@UCpuProfileDeoptInfo@v8@@@__Cr@std@@@__Cr@std@@AEBAX_K@Z=QQNT.original.dll.?__annotate_shrink@?$vector@UCpuProfileDeoptInfo@v8@@V?$allocator@UCpuProfileDeoptInfo@v8@@@__Cr@std@@@__Cr@std@@AEBAX_K@Z
    ?__append@?$vector@UCpuProfileDeoptFrame@v8@@V?$allocator@UCpuProfileDeoptFrame@v8@@@__Cr@std@@@__Cr@std@@AEAAX_K@Z=QQNT.original.dll.?__append@?$vector@UCpuProfileDeoptFrame@v8@@V?$allocator@UCpuProfileDeoptFrame@v8@@@__Cr@std@@@__Cr@std@@AEAAX_K@Z
    ?__append@?$vector@UCpuProfileDeoptFrame@v8@@V?$allocator@UCpuProfileDeoptFrame@v8@@@__Cr@std@@@__Cr@std@@AEAAX_KAEBUCpuProfileDeoptFrame@v8@@@Z=QQNT.original.dll.?__append@?$vector@UCpuProfileDeoptFrame@v8@@V?$allocator@UCpuProfileDeoptFrame@v8@@@__Cr@std@@@__Cr@std@@AEAAX_KAEBUCpuProfileDeoptFrame@v8@@@Z
    ?__append@?$vector@UCpuProfileDeoptInfo@v8@@V?$allocator@UCpuProfileDeoptInfo@v8@@@__Cr@std@@@__Cr@std@@AEAAX_K@Z=QQNT.original.dll.?__append@?$vector@UCpuProfileDeoptInfo@v8@@V?$allocator@UCpuProfileDeoptInfo@v8@@@__Cr@std@@@__Cr@std@@AEAAX_K@Z
    ?__append@?$vector@UCpuProfileDeoptInfo@v8@@V?$allocator@UCpuProfileDeoptInfo@v8@@@__Cr@std@@@__Cr@std@@AEAAX_KAEBUCpuProfileDeoptInfo@v8@@@Z=QQNT.original.dll.?__append@?$vector@UCpuProfileDeoptInfo@v8@@V?$allocator@UCpuProfileDeoptInfo@v8@@@__Cr@std@@@__Cr@std@@AEAAX_KAEBUCpuProfileDeoptInfo@v8@@@Z
    ?__base_destruct_at_end@?$vector@UCpuProfileDeoptFrame@v8@@V?$allocator@UCpuProfileDeoptFrame@v8@@@__Cr@std@@@__Cr@std@@AEAAXPEAUCpuProfileDeoptFrame@v8@@@Z=QQNT.original.dll.?__base_destruct_at_end@?$vector@UCpuProfileDeoptFrame@v8@@V?$allocator@UCpuProfileDeoptFrame@v8@@@__Cr@std@@@__Cr@std@@AEAAXPEAUCpuProfileDeoptFrame@v8@@@Z
    ?__base_destruct_at_end@?$vector@UCpuProfileDeoptInfo@v8@@V?$allocator@UCpuProfileDeoptInfo@v8@@@__Cr@std@@@__Cr@std@@AEAAXPEAUCpuProfileDeoptInfo@v8@@@Z=QQNT.original.dll.?__base_destruct_at_end@?$vector@UCpuProfileDeoptInfo@v8@@V?$allocator@UCpuProfileDeoptInfo@v8@@@__Cr@std@@@__Cr@std@@AEAAXPEAUCpuProfileDeoptInfo@v8@@@Z
    ?__clear@?$vector@UCpuProfileDeoptFrame@v8@@V?$allocator@UCpuProfileDeoptFrame@v8@@@__Cr@std@@@__Cr@std@@AEAAXXZ=QQNT.original.dll.?__clear@?$vector@UCpuProfileDeoptFrame@v8@@V?$allocator@UCpuProfileDeoptFrame@v8@@@__Cr@std@@@__Cr@std@@AEAAXXZ
    ?__clear@?$vector@UCpuProfileDeoptInfo@v8@@V?$allocator@UCpuProfileDeoptInfo@v8@@@__Cr@std@@@__Cr@std@@AEAAXXZ=QQNT.original.dll.?__clear@?$vector@UCpuProfileDeoptInfo@v8@@V?$allocator@UCpuProfileDeoptInfo@v8@@@__Cr@std@@@__Cr@std@@AEAAXXZ
    ?__construct_at_end@?$vector@UCpuProfileDeoptFrame@v8@@V?$allocator@UCpuProfileDeoptFrame@v8@@@__Cr@std@@@__Cr@std@@AEAAX_K@Z=QQNT.original.dll.?__construct_at_end@?$vector@UCpuProfileDeoptFrame@v8@@V?$allocator@UCpuProfileDeoptFrame@v8@@@__Cr@std@@@__Cr@std@@AEAAX_K@Z
    ?__construct_at_end@?$vector@UCpuProfileDeoptFrame@v8@@V?$allocator@UCpuProfileDeoptFrame@v8@@@__Cr@std@@@__Cr@std@@AEAAX_KAEBUCpuProfileDeoptFrame@v8@@@Z=QQNT.original.dll.?__construct_at_end@?$vector@UCpuProfileDeoptFrame@v8@@V?$allocator@UCpuProfileDeoptFrame@v8@@@__Cr@std@@@__Cr@std@@AEAAX_KAEBUCpuProfileDeoptFrame@v8@@@Z
    ?__construct_at_end@?$vector@UCpuProfileDeoptInfo@v8@@V?$allocator@UCpuProfileDeoptInfo@v8@@@__Cr@std@@@__Cr@std@@AEAAX_K@Z=QQNT.original.dll.?__construct_at_end@?$vector@UCpuProfileDeoptInfo@v8@@V?$allocator@UCpuProfileDeoptInfo@v8@@@__Cr@std@@@__Cr@std@@AEAAX_K@Z
    ?__construct_at_end@?$vector@UCpuProfileDeoptInfo@v8@@V?$allocator@UCpuProfileDeoptInfo@v8@@@__Cr@std@@@__Cr@std@@AEAAX_KAEBUCpuProfileDeoptInfo@v8@@@Z=QQNT.original.dll.?__construct_at_end@?$vector@UCpuProfileDeoptInfo@v8@@V?$allocator@UCpuProfileDeoptInfo@v8@@@__Cr@std@@@__Cr@std@@AEAAX_KAEBUCpuProfileDeoptInfo@v8@@@Z
    ?__copy_assign_alloc@?$vector@UCpuProfileDeoptFrame@v8@@V?$allocator@UCpuProfileDeoptFrame@v8@@@__Cr@std@@@__Cr@std@@AEAAXAEBV123@@Z=QQNT.original.dll.?__copy_assign_alloc@?$vector@UCpuProfileDeoptFrame@v8@@V?$allocator@UCpuProfileDeoptFrame@v8@@@__Cr@std@@@__Cr@std@@AEAAXAEBV123@@Z
    ?__copy_assign_alloc@?$vector@UCpuProfileDeoptFrame@v8@@V?$allocator@UCpuProfileDeoptFrame@v8@@@__Cr@std@@@__Cr@std@@AEAAXAEBV123@U?$integral_constant@_N$00@23@@Z=QQNT.original.dll.?__copy_assign_alloc@?$vector@UCpuProfileDeoptFrame@v8@@V?$allocator@UCpuProfileDeoptFrame@v8@@@__Cr@std@@@__Cr@std@@AEAAXAEBV123@U?$integral_constant@_N$00@23@@Z
    ?__copy_assign_alloc@?$vector@UCpuProfileDeoptFrame@v8@@V?$allocator@UCpuProfileDeoptFrame@v8@@@__Cr@std@@@__Cr@std@@AEAAXAEBV123@U?$integral_constant@_N$0A@@23@@Z=QQNT.original.dll.?__copy_assign_alloc@?$vector@UCpuProfileDeoptFrame@v8@@V?$allocator@UCpuProfileDeoptFrame@v8@@@__Cr@std@@@__Cr@std@@AEAAXAEBV123@U?$integral_constant@_N$0A@@23@@Z
    ?__copy_assign_alloc@?$vector@UCpuProfileDeoptInfo@v8@@V?$allocator@UCpuProfileDeoptInfo@v8@@@__Cr@std@@@__Cr@std@@AEAAXAEBV123@@Z=QQNT.original.dll.?__copy_assign_alloc@?$vector@UCpuProfileDeoptInfo@v8@@V?$allocator@UCpuProfileDeoptInfo@v8@@@__Cr@std@@@__Cr@std@@AEAAXAEBV123@@Z
    ?__copy_assign_alloc@?$vector@UCpuProfileDeoptInfo@v8@@V?$allocator@UCpuProfileDeoptInfo@v8@@@__Cr@std@@@__Cr@std@@AEAAXAEBV123@U?$integral_constant@_N$00@23@@Z=QQNT.original.dll.?__copy_assign_alloc@?$vector@UCpuProfileDeoptInfo@v8@@V?$allocator@UCpuProfileDeoptInfo@v8@@@__Cr@std@@@__Cr@std@@AEAAXAEBV123@U?$integral_constant@_N$00@23@@Z
    ?__copy_assign_alloc@?$vector@UCpuProfileDeoptInfo@v8@@V?$allocator@UCpuProfileDeoptInfo@v8@@@__Cr@std@@@__Cr@std@@AEAAXAEBV123@U?$integral_constant@_N$0A@@23@@Z=QQNT.original.dll.?__copy_assign_alloc@?$vector@UCpuProfileDeoptInfo@v8@@V?$allocator@UCpuProfileDeoptInfo@v8@@@__Cr@std@@@__Cr@std@@AEAAXAEBV123@U?$integral_constant@_N$0A@@23@@Z
    ?__destruct_at_end@?$vector@UCpuProfileDeoptFrame@v8@@V?$allocator@UCpuProfileDeoptFrame@v8@@@__Cr@std@@@__Cr@std@@AEAAXPEAUCpuProfileDeoptFrame@v8@@@Z=QQNT.original.dll.?__destruct_at_end@?$vector@UCpuProfileDeoptFrame@v8@@V?$allocator@UCpuProfileDeoptFrame@v8@@@__Cr@std@@@__Cr@std@@AEAAXPEAUCpuProfileDeoptFrame@v8@@@Z
    ?__destruct_at_end@?$vector@UCpuProfileDeoptInfo@v8@@V?$allocator@UCpuProfileDeoptInfo@v8@@@__Cr@std@@@__Cr@std@@AEAAXPEAUCpuProfileDeoptInfo@v8@@@Z=QQNT.original.dll.?__destruct_at_end@?$vector@UCpuProfileDeoptInfo@v8@@V?$allocator@UCpuProfileDeoptInfo@v8@@@__Cr@std@@@__Cr@std@@AEAAXPEAUCpuProfileDeoptInfo@v8@@@Z
    ?__end_cap@?$vector@UCpuProfileDeoptFrame@v8@@V?$allocator@UCpuProfileDeoptFrame@v8@@@__Cr@std@@@__Cr@std@@AEAAAEAPEAUCpuProfileDeoptFrame@v8@@XZ=QQNT.original.dll.?__end_cap@?$vector@UCpuProfileDeoptFrame@v8@@V?$allocator@UCpuProfileDeoptFrame@v8@@@__Cr@std@@@__Cr@std@@AEAAAEAPEAUCpuProfileDeoptFrame@v8@@XZ
    ?__end_cap@?$vector@UCpuProfileDeoptFrame@v8@@V?$allocator@UCpuProfileDeoptFrame@v8@@@__Cr@std@@@__Cr@std@@AEBAAEBQEAUCpuProfileDeoptFrame@v8@@XZ=QQNT.original.dll.?__end_cap@?$vector@UCpuProfileDeoptFrame@v8@@V?$allocator@UCpuProfileDeoptFrame@v8@@@__Cr@std@@@__Cr@std@@AEBAAEBQEAUCpuProfileDeoptFrame@v8@@XZ
    ?__end_cap@?$vector@UCpuProfileDeoptInfo@v8@@V?$allocator@UCpuProfileDeoptInfo@v8@@@__Cr@std@@@__Cr@std@@AEAAAEAPEAUCpuProfileDeoptInfo@v8@@XZ=QQNT.original.dll.?__end_cap@?$vector@UCpuProfileDeoptInfo@v8@@V?$allocator@UCpuProfileDeoptInfo@v8@@@__Cr@std@@@__Cr@std@@AEAAAEAPEAUCpuProfileDeoptInfo@v8@@XZ
    ?__end_cap@?$vector@UCpuProfileDeoptInfo@v8@@V?$allocator@UCpuProfileDeoptInfo@v8@@@__Cr@std@@@__Cr@std@@AEBAAEBQEAUCpuProfileDeoptInfo@v8@@XZ=QQNT.original.dll.?__end_cap@?$vector@UCpuProfileDeoptInfo@v8@@V?$allocator@UCpuProfileDeoptInfo@v8@@@__Cr@std@@@__Cr@std@@AEBAAEBQEAUCpuProfileDeoptInfo@v8@@XZ
    ?__invariants@?$vector@UCpuProfileDeoptFrame@v8@@V?$allocator@UCpuProfileDeoptFrame@v8@@@__Cr@std@@@__Cr@std@@QEBA_NXZ=QQNT.original.dll.?__invariants@?$vector@UCpuProfileDeoptFrame@v8@@V?$allocator@UCpuProfileDeoptFrame@v8@@@__Cr@std@@@__Cr@std@@QEBA_NXZ
    ?__invariants@?$vector@UCpuProfileDeoptInfo@v8@@V?$allocator@UCpuProfileDeoptInfo@v8@@@__Cr@std@@@__Cr@std@@QEBA_NXZ=QQNT.original.dll.?__invariants@?$vector@UCpuProfileDeoptInfo@v8@@V?$allocator@UCpuProfileDeoptInfo@v8@@@__Cr@std@@@__Cr@std@@QEBA_NXZ
    ?__make_iter@?$vector@UCpuProfileDeoptFrame@v8@@V?$allocator@UCpuProfileDeoptFrame@v8@@@__Cr@std@@@__Cr@std@@AEAA?AV?$__wrap_iter@PEAUCpuProfileDeoptFrame@v8@@@23@PEAUCpuProfileDeoptFrame@v8@@@Z=QQNT.original.dll.?__make_iter@?$vector@UCpuProfileDeoptFrame@v8@@V?$allocator@UCpuProfileDeoptFrame@v8@@@__Cr@std@@@__Cr@std@@AEAA?AV?$__wrap_iter@PEAUCpuProfileDeoptFrame@v8@@@23@PEAUCpuProfileDeoptFrame@v8@@@Z
    ?__make_iter@?$vector@UCpuProfileDeoptFrame@v8@@V?$allocator@UCpuProfileDeoptFrame@v8@@@__Cr@std@@@__Cr@std@@AEBA?AV?$__wrap_iter@PEBUCpuProfileDeoptFrame@v8@@@23@PEBUCpuProfileDeoptFrame@v8@@@Z=QQNT.original.dll.?__make_iter@?$vector@UCpuProfileDeoptFrame@v8@@V?$allocator@UCpuProfileDeoptFrame@v8@@@__Cr@std@@@__Cr@std@@AEBA?AV?$__wrap_iter@PEBUCpuProfileDeoptFrame@v8@@@23@PEBUCpuProfileDeoptFrame@v8@@@Z
    ?__make_iter@?$vector@UCpuProfileDeoptInfo@v8@@V?$allocator@UCpuProfileDeoptInfo@v8@@@__Cr@std@@@__Cr@std@@AEAA?AV?$__wrap_iter@PEAUCpuProfileDeoptInfo@v8@@@23@PEAUCpuProfileDeoptInfo@v8@@@Z=QQNT.original.dll.?__make_iter@?$vector@UCpuProfileDeoptInfo@v8@@V?$allocator@UCpuProfileDeoptInfo@v8@@@__Cr@std@@@__Cr@std@@AEAA?AV?$__wrap_iter@PEAUCpuProfileDeoptInfo@v8@@@23@PEAUCpuProfileDeoptInfo@v8@@@Z
    ?__make_iter@?$vector@UCpuProfileDeoptInfo@v8@@V?$allocator@UCpuProfileDeoptInfo@v8@@@__Cr@std@@@__Cr@std@@AEBA?AV?$__wrap_iter@PEBUCpuProfileDeoptInfo@v8@@@23@PEBUCpuProfileDeoptInfo@v8@@@Z=QQNT.original.dll.?__make_iter@?$vector@UCpuProfileDeoptInfo@v8@@V?$allocator@UCpuProfileDeoptInfo@v8@@@__Cr@std@@@__Cr@std@@AEBA?AV?$__wrap_iter@PEBUCpuProfileDeoptInfo@v8@@@23@PEBUCpuProfileDeoptInfo@v8@@@Z
    ?__move_assign@?$vector@UCpuProfileDeoptFrame@v8@@V?$allocator@UCpuProfileDeoptFrame@v8@@@__Cr@std@@@__Cr@std@@AEAAXAEAV123@U?$integral_constant@_N$00@23@@Z=QQNT.original.dll.?__move_assign@?$vector@UCpuProfileDeoptFrame@v8@@V?$allocator@UCpuProfileDeoptFrame@v8@@@__Cr@std@@@__Cr@std@@AEAAXAEAV123@U?$integral_constant@_N$00@23@@Z
    ?__move_assign@?$vector@UCpuProfileDeoptFrame@v8@@V?$allocator@UCpuProfileDeoptFrame@v8@@@__Cr@std@@@__Cr@std@@AEAAXAEAV123@U?$integral_constant@_N$0A@@23@@Z=QQNT.original.dll.?__move_assign@?$vector@UCpuProfileDeoptFrame@v8@@V?$allocator@UCpuProfileDeoptFrame@v8@@@__Cr@std@@@__Cr@std@@AEAAXAEAV123@U?$integral_constant@_N$0A@@23@@Z
    ?__move_assign@?$vector@UCpuProfileDeoptInfo@v8@@V?$allocator@UCpuProfileDeoptInfo@v8@@@__Cr@std@@@__Cr@std@@AEAAXAEAV123@U?$integral_constant@_N$00@23@@Z=QQNT.original.dll.?__move_assign@?$vector@UCpuProfileDeoptInfo@v8@@V?$allocator@UCpuProfileDeoptInfo@v8@@@__Cr@std@@@__Cr@std@@AEAAXAEAV123@U?$integral_constant@_N$00@23@@Z
    ?__move_assign@?$vector@UCpuProfileDeoptInfo@v8@@V?$allocator@UCpuProfileDeoptInfo@v8@@@__Cr@std@@@__Cr@std@@AEAAXAEAV123@U?$integral_constant@_N$0A@@23@@Z=QQNT.original.dll.?__move_assign@?$vector@UCpuProfileDeoptInfo@v8@@V?$allocator@UCpuProfileDeoptInfo@v8@@@__Cr@std@@@__Cr@std@@AEAAXAEAV123@U?$integral_constant@_N$0A@@23@@Z
    ?__move_assign_alloc@?$vector@UCpuProfileDeoptFrame@v8@@V?$allocator@UCpuProfileDeoptFrame@v8@@@__Cr@std@@@__Cr@std@@AEAAXAEAV123@@Z=QQNT.original.dll.?__move_assign_alloc@?$vector@UCpuProfileDeoptFrame@v8@@V?$allocator@UCpuProfileDeoptFrame@v8@@@__Cr@std@@@__Cr@std@@AEAAXAEAV123@@Z
    ?__move_assign_alloc@?$vector@UCpuProfileDeoptFrame@v8@@V?$allocator@UCpuProfileDeoptFrame@v8@@@__Cr@std@@@__Cr@std@@AEAAXAEAV123@U?$integral_constant@_N$00@23@@Z=QQNT.original.dll.?__move_assign_alloc@?$vector@UCpuProfileDeoptFrame@v8@@V?$allocator@UCpuProfileDeoptFrame@v8@@@__Cr@std@@@__Cr@std@@AEAAXAEAV123@U?$integral_constant@_N$00@23@@Z
    ?__move_assign_alloc@?$vector@UCpuProfileDeoptFrame@v8@@V?$allocator@UCpuProfileDeoptFrame@v8@@@__Cr@std@@@__Cr@std@@AEAAXAEAV123@U?$integral_constant@_N$0A@@23@@Z=QQNT.original.dll.?__move_assign_alloc@?$vector@UCpuProfileDeoptFrame@v8@@V?$allocator@UCpuProfileDeoptFrame@v8@@@__Cr@std@@@__Cr@std@@AEAAXAEAV123@U?$integral_constant@_N$0A@@23@@Z
    ?__move_assign_alloc@?$vector@UCpuProfileDeoptInfo@v8@@V?$allocator@UCpuProfileDeoptInfo@v8@@@__Cr@std@@@__Cr@std@@AEAAXAEAV123@@Z=QQNT.original.dll.?__move_assign_alloc@?$vector@UCpuProfileDeoptInfo@v8@@V?$allocator@UCpuProfileDeoptInfo@v8@@@__Cr@std@@@__Cr@std@@AEAAXAEAV123@@Z
    ?__move_assign_alloc@?$vector@UCpuProfileDeoptInfo@v8@@V?$allocator@UCpuProfileDeoptInfo@v8@@@__Cr@std@@@__Cr@std@@AEAAXAEAV123@U?$integral_constant@_N$00@23@@Z=QQNT.original.dll.?__move_assign_alloc@?$vector@UCpuProfileDeoptInfo@v8@@V?$allocator@UCpuProfileDeoptInfo@v8@@@__Cr@std@@@__Cr@std@@AEAAXAEAV123@U?$integral_constant@_N$00@23@@Z
    ?__move_assign_alloc@?$vector@UCpuProfileDeoptInfo@v8@@V?$allocator@UCpuProfileDeoptInfo@v8@@@__Cr@std@@@__Cr@std@@AEAAXAEAV123@U?$integral_constant@_N$0A@@23@@Z=QQNT.original.dll.?__move_assign_alloc@?$vector@UCpuProfileDeoptInfo@v8@@V?$allocator@UCpuProfileDeoptInfo@v8@@@__Cr@std@@@__Cr@std@@AEAAXAEAV123@U?$integral_constant@_N$0A@@23@@Z
    ?__move_range@?$vector@UCpuProfileDeoptFrame@v8@@V?$allocator@UCpuProfileDeoptFrame@v8@@@__Cr@std@@@__Cr@std@@AEAAXPEAUCpuProfileDeoptFrame@v8@@00@Z=QQNT.original.dll.?__move_range@?$vector@UCpuProfileDeoptFrame@v8@@V?$allocator@UCpuProfileDeoptFrame@v8@@@__Cr@std@@@__Cr@std@@AEAAXPEAUCpuProfileDeoptFrame@v8@@00@Z
    ?__move_range@?$vector@UCpuProfileDeoptInfo@v8@@V?$allocator@UCpuProfileDeoptInfo@v8@@@__Cr@std@@@__Cr@std@@AEAAXPEAUCpuProfileDeoptInfo@v8@@00@Z=QQNT.original.dll.?__move_range@?$vector@UCpuProfileDeoptInfo@v8@@V?$allocator@UCpuProfileDeoptInfo@v8@@@__Cr@std@@@__Cr@std@@AEAAXPEAUCpuProfileDeoptInfo@v8@@00@Z
    ?__recommend@?$vector@UCpuProfileDeoptFrame@v8@@V?$allocator@UCpuProfileDeoptFrame@v8@@@__Cr@std@@@__Cr@std@@AEBA_K_K@Z=QQNT.original.dll.?__recommend@?$vector@UCpuProfileDeoptFrame@v8@@V?$allocator@UCpuProfileDeoptFrame@v8@@@__Cr@std@@@__Cr@std@@AEBA_K_K@Z
    ?__recommend@?$vector@UCpuProfileDeoptInfo@v8@@V?$allocator@UCpuProfileDeoptInfo@v8@@@__Cr@std@@@__Cr@std@@AEBA_K_K@Z=QQNT.original.dll.?__recommend@?$vector@UCpuProfileDeoptInfo@v8@@V?$allocator@UCpuProfileDeoptInfo@v8@@@__Cr@std@@@__Cr@std@@AEBA_K_K@Z
    ?__swap_out_circular_buffer@?$vector@UCpuProfileDeoptFrame@v8@@V?$allocator@UCpuProfileDeoptFrame@v8@@@__Cr@std@@@__Cr@std@@AEAAPEAUCpuProfileDeoptFrame@v8@@AEAU?$__split_buffer@UCpuProfileDeoptFrame@v8@@AEAV?$allocator@UCpuProfileDeoptFrame@v8@@@__Cr@std@@@23@PEAU45@@Z=QQNT.original.dll.?__swap_out_circular_buffer@?$vector@UCpuProfileDeoptFrame@v8@@V?$allocator@UCpuProfileDeoptFrame@v8@@@__Cr@std@@@__Cr@std@@AEAAPEAUCpuProfileDeoptFrame@v8@@AEAU?$__split_buffer@UCpuProfileDeoptFrame@v8@@AEAV?$allocator@UCpuProfileDeoptFrame@v8@@@__Cr@std@@@23@PEAU45@@Z
    ?__swap_out_circular_buffer@?$vector@UCpuProfileDeoptFrame@v8@@V?$allocator@UCpuProfileDeoptFrame@v8@@@__Cr@std@@@__Cr@std@@AEAAXAEAU?$__split_buffer@UCpuProfileDeoptFrame@v8@@AEAV?$allocator@UCpuProfileDeoptFrame@v8@@@__Cr@std@@@23@@Z=QQNT.original.dll.?__swap_out_circular_buffer@?$vector@UCpuProfileDeoptFrame@v8@@V?$allocator@UCpuProfileDeoptFrame@v8@@@__Cr@std@@@__Cr@std@@AEAAXAEAU?$__split_buffer@UCpuProfileDeoptFrame@v8@@AEAV?$allocator@UCpuProfileDeoptFrame@v8@@@__Cr@std@@@23@@Z
    ?__swap_out_circular_buffer@?$vector@UCpuProfileDeoptInfo@v8@@V?$allocator@UCpuProfileDeoptInfo@v8@@@__Cr@std@@@__Cr@std@@AEAAPEAUCpuProfileDeoptInfo@v8@@AEAU?$__split_buffer@UCpuProfileDeoptInfo@v8@@AEAV?$allocator@UCpuProfileDeoptInfo@v8@@@__Cr@std@@@23@PEAU45@@Z=QQNT.original.dll.?__swap_out_circular_buffer@?$vector@UCpuProfileDeoptInfo@v8@@V?$allocator@UCpuProfileDeoptInfo@v8@@@__Cr@std@@@__Cr@std@@AEAAPEAUCpuProfileDeoptInfo@v8@@AEAU?$__split_buffer@UCpuProfileDeoptInfo@v8@@AEAV?$allocator@UCpuProfileDeoptInfo@v8@@@__Cr@std@@@23@PEAU45@@Z
    ?__swap_out_circular_buffer@?$vector@UCpuProfileDeoptInfo@v8@@V?$allocator@UCpuProfileDeoptInfo@v8@@@__Cr@std@@@__Cr@std@@AEAAXAEAU?$__split_buffer@UCpuProfileDeoptInfo@v8@@AEAV?$allocator@UCpuProfileDeoptInfo@v8@@@__Cr@std@@@23@@Z=QQNT.original.dll.?__swap_out_circular_buffer@?$vector@UCpuProfileDeoptInfo@v8@@V?$allocator@UCpuProfileDeoptInfo@v8@@@__Cr@std@@@__Cr@std@@AEAAXAEAU?$__split_buffer@UCpuProfileDeoptInfo@v8@@AEAV?$allocator@UCpuProfileDeoptInfo@v8@@@__Cr@std@@@23@@Z
    ?__throw_length_error@?$vector@UCpuProfileDeoptFrame@v8@@V?$allocator@UCpuProfileDeoptFrame@v8@@@__Cr@std@@@__Cr@std@@AEBAXXZ=QQNT.original.dll.?__throw_length_error@?$vector@UCpuProfileDeoptFrame@v8@@V?$allocator@UCpuProfileDeoptFrame@v8@@@__Cr@std@@@__Cr@std@@AEBAXXZ
    ?__throw_length_error@?$vector@UCpuProfileDeoptInfo@v8@@V?$allocator@UCpuProfileDeoptInfo@v8@@@__Cr@std@@@__Cr@std@@AEBAXXZ=QQNT.original.dll.?__throw_length_error@?$vector@UCpuProfileDeoptInfo@v8@@V?$allocator@UCpuProfileDeoptInfo@v8@@@__Cr@std@@@__Cr@std@@AEBAXXZ
    ?__throw_out_of_range@?$vector@UCpuProfileDeoptFrame@v8@@V?$allocator@UCpuProfileDeoptFrame@v8@@@__Cr@std@@@__Cr@std@@AEBAXXZ=QQNT.original.dll.?__throw_out_of_range@?$vector@UCpuProfileDeoptFrame@v8@@V?$allocator@UCpuProfileDeoptFrame@v8@@@__Cr@std@@@__Cr@std@@AEBAXXZ
    ?__throw_out_of_range@?$vector@UCpuProfileDeoptInfo@v8@@V?$allocator@UCpuProfileDeoptInfo@v8@@@__Cr@std@@@__Cr@std@@AEBAXXZ=QQNT.original.dll.?__throw_out_of_range@?$vector@UCpuProfileDeoptInfo@v8@@V?$allocator@UCpuProfileDeoptInfo@v8@@@__Cr@std@@@__Cr@std@@AEBAXXZ
    ?__vallocate@?$vector@UCpuProfileDeoptFrame@v8@@V?$allocator@UCpuProfileDeoptFrame@v8@@@__Cr@std@@@__Cr@std@@AEAAX_K@Z=QQNT.original.dll.?__vallocate@?$vector@UCpuProfileDeoptFrame@v8@@V?$allocator@UCpuProfileDeoptFrame@v8@@@__Cr@std@@@__Cr@std@@AEAAX_K@Z
    ?__vallocate@?$vector@UCpuProfileDeoptInfo@v8@@V?$allocator@UCpuProfileDeoptInfo@v8@@@__Cr@std@@@__Cr@std@@AEAAX_K@Z=QQNT.original.dll.?__vallocate@?$vector@UCpuProfileDeoptInfo@v8@@V?$allocator@UCpuProfileDeoptInfo@v8@@@__Cr@std@@@__Cr@std@@AEAAX_K@Z
    ?__vdeallocate@?$vector@UCpuProfileDeoptFrame@v8@@V?$allocator@UCpuProfileDeoptFrame@v8@@@__Cr@std@@@__Cr@std@@AEAAXXZ=QQNT.original.dll.?__vdeallocate@?$vector@UCpuProfileDeoptFrame@v8@@V?$allocator@UCpuProfileDeoptFrame@v8@@@__Cr@std@@@__Cr@std@@AEAAXXZ
    ?__vdeallocate@?$vector@UCpuProfileDeoptInfo@v8@@V?$allocator@UCpuProfileDeoptInfo@v8@@@__Cr@std@@@__Cr@std@@AEAAXXZ=QQNT.original.dll.?__vdeallocate@?$vector@UCpuProfileDeoptInfo@v8@@V?$allocator@UCpuProfileDeoptInfo@v8@@@__Cr@std@@@__Cr@std@@AEAAXXZ
    ?allocate_impl@StrongRootAllocatorBase@internal@v8@@IEAAPEA_K_K@Z=QQNT.original.dll.?allocate_impl@StrongRootAllocatorBase@internal@v8@@IEAAPEA_K_K@Z
    ?allocator@GCInfoTable@internal@cppgc@@QEBAAEAVPageAllocator@v8@@XZ=QQNT.original.dll.?allocator@GCInfoTable@internal@cppgc@@QEBAAEAVPageAllocator@v8@@XZ
    ?allocator@ThreadIsolation@internal@v8@@CAPEAVThreadIsolatedAllocator@3@XZ=QQNT.original.dll.?allocator@ThreadIsolation@internal@v8@@CAPEAVThreadIsolatedAllocator@3@XZ
    ?array_buffer_allocator@CommonEnvironmentSetup@node@@QEBA?AV?$shared_ptr@VArrayBufferAllocator@node@@@__Cr@std@@XZ=QQNT.original.dll.?array_buffer_allocator@CommonEnvironmentSetup@node@@QEBA?AV?$shared_ptr@VArrayBufferAllocator@node@@@__Cr@std@@XZ
    ?assign@?$vector@UCpuProfileDeoptFrame@v8@@V?$allocator@UCpuProfileDeoptFrame@v8@@@__Cr@std@@@__Cr@std@@QEAAXV?$initializer_list@UCpuProfileDeoptFrame@v8@@@3@@Z=QQNT.original.dll.?assign@?$vector@UCpuProfileDeoptFrame@v8@@V?$allocator@UCpuProfileDeoptFrame@v8@@@__Cr@std@@@__Cr@std@@QEAAXV?$initializer_list@UCpuProfileDeoptFrame@v8@@@3@@Z
    ?assign@?$vector@UCpuProfileDeoptFrame@v8@@V?$allocator@UCpuProfileDeoptFrame@v8@@@__Cr@std@@@__Cr@std@@QEAAX_KAEBUCpuProfileDeoptFrame@v8@@@Z=QQNT.original.dll.?assign@?$vector@UCpuProfileDeoptFrame@v8@@V?$allocator@UCpuProfileDeoptFrame@v8@@@__Cr@std@@@__Cr@std@@QEAAX_KAEBUCpuProfileDeoptFrame@v8@@@Z
    ?assign@?$vector@UCpuProfileDeoptInfo@v8@@V?$allocator@UCpuProfileDeoptInfo@v8@@@__Cr@std@@@__Cr@std@@QEAAXV?$initializer_list@UCpuProfileDeoptInfo@v8@@@3@@Z=QQNT.original.dll.?assign@?$vector@UCpuProfileDeoptInfo@v8@@V?$allocator@UCpuProfileDeoptInfo@v8@@@__Cr@std@@@__Cr@std@@QEAAXV?$initializer_list@UCpuProfileDeoptInfo@v8@@@3@@Z
    ?assign@?$vector@UCpuProfileDeoptInfo@v8@@V?$allocator@UCpuProfileDeoptInfo@v8@@@__Cr@std@@@__Cr@std@@QEAAX_KAEBUCpuProfileDeoptInfo@v8@@@Z=QQNT.original.dll.?assign@?$vector@UCpuProfileDeoptInfo@v8@@V?$allocator@UCpuProfileDeoptInfo@v8@@@__Cr@std@@@__Cr@std@@QEAAX_KAEBUCpuProfileDeoptInfo@v8@@@Z
    ?at@?$vector@UCpuProfileDeoptFrame@v8@@V?$allocator@UCpuProfileDeoptFrame@v8@@@__Cr@std@@@__Cr@std@@QEAAAEAUCpuProfileDeoptFrame@v8@@_K@Z=QQNT.original.dll.?at@?$vector@UCpuProfileDeoptFrame@v8@@V?$allocator@UCpuProfileDeoptFrame@v8@@@__Cr@std@@@__Cr@std@@QEAAAEAUCpuProfileDeoptFrame@v8@@_K@Z
    ?at@?$vector@UCpuProfileDeoptFrame@v8@@V?$allocator@UCpuProfileDeoptFrame@v8@@@__Cr@std@@@__Cr@std@@QEBAAEBUCpuProfileDeoptFrame@v8@@_K@Z=QQNT.original.dll.?at@?$vector@UCpuProfileDeoptFrame@v8@@V?$allocator@UCpuProfileDeoptFrame@v8@@@__Cr@std@@@__Cr@std@@QEBAAEBUCpuProfileDeoptFrame@v8@@_K@Z
    ?at@?$vector@UCpuProfileDeoptInfo@v8@@V?$allocator@UCpuProfileDeoptInfo@v8@@@__Cr@std@@@__Cr@std@@QEAAAEAUCpuProfileDeoptInfo@v8@@_K@Z=QQNT.original.dll.?at@?$vector@UCpuProfileDeoptInfo@v8@@V?$allocator@UCpuProfileDeoptInfo@v8@@@__Cr@std@@@__Cr@std@@QEAAAEAUCpuProfileDeoptInfo@v8@@_K@Z
    ?at@?$vector@UCpuProfileDeoptInfo@v8@@V?$allocator@UCpuProfileDeoptInfo@v8@@@__Cr@std@@@__Cr@std@@QEBAAEBUCpuProfileDeoptInfo@v8@@_K@Z=QQNT.original.dll.?at@?$vector@UCpuProfileDeoptInfo@v8@@V?$allocator@UCpuProfileDeoptInfo@v8@@@__Cr@std@@@__Cr@std@@QEBAAEBUCpuProfileDeoptInfo@v8@@_K@Z
    ?auto_enable@Extension@v8@@QEAA_NXZ=QQNT.original.dll.?auto_enable@Extension@v8@@QEAA_NXZ
    ?back@?$vector@UCpuProfileDeoptFrame@v8@@V?$allocator@UCpuProfileDeoptFrame@v8@@@__Cr@std@@@__Cr@std@@QEAAAEAUCpuProfileDeoptFrame@v8@@XZ=QQNT.original.dll.?back@?$vector@UCpuProfileDeoptFrame@v8@@V?$allocator@UCpuProfileDeoptFrame@v8@@@__Cr@std@@@__Cr@std@@QEAAAEAUCpuProfileDeoptFrame@v8@@XZ
    ?back@?$vector@UCpuProfileDeoptFrame@v8@@V?$allocator@UCpuProfileDeoptFrame@v8@@@__Cr@std@@@__Cr@std@@QEBAAEBUCpuProfileDeoptFrame@v8@@XZ=QQNT.original.dll.?back@?$vector@UCpuProfileDeoptFrame@v8@@V?$allocator@UCpuProfileDeoptFrame@v8@@@__Cr@std@@@__Cr@std@@QEBAAEBUCpuProfileDeoptFrame@v8@@XZ
    ?back@?$vector@UCpuProfileDeoptInfo@v8@@V?$allocator@UCpuProfileDeoptInfo@v8@@@__Cr@std@@@__Cr@std@@QEAAAEAUCpuProfileDeoptInfo@v8@@XZ=QQNT.original.dll.?back@?$vector@UCpuProfileDeoptInfo@v8@@V?$allocator@UCpuProfileDeoptInfo@v8@@@__Cr@std@@@__Cr@std@@QEAAAEAUCpuProfileDeoptInfo@v8@@XZ
    ?back@?$vector@UCpuProfileDeoptInfo@v8@@V?$allocator@UCpuProfileDeoptInfo@v8@@@__Cr@std@@@__Cr@std@@QEBAAEBUCpuProfileDeoptInfo@v8@@XZ=QQNT.original.dll.?back@?$vector@UCpuProfileDeoptInfo@v8@@V?$allocator@UCpuProfileDeoptInfo@v8@@@__Cr@std@@@__Cr@std@@QEBAAEBUCpuProfileDeoptInfo@v8@@XZ
    ?begin@?$MemorySpan@$$CBE@v8@@QEBA?AVIterator@12@XZ=QQNT.original.dll.?begin@?$MemorySpan@$$CBE@v8@@QEBA?AVIterator@12@XZ
    ?begin@?$MemorySpan@$$CBV?$Local@VValue@v8@@@v8@@@v8@@QEBA?AVIterator@12@XZ=QQNT.original.dll.?begin@?$MemorySpan@$$CBV?$Local@VValue@v8@@@v8@@@v8@@QEBA?AVIterator@12@XZ
    ?begin@?$MemorySpan@$$CBV?$basic_string_view@DU?$char_traits@D@__Cr@std@@@__Cr@std@@@v8@@QEBA?AVIterator@12@XZ=QQNT.original.dll.?begin@?$MemorySpan@$$CBV?$basic_string_view@DU?$char_traits@D@__Cr@std@@@__Cr@std@@@v8@@QEBA?AVIterator@12@XZ
    ?begin@?$MemorySpan@V?$Handle@VMap@internal@v8@@@internal@v8@@@v8@@QEBA?AVIterator@12@XZ=QQNT.original.dll.?begin@?$MemorySpan@V?$Handle@VMap@internal@v8@@@internal@v8@@@v8@@QEBA?AVIterator@12@XZ
    ?begin@?$MemorySpan@V?$MaybeLocal@VValue@v8@@@v8@@@v8@@QEBA?AVIterator@12@XZ=QQNT.original.dll.?begin@?$MemorySpan@V?$MaybeLocal@VValue@v8@@@v8@@@v8@@QEBA?AVIterator@12@XZ
    ?begin@?$vector@UCpuProfileDeoptFrame@v8@@V?$allocator@UCpuProfileDeoptFrame@v8@@@__Cr@std@@@__Cr@std@@QEAA?AV?$__wrap_iter@PEAUCpuProfileDeoptFrame@v8@@@23@XZ=QQNT.original.dll.?begin@?$vector@UCpuProfileDeoptFrame@v8@@V?$allocator@UCpuProfileDeoptFrame@v8@@@__Cr@std@@@__Cr@std@@QEAA?AV?$__wrap_iter@PEAUCpuProfileDeoptFrame@v8@@@23@XZ
    ?begin@?$vector@UCpuProfileDeoptFrame@v8@@V?$allocator@UCpuProfileDeoptFrame@v8@@@__Cr@std@@@__Cr@std@@QEBA?AV?$__wrap_iter@PEBUCpuProfileDeoptFrame@v8@@@23@XZ=QQNT.original.dll.?begin@?$vector@UCpuProfileDeoptFrame@v8@@V?$allocator@UCpuProfileDeoptFrame@v8@@@__Cr@std@@@__Cr@std@@QEBA?AV?$__wrap_iter@PEBUCpuProfileDeoptFrame@v8@@@23@XZ
    ?begin@?$vector@UCpuProfileDeoptInfo@v8@@V?$allocator@UCpuProfileDeoptInfo@v8@@@__Cr@std@@@__Cr@std@@QEAA?AV?$__wrap_iter@PEAUCpuProfileDeoptInfo@v8@@@23@XZ=QQNT.original.dll.?begin@?$vector@UCpuProfileDeoptInfo@v8@@V?$allocator@UCpuProfileDeoptInfo@v8@@@__Cr@std@@@__Cr@std@@QEAA?AV?$__wrap_iter@PEAUCpuProfileDeoptInfo@v8@@@23@XZ
    ?begin@?$vector@UCpuProfileDeoptInfo@v8@@V?$allocator@UCpuProfileDeoptInfo@v8@@@__Cr@std@@@__Cr@std@@QEBA?AV?$__wrap_iter@PEBUCpuProfileDeoptInfo@v8@@@23@XZ=QQNT.original.dll.?begin@?$vector@UCpuProfileDeoptInfo@v8@@V?$allocator@UCpuProfileDeoptInfo@v8@@@__Cr@std@@@__Cr@std@@QEBA?AV?$__wrap_iter@PEBUCpuProfileDeoptInfo@v8@@@23@XZ
    ?begin@ExtensionConfiguration@v8@@QEBAPEAPEBDXZ=QQNT.original.dll.?begin@ExtensionConfiguration@v8@@QEBAPEAPEBDXZ
    ?beginEnsureAllContextsInGroup@V8InspectorClient@v8_inspector@@UEAAXH@Z=QQNT.original.dll.?beginEnsureAllContextsInGroup@V8InspectorClient@v8_inspector@@UEAAXH@Z
    ?beginUserGesture@V8InspectorClient@v8_inspector@@UEAAXXZ=QQNT.original.dll.?beginUserGesture@V8InspectorClient@v8_inspector@@UEAAXXZ
    ?build_@Version@internal@v8@@0HA=QQNT.original.dll.?build_@Version@internal@v8@@0HA
    ?bytecode_and_metadata_size@HeapCodeStatistics@v8@@QEAA_KXZ=QQNT.original.dll.?bytecode_and_metadata_size@HeapCodeStatistics@v8@@QEAA_KXZ
    ?cached_data@ExternalOneByteStringResource@String@v8@@QEBAPEBDXZ=QQNT.original.dll.?cached_data@ExternalOneByteStringResource@String@v8@@QEBAPEBDXZ
    ?cached_data@ExternalStringResource@String@v8@@QEBAPEBGXZ=QQNT.original.dll.?cached_data@ExternalStringResource@String@v8@@QEBAPEBGXZ
    ?canDispatchMethod@V8InspectorSession@v8_inspector@@SA_NVStringView@2@@Z=QQNT.original.dll.?canDispatchMethod@V8InspectorSession@v8_inspector@@SA_NVStringView@2@@Z
    ?canExecuteScripts@V8InspectorClient@v8_inspector@@UEAA_NH@Z=QQNT.original.dll.?canExecuteScripts@V8InspectorClient@v8_inspector@@UEAA_NH@Z
    ?cancelTimer@V8InspectorClient@v8_inspector@@UEAAXPEAX@Z=QQNT.original.dll.?cancelTimer@V8InspectorClient@v8_inspector@@UEAAXPEAX@Z
    ?candidate_@Version@internal@v8@@0_NA=QQNT.original.dll.?candidate_@Version@internal@v8@@0_NA
    ?capacity@?$vector@UCpuProfileDeoptFrame@v8@@V?$allocator@UCpuProfileDeoptFrame@v8@@@__Cr@std@@@__Cr@std@@QEBA_KXZ=QQNT.original.dll.?capacity@?$vector@UCpuProfileDeoptFrame@v8@@V?$allocator@UCpuProfileDeoptFrame@v8@@@__Cr@std@@@__Cr@std@@QEBA_KXZ
    ?capacity@?$vector@UCpuProfileDeoptInfo@v8@@V?$allocator@UCpuProfileDeoptInfo@v8@@@__Cr@std@@@__Cr@std@@QEBA_KXZ=QQNT.original.dll.?capacity@?$vector@UCpuProfileDeoptInfo@v8@@V?$allocator@UCpuProfileDeoptInfo@v8@@@__Cr@std@@@__Cr@std@@QEBA_KXZ
    ?card@AgeTable@internal@cppgc@@AEBA_K_K@Z=QQNT.original.dll.?card@AgeTable@internal@cppgc@@AEBA_K_K@Z
    ?cbegin@?$vector@UCpuProfileDeoptFrame@v8@@V?$allocator@UCpuProfileDeoptFrame@v8@@@__Cr@std@@@__Cr@std@@QEBA?AV?$__wrap_iter@PEBUCpuProfileDeoptFrame@v8@@@23@XZ=QQNT.original.dll.?cbegin@?$vector@UCpuProfileDeoptFrame@v8@@V?$allocator@UCpuProfileDeoptFrame@v8@@@__Cr@std@@@__Cr@std@@QEBA?AV?$__wrap_iter@PEBUCpuProfileDeoptFrame@v8@@@23@XZ
    ?cbegin@?$vector@UCpuProfileDeoptInfo@v8@@V?$allocator@UCpuProfileDeoptInfo@v8@@@__Cr@std@@@__Cr@std@@QEBA?AV?$__wrap_iter@PEBUCpuProfileDeoptInfo@v8@@@23@XZ=QQNT.original.dll.?cbegin@?$vector@UCpuProfileDeoptInfo@v8@@V?$allocator@UCpuProfileDeoptInfo@v8@@@__Cr@std@@@__Cr@std@@QEBA?AV?$__wrap_iter@PEBUCpuProfileDeoptInfo@v8@@@23@XZ
    ?cend@?$vector@UCpuProfileDeoptFrame@v8@@V?$allocator@UCpuProfileDeoptFrame@v8@@@__Cr@std@@@__Cr@std@@QEBA?AV?$__wrap_iter@PEBUCpuProfileDeoptFrame@v8@@@23@XZ=QQNT.original.dll.?cend@?$vector@UCpuProfileDeoptFrame@v8@@V?$allocator@UCpuProfileDeoptFrame@v8@@@__Cr@std@@@__Cr@std@@QEBA?AV?$__wrap_iter@PEBUCpuProfileDeoptFrame@v8@@@23@XZ
    ?cend@?$vector@UCpuProfileDeoptInfo@v8@@V?$allocator@UCpuProfileDeoptInfo@v8@@@__Cr@std@@@__Cr@std@@QEBA?AV?$__wrap_iter@PEBUCpuProfileDeoptInfo@v8@@@23@XZ=QQNT.original.dll.?cend@?$vector@UCpuProfileDeoptInfo@v8@@V?$allocator@UCpuProfileDeoptInfo@v8@@@__Cr@std@@@__Cr@std@@QEBA?AV?$__wrap_iter@PEBUCpuProfileDeoptInfo@v8@@@23@XZ
    ?characters16@StringView@v8_inspector@@QEBAPEBGXZ=QQNT.original.dll.?characters16@StringView@v8_inspector@@QEBAPEBGXZ
    ?characters8@StringView@v8_inspector@@QEBAPEBEXZ=QQNT.original.dll.?characters8@StringView@v8_inspector@@QEBAPEBEXZ
    ?clear@?$vector@UCpuProfileDeoptFrame@v8@@V?$allocator@UCpuProfileDeoptFrame@v8@@@__Cr@std@@@__Cr@std@@QEAAXXZ=QQNT.original.dll.?clear@?$vector@UCpuProfileDeoptFrame@v8@@V?$allocator@UCpuProfileDeoptFrame@v8@@@__Cr@std@@@__Cr@std@@QEAAXXZ
    ?clear@?$vector@UCpuProfileDeoptInfo@v8@@V?$allocator@UCpuProfileDeoptInfo@v8@@@__Cr@std@@@__Cr@std@@QEAAXXZ=QQNT.original.dll.?clear@?$vector@UCpuProfileDeoptInfo@v8@@V?$allocator@UCpuProfileDeoptInfo@v8@@@__Cr@std@@@__Cr@std@@QEAAXXZ
    ?code_and_metadata_size@HeapCodeStatistics@v8@@QEAA_KXZ=QQNT.original.dll.?code_and_metadata_size@HeapCodeStatistics@v8@@QEAA_KXZ
    ?code_range_size_in_bytes@ResourceConstraints@v8@@QEBA_KXZ=QQNT.original.dll.?code_range_size_in_bytes@ResourceConstraints@v8@@QEBA_KXZ
    ?compilation_details@StreamedSource@ScriptCompiler@v8@@QEAAAEAUCompilationDetails@23@XZ=QQNT.original.dll.?compilation_details@StreamedSource@ScriptCompiler@v8@@QEAAAEAUCompilationDetails@23@XZ
    ?configurable@PropertyDescriptor@v8@@QEBA_NXZ=QQNT.original.dll.?configurable@PropertyDescriptor@v8@@QEBA_NXZ
    ?connect@V8Inspector@v8_inspector@@UEAA?AV?$unique_ptr@VV8InspectorSession@v8_inspector@@U?$default_delete@VV8InspectorSession@v8_inspector@@@__Cr@std@@@__Cr@std@@HPEAVChannel@12@VStringView@2@W4ClientTrustLevel@12@W4SessionPauseState@12@@Z=QQNT.original.dll.?connect@V8Inspector@v8_inspector@@UEAA?AV?$unique_ptr@VV8InspectorSession@v8_inspector@@U?$default_delete@VV8InspectorSession@v8_inspector@@@__Cr@std@@@__Cr@std@@HPEAVChannel@12@VStringView@2@W4ClientTrustLevel@12@W4SessionPauseState@12@@Z
    ?consoleAPIMessage@V8InspectorClient@v8_inspector@@UEAAXHW4MessageErrorLevel@Isolate@v8@@AEBVStringView@2@1IIPEAVV8StackTrace@2@@Z=QQNT.original.dll.?consoleAPIMessage@V8InspectorClient@v8_inspector@@UEAAXHW4MessageErrorLevel@Isolate@v8@@AEBVStringView@2@1IIPEAVV8StackTrace@2@@Z
    ?consoleClear@V8InspectorClient@v8_inspector@@UEAAXH@Z=QQNT.original.dll.?consoleClear@V8InspectorClient@v8_inspector@@UEAAXH@Z
    ?consoleTime@V8InspectorClient@v8_inspector@@UEAAXPEAVIsolate@v8@@V?$Local@VString@v8@@@4@@Z=QQNT.original.dll.?consoleTime@V8InspectorClient@v8_inspector@@UEAAXPEAVIsolate@v8@@V?$Local@VString@v8@@@4@@Z
    ?consoleTimeEnd@V8InspectorClient@v8_inspector@@UEAAXPEAVIsolate@v8@@V?$Local@VString@v8@@@4@@Z=QQNT.original.dll.?consoleTimeEnd@V8InspectorClient@v8_inspector@@UEAAXPEAVIsolate@v8@@V?$Local@VString@v8@@@4@@Z
    ?consoleTimeStamp@V8InspectorClient@v8_inspector@@UEAAXPEAVIsolate@v8@@V?$Local@VString@v8@@@4@@Z=QQNT.original.dll.?consoleTimeStamp@V8InspectorClient@v8_inspector@@UEAAXPEAVIsolate@v8@@V?$Local@VString@v8@@@4@@Z
    ?context@CommonEnvironmentSetup@node@@QEBA?AV?$Local@VContext@v8@@@v8@@XZ=QQNT.original.dll.?context@CommonEnvironmentSetup@node@@QEBA?AV?$Local@VContext@v8@@@v8@@XZ
    ?context@ModuleWrap@loader@node@@QEBA?AV?$Local@VContext@v8@@@v8@@XZ=QQNT.original.dll.?context@ModuleWrap@loader@node@@QEBA?AV?$Local@VContext@v8@@@v8@@XZ
    ?cpu_profiler_metadata_size@HeapCodeStatistics@v8@@QEAA_KXZ=QQNT.original.dll.?cpu_profiler_metadata_size@HeapCodeStatistics@v8@@QEAA_KXZ
    ?crbegin@?$vector@UCpuProfileDeoptFrame@v8@@V?$allocator@UCpuProfileDeoptFrame@v8@@@__Cr@std@@@__Cr@std@@QEBA?AV?$reverse_iterator@V?$__wrap_iter@PEBUCpuProfileDeoptFrame@v8@@@__Cr@std@@@23@XZ=QQNT.original.dll.?crbegin@?$vector@UCpuProfileDeoptFrame@v8@@V?$allocator@UCpuProfileDeoptFrame@v8@@@__Cr@std@@@__Cr@std@@QEBA?AV?$reverse_iterator@V?$__wrap_iter@PEBUCpuProfileDeoptFrame@v8@@@__Cr@std@@@23@XZ
    ?crbegin@?$vector@UCpuProfileDeoptInfo@v8@@V?$allocator@UCpuProfileDeoptInfo@v8@@@__Cr@std@@@__Cr@std@@QEBA?AV?$reverse_iterator@V?$__wrap_iter@PEBUCpuProfileDeoptInfo@v8@@@__Cr@std@@@23@XZ=QQNT.original.dll.?crbegin@?$vector@UCpuProfileDeoptInfo@v8@@V?$allocator@UCpuProfileDeoptInfo@v8@@@__Cr@std@@@__Cr@std@@QEBA?AV?$reverse_iterator@V?$__wrap_iter@PEBUCpuProfileDeoptInfo@v8@@@__Cr@std@@@23@XZ
    ?create@StringBuffer@v8_inspector@@SA?AV?$unique_ptr@VStringBuffer@v8_inspector@@U?$default_delete@VStringBuffer@v8_inspector@@@__Cr@std@@@__Cr@std@@VStringView@2@@Z=QQNT.original.dll.?create@StringBuffer@v8_inspector@@SA?AV?$unique_ptr@VStringBuffer@v8_inspector@@U?$default_delete@VStringBuffer@v8_inspector@@@__Cr@std@@@__Cr@std@@VStringView@2@@Z
    ?create@V8Inspector@v8_inspector@@SA?AV?$unique_ptr@VV8Inspector@v8_inspector@@U?$default_delete@VV8Inspector@v8_inspector@@@__Cr@std@@@__Cr@std@@PEAVIsolate@v8@@PEAVV8InspectorClient@2@@Z=QQNT.original.dll.?create@V8Inspector@v8_inspector@@SA?AV?$unique_ptr@VV8Inspector@v8_inspector@@U?$default_delete@VV8Inspector@v8_inspector@@@__Cr@std@@@__Cr@std@@PEAVIsolate@v8@@PEAVV8InspectorClient@2@@Z
    ?crend@?$vector@UCpuProfileDeoptFrame@v8@@V?$allocator@UCpuProfileDeoptFrame@v8@@@__Cr@std@@@__Cr@std@@QEBA?AV?$reverse_iterator@V?$__wrap_iter@PEBUCpuProfileDeoptFrame@v8@@@__Cr@std@@@23@XZ=QQNT.original.dll.?crend@?$vector@UCpuProfileDeoptFrame@v8@@V?$allocator@UCpuProfileDeoptFrame@v8@@@__Cr@std@@@__Cr@std@@QEBA?AV?$reverse_iterator@V?$__wrap_iter@PEBUCpuProfileDeoptFrame@v8@@@__Cr@std@@@23@XZ
    ?crend@?$vector@UCpuProfileDeoptInfo@v8@@V?$allocator@UCpuProfileDeoptInfo@v8@@@__Cr@std@@@__Cr@std@@QEBA?AV?$reverse_iterator@V?$__wrap_iter@PEBUCpuProfileDeoptInfo@v8@@@__Cr@std@@@23@XZ=QQNT.original.dll.?crend@?$vector@UCpuProfileDeoptInfo@v8@@V?$allocator@UCpuProfileDeoptInfo@v8@@@__Cr@std@@@__Cr@std@@QEBA?AV?$reverse_iterator@V?$__wrap_iter@PEBUCpuProfileDeoptInfo@v8@@@__Cr@std@@@23@XZ
    ?currentTimeMS@V8InspectorClient@v8_inspector@@UEAANXZ=QQNT.original.dll.?currentTimeMS@V8InspectorClient@v8_inspector@@UEAANXZ
    ?data16@ValueView@String@v8@@QEBAPEBGXZ=QQNT.original.dll.?data16@ValueView@String@v8@@QEBAPEBGXZ
    ?data8@ValueView@String@v8@@QEBAPEBEXZ=QQNT.original.dll.?data8@ValueView@String@v8@@QEBAPEBEXZ
    ?data@?$MemorySpan@$$CBD@v8@@QEBAPEBDXZ=QQNT.original.dll.?data@?$MemorySpan@$$CBD@v8@@QEBAPEBDXZ
    ?data@?$MemorySpan@$$CBE@v8@@QEBAPEBEXZ=QQNT.original.dll.?data@?$MemorySpan@$$CBE@v8@@QEBAPEBEXZ
    ?data@?$MemorySpan@$$CBVCFunction@v8@@@v8@@QEBAPEBVCFunction@2@XZ=QQNT.original.dll.?data@?$MemorySpan@$$CBVCFunction@v8@@@v8@@QEBAPEBVCFunction@2@XZ
    ?data@?$MemorySpan@E@v8@@QEBAPEAEXZ=QQNT.original.dll.?data@?$MemorySpan@E@v8@@QEBAPEAEXZ
    ?data@?$MemorySpan@V?$Handle@VObject@internal@v8@@@internal@v8@@@v8@@QEBAPEAV?$Handle@VObject@internal@v8@@@internal@2@XZ=QQNT.original.dll.?data@?$MemorySpan@V?$Handle@VObject@internal@v8@@@internal@v8@@@v8@@QEBAPEAV?$Handle@VObject@internal@v8@@@internal@2@XZ
    ?data@?$MemorySpan@_K@v8@@QEBAPEA_KXZ=QQNT.original.dll.?data@?$MemorySpan@_K@v8@@QEBAPEA_KXZ
    ?data@?$vector@UCpuProfileDeoptFrame@v8@@V?$allocator@UCpuProfileDeoptFrame@v8@@@__Cr@std@@@__Cr@std@@QEAAPEAUCpuProfileDeoptFrame@v8@@XZ=QQNT.original.dll.?data@?$vector@UCpuProfileDeoptFrame@v8@@V?$allocator@UCpuProfileDeoptFrame@v8@@@__Cr@std@@@__Cr@std@@QEAAPEAUCpuProfileDeoptFrame@v8@@XZ
    ?data@?$vector@UCpuProfileDeoptFrame@v8@@V?$allocator@UCpuProfileDeoptFrame@v8@@@__Cr@std@@@__Cr@std@@QEBAPEBUCpuProfileDeoptFrame@v8@@XZ=QQNT.original.dll.?data@?$vector@UCpuProfileDeoptFrame@v8@@V?$allocator@UCpuProfileDeoptFrame@v8@@@__Cr@std@@@__Cr@std@@QEBAPEBUCpuProfileDeoptFrame@v8@@XZ
    ?data@?$vector@UCpuProfileDeoptInfo@v8@@V?$allocator@UCpuProfileDeoptInfo@v8@@@__Cr@std@@@__Cr@std@@QEAAPEAUCpuProfileDeoptInfo@v8@@XZ=QQNT.original.dll.?data@?$vector@UCpuProfileDeoptInfo@v8@@V?$allocator@UCpuProfileDeoptInfo@v8@@@__Cr@std@@@__Cr@std@@QEAAPEAUCpuProfileDeoptInfo@v8@@XZ
    ?data@?$vector@UCpuProfileDeoptInfo@v8@@V?$allocator@UCpuProfileDeoptInfo@v8@@@__Cr@std@@@__Cr@std@@QEBAPEBUCpuProfileDeoptInfo@v8@@XZ=QQNT.original.dll.?data@?$vector@UCpuProfileDeoptInfo@v8@@V?$allocator@UCpuProfileDeoptInfo@v8@@@__Cr@std@@@__Cr@std@@QEBAPEBUCpuProfileDeoptInfo@v8@@XZ
    ?data@Binary@protocol@v8_inspector@@QEBAPEBEXZ=QQNT.original.dll.?data@Binary@protocol@v8_inspector@@QEBAPEBEXZ
    ?deallocate_impl@StrongRootAllocatorBase@internal@v8@@IEAAXPEA_K_K@Z=QQNT.original.dll.?deallocate_impl@StrongRootAllocatorBase@internal@v8@@IEAAXPEA_K_K@Z
    ?deepSerialize@V8InspectorClient@v8_inspector@@UEAA?AV?$unique_ptr@UDeepSerializationResult@v8_inspector@@U?$default_delete@UDeepSerializationResult@v8_inspector@@@__Cr@std@@@__Cr@std@@V?$Local@VValue@v8@@@v8@@HV?$Local@VObject@v8@@@7@@Z=QQNT.original.dll.?deepSerialize@V8InspectorClient@v8_inspector@@UEAA?AV?$unique_ptr@UDeepSerializationResult@v8_inspector@@U?$default_delete@UDeepSerializationResult@v8_inspector@@@__Cr@std@@@__Cr@std@@V?$Local@VValue@v8@@@v8@@HV?$Local@VObject@v8@@@7@@Z
    ?dependencies@Extension@v8@@QEBAPEAPEBDXZ=QQNT.original.dll.?dependencies@Extension@v8@@QEBAPEAPEBDXZ
    ?dependency_count@Extension@v8@@QEBAHXZ=QQNT.original.dll.?dependency_count@Extension@v8@@QEBAHXZ
    ?descriptionForValueSubtype@V8InspectorClient@v8_inspector@@UEAA?AV?$unique_ptr@VStringBuffer@v8_inspector@@U?$default_delete@VStringBuffer@v8_inspector@@@__Cr@std@@@__Cr@std@@V?$Local@VContext@v8@@@v8@@V?$Local@VValue@v8@@@7@@Z=QQNT.original.dll.?descriptionForValueSubtype@V8InspectorClient@v8_inspector@@UEAA?AV?$unique_ptr@VStringBuffer@v8_inspector@@U?$default_delete@VStringBuffer@v8_inspector@@@__Cr@std@@@__Cr@std@@V?$Local@VContext@v8@@@v8@@V?$Local@VValue@v8@@@7@@Z
    ?dispatchError@V8InspectorClient@v8_inspector@@UEAAXV?$Local@VContext@v8@@@v8@@V?$Local@VMessage@v8@@@4@V?$Local@VValue@v8@@@4@@Z=QQNT.original.dll.?dispatchError@V8InspectorClient@v8_inspector@@UEAAXV?$Local@VContext@v8@@@v8@@V?$Local@VMessage@v8@@@4@V?$Local@VValue@v8@@@4@@Z
    ?does_zap_garbage@HeapStatistics@v8@@QEAA_KXZ=QQNT.original.dll.?does_zap_garbage@HeapStatistics@v8@@QEAA_KXZ
    ?embedder_@Version@internal@v8@@0PEBDEB=QQNT.original.dll.?embedder_@Version@internal@v8@@0PEBDEB
    ?empty@?$MemorySpan@$$CBVCFunction@v8@@@v8@@QEBA_NXZ=QQNT.original.dll.?empty@?$MemorySpan@$$CBVCFunction@v8@@@v8@@QEBA_NXZ
    ?empty@?$vector@UCpuProfileDeoptFrame@v8@@V?$allocator@UCpuProfileDeoptFrame@v8@@@__Cr@std@@@__Cr@std@@QEBA_NXZ=QQNT.original.dll.?empty@?$vector@UCpuProfileDeoptFrame@v8@@V?$allocator@UCpuProfileDeoptFrame@v8@@@__Cr@std@@@__Cr@std@@QEBA_NXZ
    ?empty@?$vector@UCpuProfileDeoptInfo@v8@@V?$allocator@UCpuProfileDeoptInfo@v8@@@__Cr@std@@@__Cr@std@@QEBA_NXZ=QQNT.original.dll.?empty@?$vector@UCpuProfileDeoptInfo@v8@@V?$allocator@UCpuProfileDeoptInfo@v8@@@__Cr@std@@@__Cr@std@@QEBA_NXZ
    ?end@?$MemorySpan@$$CBE@v8@@QEBA?AVIterator@12@XZ=QQNT.original.dll.?end@?$MemorySpan@$$CBE@v8@@QEBA?AVIterator@12@XZ
    ?end@?$MemorySpan@$$CBV?$Local@VValue@v8@@@v8@@@v8@@QEBA?AVIterator@12@XZ=QQNT.original.dll.?end@?$MemorySpan@$$CBV?$Local@VValue@v8@@@v8@@@v8@@QEBA?AVIterator@12@XZ
    ?end@?$MemorySpan@$$CBV?$basic_string_view@DU?$char_traits@D@__Cr@std@@@__Cr@std@@@v8@@QEBA?AVIterator@12@XZ=QQNT.original.dll.?end@?$MemorySpan@$$CBV?$basic_string_view@DU?$char_traits@D@__Cr@std@@@__Cr@std@@@v8@@QEBA?AVIterator@12@XZ
    ?end@?$MemorySpan@V?$Handle@VMap@internal@v8@@@internal@v8@@@v8@@QEBA?AVIterator@12@XZ=QQNT.original.dll.?end@?$MemorySpan@V?$Handle@VMap@internal@v8@@@internal@v8@@@v8@@QEBA?AVIterator@12@XZ
    ?end@?$MemorySpan@V?$MaybeLocal@VValue@v8@@@v8@@@v8@@QEBA?AVIterator@12@XZ=QQNT.original.dll.?end@?$MemorySpan@V?$MaybeLocal@VValue@v8@@@v8@@@v8@@QEBA?AVIterator@12@XZ
    ?end@?$vector@UCpuProfileDeoptFrame@v8@@V?$allocator@UCpuProfileDeoptFrame@v8@@@__Cr@std@@@__Cr@std@@QEAA?AV?$__wrap_iter@PEAUCpuProfileDeoptFrame@v8@@@23@XZ=QQNT.original.dll.?end@?$vector@UCpuProfileDeoptFrame@v8@@V?$allocator@UCpuProfileDeoptFrame@v8@@@__Cr@std@@@__Cr@std@@QEAA?AV?$__wrap_iter@PEAUCpuProfileDeoptFrame@v8@@@23@XZ
    ?end@?$vector@UCpuProfileDeoptFrame@v8@@V?$allocator@UCpuProfileDeoptFrame@v8@@@__Cr@std@@@__Cr@std@@QEBA?AV?$__wrap_iter@PEBUCpuProfileDeoptFrame@v8@@@23@XZ=QQNT.original.dll.?end@?$vector@UCpuProfileDeoptFrame@v8@@V?$allocator@UCpuProfileDeoptFrame@v8@@@__Cr@std@@@__Cr@std@@QEBA?AV?$__wrap_iter@PEBUCpuProfileDeoptFrame@v8@@@23@XZ
    ?end@?$vector@UCpuProfileDeoptInfo@v8@@V?$allocator@UCpuProfileDeoptInfo@v8@@@__Cr@std@@@__Cr@std@@QEAA?AV?$__wrap_iter@PEAUCpuProfileDeoptInfo@v8@@@23@XZ=QQNT.original.dll.?end@?$vector@UCpuProfileDeoptInfo@v8@@V?$allocator@UCpuProfileDeoptInfo@v8@@@__Cr@std@@@__Cr@std@@QEAA?AV?$__wrap_iter@PEAUCpuProfileDeoptInfo@v8@@@23@XZ
    ?end@?$vector@UCpuProfileDeoptInfo@v8@@V?$allocator@UCpuProfileDeoptInfo@v8@@@__Cr@std@@@__Cr@std@@QEBA?AV?$__wrap_iter@PEBUCpuProfileDeoptInfo@v8@@@23@XZ=QQNT.original.dll.?end@?$vector@UCpuProfileDeoptInfo@v8@@V?$allocator@UCpuProfileDeoptInfo@v8@@@__Cr@std@@@__Cr@std@@QEBA?AV?$__wrap_iter@PEBUCpuProfileDeoptInfo@v8@@@23@XZ
    ?end@ExtensionConfiguration@v8@@QEBAPEAPEBDXZ=QQNT.original.dll.?end@ExtensionConfiguration@v8@@QEBAPEAPEBDXZ
    ?endEnsureAllContextsInGroup@V8InspectorClient@v8_inspector@@UEAAXH@Z=QQNT.original.dll.?endEnsureAllContextsInGroup@V8InspectorClient@v8_inspector@@UEAAXH@Z
    ?endUserGesture@V8InspectorClient@v8_inspector@@UEAAXXZ=QQNT.original.dll.?endUserGesture@V8InspectorClient@v8_inspector@@UEAAXXZ
    ?ensureDefaultContextInGroup@V8InspectorClient@v8_inspector@@UEAA?AV?$Local@VContext@v8@@@v8@@H@Z=QQNT.original.dll.?ensureDefaultContextInGroup@V8InspectorClient@v8_inspector@@UEAA?AV?$Local@VContext@v8@@@v8@@H@Z
    ?enumerable@PropertyDescriptor@v8@@QEBA_NXZ=QQNT.original.dll.?enumerable@PropertyDescriptor@v8@@QEBA_NXZ
    ?env@CommonEnvironmentSetup@node@@QEBAPEAVEnvironment@2@XZ=QQNT.original.dll.?env@CommonEnvironmentSetup@node@@QEBAPEAVEnvironment@2@XZ
    ?erase@?$vector@UCpuProfileDeoptFrame@v8@@V?$allocator@UCpuProfileDeoptFrame@v8@@@__Cr@std@@@__Cr@std@@QEAA?AV?$__wrap_iter@PEAUCpuProfileDeoptFrame@v8@@@23@V?$__wrap_iter@PEBUCpuProfileDeoptFrame@v8@@@23@0@Z=QQNT.original.dll.?erase@?$vector@UCpuProfileDeoptFrame@v8@@V?$allocator@UCpuProfileDeoptFrame@v8@@@__Cr@std@@@__Cr@std@@QEAA?AV?$__wrap_iter@PEAUCpuProfileDeoptFrame@v8@@@23@V?$__wrap_iter@PEBUCpuProfileDeoptFrame@v8@@@23@0@Z
    ?erase@?$vector@UCpuProfileDeoptFrame@v8@@V?$allocator@UCpuProfileDeoptFrame@v8@@@__Cr@std@@@__Cr@std@@QEAA?AV?$__wrap_iter@PEAUCpuProfileDeoptFrame@v8@@@23@V?$__wrap_iter@PEBUCpuProfileDeoptFrame@v8@@@23@@Z=QQNT.original.dll.?erase@?$vector@UCpuProfileDeoptFrame@v8@@V?$allocator@UCpuProfileDeoptFrame@v8@@@__Cr@std@@@__Cr@std@@QEAA?AV?$__wrap_iter@PEAUCpuProfileDeoptFrame@v8@@@23@V?$__wrap_iter@PEBUCpuProfileDeoptFrame@v8@@@23@@Z
    ?erase@?$vector@UCpuProfileDeoptInfo@v8@@V?$allocator@UCpuProfileDeoptInfo@v8@@@__Cr@std@@@__Cr@std@@QEAA?AV?$__wrap_iter@PEAUCpuProfileDeoptInfo@v8@@@23@V?$__wrap_iter@PEBUCpuProfileDeoptInfo@v8@@@23@0@Z=QQNT.original.dll.?erase@?$vector@UCpuProfileDeoptInfo@v8@@V?$allocator@UCpuProfileDeoptInfo@v8@@@__Cr@std@@@__Cr@std@@QEAA?AV?$__wrap_iter@PEAUCpuProfileDeoptInfo@v8@@@23@V?$__wrap_iter@PEBUCpuProfileDeoptInfo@v8@@@23@0@Z
    ?erase@?$vector@UCpuProfileDeoptInfo@v8@@V?$allocator@UCpuProfileDeoptInfo@v8@@@__Cr@std@@@__Cr@std@@QEAA?AV?$__wrap_iter@PEAUCpuProfileDeoptInfo@v8@@@23@V?$__wrap_iter@PEBUCpuProfileDeoptInfo@v8@@@23@@Z=QQNT.original.dll.?erase@?$vector@UCpuProfileDeoptInfo@v8@@V?$allocator@UCpuProfileDeoptInfo@v8@@@__Cr@std@@@__Cr@std@@QEAA?AV?$__wrap_iter@PEAUCpuProfileDeoptInfo@v8@@@23@V?$__wrap_iter@PEBUCpuProfileDeoptInfo@v8@@@23@@Z
    ?event_loop@CommonEnvironmentSetup@node@@QEBAPEAUuv_loop_s@@XZ=QQNT.original.dll.?event_loop@CommonEnvironmentSetup@node@@QEBAPEAUuv_loop_s@@XZ
    ?executionContextId@V8ContextInfo@v8_inspector@@SAHV?$Local@VContext@v8@@@v8@@@Z=QQNT.original.dll.?executionContextId@V8ContextInfo@v8_inspector@@SAHV?$Local@VContext@v8@@@v8@@@Z
    ?external_memory@HeapStatistics@v8@@QEAA_KXZ=QQNT.original.dll.?external_memory@HeapStatistics@v8@@QEAA_KXZ
    ?external_script_source_size@HeapCodeStatistics@v8@@QEAA_KXZ=QQNT.original.dll.?external_script_source_size@HeapCodeStatistics@v8@@QEAA_KXZ
    ?fromBase64@Binary@protocol@v8_inspector@@SA?AV123@AEBVString16@3@PEA_N@Z=QQNT.original.dll.?fromBase64@Binary@protocol@v8_inspector@@SA?AV123@AEBVString16@3@PEA_N@Z
    ?fromBinary@Domain@API@Schema@protocol@v8_inspector@@SA?AV?$unique_ptr@VDomain@API@Schema@protocol@v8_inspector@@U?$default_delete@VDomain@API@Schema@protocol@v8_inspector@@@__Cr@std@@@__Cr@std@@PEBE_K@Z=QQNT.original.dll.?fromBinary@Domain@API@Schema@protocol@v8_inspector@@SA?AV?$unique_ptr@VDomain@API@Schema@protocol@v8_inspector@@U?$default_delete@VDomain@API@Schema@protocol@v8_inspector@@@__Cr@std@@@__Cr@std@@PEBE_K@Z
    ?fromBinary@RemoteObject@API@Runtime@protocol@v8_inspector@@SA?AV?$unique_ptr@VRemoteObject@API@Runtime@protocol@v8_inspector@@U?$default_delete@VRemoteObject@API@Runtime@protocol@v8_inspector@@@__Cr@std@@@__Cr@std@@PEBE_K@Z=QQNT.original.dll.?fromBinary@RemoteObject@API@Runtime@protocol@v8_inspector@@SA?AV?$unique_ptr@VRemoteObject@API@Runtime@protocol@v8_inspector@@U?$default_delete@VRemoteObject@API@Runtime@protocol@v8_inspector@@@__Cr@std@@@__Cr@std@@PEBE_K@Z
    ?fromBinary@SearchMatch@API@Debugger@protocol@v8_inspector@@SA?AV?$unique_ptr@VSearchMatch@API@Debugger@protocol@v8_inspector@@U?$default_delete@VSearchMatch@API@Debugger@protocol@v8_inspector@@@__Cr@std@@@__Cr@std@@PEBE_K@Z=QQNT.original.dll.?fromBinary@SearchMatch@API@Debugger@protocol@v8_inspector@@SA?AV?$unique_ptr@VSearchMatch@API@Debugger@protocol@v8_inspector@@U?$default_delete@VSearchMatch@API@Debugger@protocol@v8_inspector@@@__Cr@std@@@__Cr@std@@PEBE_K@Z
    ?fromBinary@StackTrace@API@Runtime@protocol@v8_inspector@@SA?AV?$unique_ptr@VStackTrace@API@Runtime@protocol@v8_inspector@@U?$default_delete@VStackTrace@API@Runtime@protocol@v8_inspector@@@__Cr@std@@@__Cr@std@@PEBE_K@Z=QQNT.original.dll.?fromBinary@StackTrace@API@Runtime@protocol@v8_inspector@@SA?AV?$unique_ptr@VStackTrace@API@Runtime@protocol@v8_inspector@@U?$default_delete@VStackTrace@API@Runtime@protocol@v8_inspector@@@__Cr@std@@@__Cr@std@@PEBE_K@Z
    ?fromBinary@StackTraceId@API@Runtime@protocol@v8_inspector@@SA?AV?$unique_ptr@VStackTraceId@API@Runtime@protocol@v8_inspector@@U?$default_delete@VStackTraceId@API@Runtime@protocol@v8_inspector@@@__Cr@std@@@__Cr@std@@PEBE_K@Z=QQNT.original.dll.?fromBinary@StackTraceId@API@Runtime@protocol@v8_inspector@@SA?AV?$unique_ptr@VStackTraceId@API@Runtime@protocol@v8_inspector@@U?$default_delete@VStackTraceId@API@Runtime@protocol@v8_inspector@@@__Cr@std@@@__Cr@std@@PEBE_K@Z
    ?fromSpan@Binary@protocol@v8_inspector@@SA?AV123@V?$MemorySpan@$$CBE@v8@@@Z=QQNT.original.dll.?fromSpan@Binary@protocol@v8_inspector@@SA?AV123@V?$MemorySpan@$$CBE@v8@@@Z
    ?fromSpan@Binary@protocol@v8_inspector@@SA?AV123@V?$span@E@v8_crdtp@@@Z=QQNT.original.dll.?fromSpan@Binary@protocol@v8_inspector@@SA?AV123@V?$span@E@v8_crdtp@@@Z
    ?fromUTF16LE@String16@v8_inspector@@SA?AV12@PEBG_K@Z=QQNT.original.dll.?fromUTF16LE@String16@v8_inspector@@SA?AV12@PEBG_K@Z
    ?fromUTF16LE@String16@v8_inspector@@SA?AV12@PEB_S_K@Z=QQNT.original.dll.?fromUTF16LE@String16@v8_inspector@@SA?AV12@PEB_S_K@Z
    ?fromUTF8@String16@v8_inspector@@SA?AV12@PEBD_K@Z=QQNT.original.dll.?fromUTF8@String16@v8_inspector@@SA?AV12@PEBD_K@Z
    ?front@?$vector@UCpuProfileDeoptFrame@v8@@V?$allocator@UCpuProfileDeoptFrame@v8@@@__Cr@std@@@__Cr@std@@QEAAAEAUCpuProfileDeoptFrame@v8@@XZ=QQNT.original.dll.?front@?$vector@UCpuProfileDeoptFrame@v8@@V?$allocator@UCpuProfileDeoptFrame@v8@@@__Cr@std@@@__Cr@std@@QEAAAEAUCpuProfileDeoptFrame@v8@@XZ
    ?front@?$vector@UCpuProfileDeoptFrame@v8@@V?$allocator@UCpuProfileDeoptFrame@v8@@@__Cr@std@@@__Cr@std@@QEBAAEBUCpuProfileDeoptFrame@v8@@XZ=QQNT.original.dll.?front@?$vector@UCpuProfileDeoptFrame@v8@@V?$allocator@UCpuProfileDeoptFrame@v8@@@__Cr@std@@@__Cr@std@@QEBAAEBUCpuProfileDeoptFrame@v8@@XZ
    ?front@?$vector@UCpuProfileDeoptInfo@v8@@V?$allocator@UCpuProfileDeoptInfo@v8@@@__Cr@std@@@__Cr@std@@QEAAAEAUCpuProfileDeoptInfo@v8@@XZ=QQNT.original.dll.?front@?$vector@UCpuProfileDeoptInfo@v8@@V?$allocator@UCpuProfileDeoptInfo@v8@@@__Cr@std@@@__Cr@std@@QEAAAEAUCpuProfileDeoptInfo@v8@@XZ
    ?front@?$vector@UCpuProfileDeoptInfo@v8@@V?$allocator@UCpuProfileDeoptInfo@v8@@@__Cr@std@@@__Cr@std@@QEBAAEBUCpuProfileDeoptInfo@v8@@XZ=QQNT.original.dll.?front@?$vector@UCpuProfileDeoptInfo@v8@@V?$allocator@UCpuProfileDeoptInfo@v8@@@__Cr@std@@@__Cr@std@@QEBAAEBUCpuProfileDeoptInfo@v8@@XZ
    ?g_age_table_size_@CagedHeapBase@internal@cppgc@@0_KA=QQNT.original.dll.?g_age_table_size_@CagedHeapBase@internal@cppgc@@0_KA
    ?g_base_@CageBaseGlobal@internal@cppgc@@0TBase@123@A=QQNT.original.dll.?g_base_@CageBaseGlobal@internal@cppgc@@0TBase@123@A
    ?g_heap_base_@CagedHeapBase@internal@cppgc@@0_KA=QQNT.original.dll.?g_heap_base_@CagedHeapBase@internal@cppgc@@0_KA
    ?generateUniqueId@V8InspectorClient@v8_inspector@@UEAA_JXZ=QQNT.original.dll.?generateUniqueId@V8InspectorClient@v8_inspector@@UEAA_JXZ
    ?get@PropertyDescriptor@v8@@QEBA?AV?$Local@VValue@v8@@@2@XZ=QQNT.original.dll.?get@PropertyDescriptor@v8@@QEBA?AV?$Local@VValue@v8@@@2@XZ
    ?get_active_implementation@simdutf@@YAAEAV?$atomic_ptr@$$CBVimplementation@simdutf@@@internal@1@XZ=QQNT.original.dll.?get_active_implementation@simdutf@@YAAEAV?$atomic_ptr@$$CBVimplementation@simdutf@@@internal@1@XZ
    ?get_allocator@?$vector@UCpuProfileDeoptFrame@v8@@V?$allocator@UCpuProfileDeoptFrame@v8@@@__Cr@std@@@__Cr@std@@QEBA?AV?$allocator@UCpuProfileDeoptFrame@v8@@@23@XZ=QQNT.original.dll.?get_allocator@?$vector@UCpuProfileDeoptFrame@v8@@V?$allocator@UCpuProfileDeoptFrame@v8@@@__Cr@std@@@__Cr@std@@QEBA?AV?$allocator@UCpuProfileDeoptFrame@v8@@@23@XZ
    ?get_allocator@?$vector@UCpuProfileDeoptInfo@v8@@V?$allocator@UCpuProfileDeoptInfo@v8@@@__Cr@std@@@__Cr@std@@QEBA?AV?$allocator@UCpuProfileDeoptInfo@v8@@@23@XZ=QQNT.original.dll.?get_allocator@?$vector@UCpuProfileDeoptInfo@v8@@V?$allocator@UCpuProfileDeoptInfo@v8@@@__Cr@std@@@__Cr@std@@QEBA?AV?$allocator@UCpuProfileDeoptInfo@v8@@@23@XZ
    ?get_async_id@AsyncResource@node@@QEBANXZ=QQNT.original.dll.?get_async_id@AsyncResource@node@@QEBANXZ
    ?get_available_implementations@simdutf@@YAAEBVavailable_implementation_list@internal@1@XZ=QQNT.original.dll.?get_available_implementations@simdutf@@YAAEBVavailable_implementation_list@internal@1@XZ
    ?get_linked_module@binding@node@@YAPEAUnode_module@2@PEBD@Z=QQNT.original.dll.?get_linked_module@binding@node@@YAPEAUnode_module@2@PEBD@Z
    ?get_private@PropertyDescriptor@v8@@QEBAPEAUPrivateData@12@XZ=QQNT.original.dll.?get_private@PropertyDescriptor@v8@@QEBAPEAUPrivateData@12@XZ
    ?get_resource@AsyncResource@node@@QEAA?AV?$Local@VObject@v8@@@v8@@XZ=QQNT.original.dll.?get_resource@AsyncResource@node@@QEAA?AV?$Local@VObject@v8@@@v8@@XZ
    ?get_trigger_async_id@AsyncResource@node@@QEBANXZ=QQNT.original.dll.?get_trigger_async_id@AsyncResource@node@@QEBANXZ
    ?global_table_@GlobalGCInfoTable@internal@cppgc@@0PEAVGCInfoTable@23@EA=QQNT.original.dll.?global_table_@GlobalGCInfoTable@internal@cppgc@@0PEAVGCInfoTable@23@EA
    ?has_configurable@PropertyDescriptor@v8@@QEBA_NXZ=QQNT.original.dll.?has_configurable@PropertyDescriptor@v8@@QEBA_NXZ
    ?has_enumerable@PropertyDescriptor@v8@@QEBA_NXZ=QQNT.original.dll.?has_enumerable@PropertyDescriptor@v8@@QEBA_NXZ
    ?has_filter_context@CpuProfilingOptions@v8@@AEBA_NXZ=QQNT.original.dll.?has_filter_context@CpuProfilingOptions@v8@@AEBA_NXZ
    ?has_get@PropertyDescriptor@v8@@QEBA_NXZ=QQNT.original.dll.?has_get@PropertyDescriptor@v8@@QEBA_NXZ
    ?has_set@PropertyDescriptor@v8@@QEBA_NXZ=QQNT.original.dll.?has_set@PropertyDescriptor@v8@@QEBA_NXZ
    ?has_value@PropertyDescriptor@v8@@QEBA_NXZ=QQNT.original.dll.?has_value@PropertyDescriptor@v8@@QEBA_NXZ
    ?has_writable@PropertyDescriptor@v8@@QEBA_NXZ=QQNT.original.dll.?has_writable@PropertyDescriptor@v8@@QEBA_NXZ
    ?heap@StrongRootAllocatorBase@internal@v8@@QEBAPEAVHeap@23@XZ=QQNT.original.dll.?heap@StrongRootAllocatorBase@internal@v8@@QEBAPEAVHeap@23@XZ
    ?heap_size_limit@HeapStatistics@v8@@QEAA_KXZ=QQNT.original.dll.?heap_size_limit@HeapStatistics@v8@@QEAA_KXZ
    ?impl@StreamedSource@ScriptCompiler@v8@@QEBAPEAUScriptStreamingData@internal@3@XZ=QQNT.original.dll.?impl@StreamedSource@ScriptCompiler@v8@@QEBAPEAUScriptStreamingData@internal@3@XZ
    ?initial_old_generation_size_in_bytes@ResourceConstraints@v8@@QEBA_KXZ=QQNT.original.dll.?initial_old_generation_size_in_bytes@ResourceConstraints@v8@@QEBA_KXZ
    ?initial_young_generation_size_in_bytes@ResourceConstraints@v8@@QEBA_KXZ=QQNT.original.dll.?initial_young_generation_size_in_bytes@ResourceConstraints@v8@@QEBA_KXZ
    ?insert@?$vector@UCpuProfileDeoptFrame@v8@@V?$allocator@UCpuProfileDeoptFrame@v8@@@__Cr@std@@@__Cr@std@@QEAA?AV?$__wrap_iter@PEAUCpuProfileDeoptFrame@v8@@@23@V?$__wrap_iter@PEBUCpuProfileDeoptFrame@v8@@@23@$$QEAUCpuProfileDeoptFrame@v8@@@Z=QQNT.original.dll.?insert@?$vector@UCpuProfileDeoptFrame@v8@@V?$allocator@UCpuProfileDeoptFrame@v8@@@__Cr@std@@@__Cr@std@@QEAA?AV?$__wrap_iter@PEAUCpuProfileDeoptFrame@v8@@@23@V?$__wrap_iter@PEBUCpuProfileDeoptFrame@v8@@@23@$$QEAUCpuProfileDeoptFrame@v8@@@Z
    ?insert@?$vector@UCpuProfileDeoptFrame@v8@@V?$allocator@UCpuProfileDeoptFrame@v8@@@__Cr@std@@@__Cr@std@@QEAA?AV?$__wrap_iter@PEAUCpuProfileDeoptFrame@v8@@@23@V?$__wrap_iter@PEBUCpuProfileDeoptFrame@v8@@@23@AEBUCpuProfileDeoptFrame@v8@@@Z=QQNT.original.dll.?insert@?$vector@UCpuProfileDeoptFrame@v8@@V?$allocator@UCpuProfileDeoptFrame@v8@@@__Cr@std@@@__Cr@std@@QEAA?AV?$__wrap_iter@PEAUCpuProfileDeoptFrame@v8@@@23@V?$__wrap_iter@PEBUCpuProfileDeoptFrame@v8@@@23@AEBUCpuProfileDeoptFrame@v8@@@Z
    ?insert@?$vector@UCpuProfileDeoptFrame@v8@@V?$allocator@UCpuProfileDeoptFrame@v8@@@__Cr@std@@@__Cr@std@@QEAA?AV?$__wrap_iter@PEAUCpuProfileDeoptFrame@v8@@@23@V?$__wrap_iter@PEBUCpuProfileDeoptFrame@v8@@@23@V?$initializer_list@UCpuProfileDeoptFrame@v8@@@3@@Z=QQNT.original.dll.?insert@?$vector@UCpuProfileDeoptFrame@v8@@V?$allocator@UCpuProfileDeoptFrame@v8@@@__Cr@std@@@__Cr@std@@QEAA?AV?$__wrap_iter@PEAUCpuProfileDeoptFrame@v8@@@23@V?$__wrap_iter@PEBUCpuProfileDeoptFrame@v8@@@23@V?$initializer_list@UCpuProfileDeoptFrame@v8@@@3@@Z
    ?insert@?$vector@UCpuProfileDeoptFrame@v8@@V?$allocator@UCpuProfileDeoptFrame@v8@@@__Cr@std@@@__Cr@std@@QEAA?AV?$__wrap_iter@PEAUCpuProfileDeoptFrame@v8@@@23@V?$__wrap_iter@PEBUCpuProfileDeoptFrame@v8@@@23@_KAEBUCpuProfileDeoptFrame@v8@@@Z=QQNT.original.dll.?insert@?$vector@UCpuProfileDeoptFrame@v8@@V?$allocator@UCpuProfileDeoptFrame@v8@@@__Cr@std@@@__Cr@std@@QEAA?AV?$__wrap_iter@PEAUCpuProfileDeoptFrame@v8@@@23@V?$__wrap_iter@PEBUCpuProfileDeoptFrame@v8@@@23@_KAEBUCpuProfileDeoptFrame@v8@@@Z
    ?insert@?$vector@UCpuProfileDeoptInfo@v8@@V?$allocator@UCpuProfileDeoptInfo@v8@@@__Cr@std@@@__Cr@std@@QEAA?AV?$__wrap_iter@PEAUCpuProfileDeoptInfo@v8@@@23@V?$__wrap_iter@PEBUCpuProfileDeoptInfo@v8@@@23@$$QEAUCpuProfileDeoptInfo@v8@@@Z=QQNT.original.dll.?insert@?$vector@UCpuProfileDeoptInfo@v8@@V?$allocator@UCpuProfileDeoptInfo@v8@@@__Cr@std@@@__Cr@std@@QEAA?AV?$__wrap_iter@PEAUCpuProfileDeoptInfo@v8@@@23@V?$__wrap_iter@PEBUCpuProfileDeoptInfo@v8@@@23@$$QEAUCpuProfileDeoptInfo@v8@@@Z
    ?insert@?$vector@UCpuProfileDeoptInfo@v8@@V?$allocator@UCpuProfileDeoptInfo@v8@@@__Cr@std@@@__Cr@std@@QEAA?AV?$__wrap_iter@PEAUCpuProfileDeoptInfo@v8@@@23@V?$__wrap_iter@PEBUCpuProfileDeoptInfo@v8@@@23@AEBUCpuProfileDeoptInfo@v8@@@Z=QQNT.original.dll.?insert@?$vector@UCpuProfileDeoptInfo@v8@@V?$allocator@UCpuProfileDeoptInfo@v8@@@__Cr@std@@@__Cr@std@@QEAA?AV?$__wrap_iter@PEAUCpuProfileDeoptInfo@v8@@@23@V?$__wrap_iter@PEBUCpuProfileDeoptInfo@v8@@@23@AEBUCpuProfileDeoptInfo@v8@@@Z
    ?insert@?$vector@UCpuProfileDeoptInfo@v8@@V?$allocator@UCpuProfileDeoptInfo@v8@@@__Cr@std@@@__Cr@std@@QEAA?AV?$__wrap_iter@PEAUCpuProfileDeoptInfo@v8@@@23@V?$__wrap_iter@PEBUCpuProfileDeoptInfo@v8@@@23@V?$initializer_list@UCpuProfileDeoptInfo@v8@@@3@@Z=QQNT.original.dll.?insert@?$vector@UCpuProfileDeoptInfo@v8@@V?$allocator@UCpuProfileDeoptInfo@v8@@@__Cr@std@@@__Cr@std@@QEAA?AV?$__wrap_iter@PEAUCpuProfileDeoptInfo@v8@@@23@V?$__wrap_iter@PEBUCpuProfileDeoptInfo@v8@@@23@V?$initializer_list@UCpuProfileDeoptInfo@v8@@@3@@Z
    ?insert@?$vector@UCpuProfileDeoptInfo@v8@@V?$allocator@UCpuProfileDeoptInfo@v8@@@__Cr@std@@@__Cr@std@@QEAA?AV?$__wrap_iter@PEAUCpuProfileDeoptInfo@v8@@@23@V?$__wrap_iter@PEBUCpuProfileDeoptInfo@v8@@@23@_KAEBUCpuProfileDeoptInfo@v8@@@Z=QQNT.original.dll.?insert@?$vector@UCpuProfileDeoptInfo@v8@@V?$allocator@UCpuProfileDeoptInfo@v8@@@__Cr@std@@@__Cr@std@@QEAA?AV?$__wrap_iter@PEAUCpuProfileDeoptInfo@v8@@@23@V?$__wrap_iter@PEBUCpuProfileDeoptInfo@v8@@@23@_KAEBUCpuProfileDeoptInfo@v8@@@Z
    ?installAdditionalCommandLineAPI@V8InspectorClient@v8_inspector@@UEAAXV?$Local@VContext@v8@@@v8@@V?$Local@VObject@v8@@@4@@Z=QQNT.original.dll.?installAdditionalCommandLineAPI@V8InspectorClient@v8_inspector@@UEAAXV?$Local@VContext@v8@@@v8@@V?$Local@VObject@v8@@@4@@Z
    ?is8Bit@StringView@v8_inspector@@QEBA_NXZ=QQNT.original.dll.?is8Bit@StringView@v8_inspector@@QEBA_NXZ
    ?isInspectableHeapObject@V8InspectorClient@v8_inspector@@UEAA_NV?$Local@VObject@v8@@@v8@@@Z=QQNT.original.dll.?isInspectableHeapObject@V8InspectorClient@v8_inspector@@UEAA_NV?$Local@VObject@v8@@@v8@@@Z
    ?isValid@V8DebuggerId@v8_inspector@@QEBA_NXZ=QQNT.original.dll.?isValid@V8DebuggerId@v8_inspector@@QEBA_NXZ
    ?is_one_byte@ValueView@String@v8@@QEBA_NXZ=QQNT.original.dll.?is_one_byte@ValueView@String@v8@@QEBA_NXZ
    ?isolate@CommonEnvironmentSetup@node@@QEBAPEAVIsolate@v8@@XZ=QQNT.original.dll.?isolate@CommonEnvironmentSetup@node@@QEBAPEAVIsolate@v8@@XZ
    ?isolate_data@CommonEnvironmentSetup@node@@QEBAPEAVIsolateData@2@XZ=QQNT.original.dll.?isolate_data@CommonEnvironmentSetup@node@@QEBAPEAVIsolateData@2@XZ
    ?kAllocationGranularity@AgeTable@internal@cppgc@@0_KB=QQNT.original.dll.?kAllocationGranularity@AgeTable@internal@cppgc@@0_KB
    ?kCardSizeInBytes@AgeTable@internal@cppgc@@2_KB=QQNT.original.dll.?kCardSizeInBytes@AgeTable@internal@cppgc@@2_KB
    ?kEmbedderFieldCount@ArrayBuffer@v8@@2HB=QQNT.original.dll.?kEmbedderFieldCount@ArrayBuffer@v8@@2HB
    ?kEmbedderFieldCount@ArrayBufferView@v8@@2HB=QQNT.original.dll.?kEmbedderFieldCount@ArrayBufferView@v8@@2HB
    ?kEmbedderFieldCount@Promise@v8@@2HB=QQNT.original.dll.?kEmbedderFieldCount@Promise@v8@@2HB
    ?kFlagCount@RegExp@v8@@2HB=QQNT.original.dll.?kFlagCount@RegExp@v8@@2HB
    ?kHeapBaseShift@?1??AreWithinCage@CagedHeapBase@internal@cppgc@@SA_NPEBX0@Z@4_KB=QQNT.original.dll.?kHeapBaseShift@?1??AreWithinCage@CagedHeapBase@internal@cppgc@@SA_NPEBX0@Z@4_KB
    ?kHiddenName@NameProvider@cppgc@@2QBDB=QQNT.original.dll.?kHiddenName@NameProvider@cppgc@@2QBDB
    ?kInitialWantedLimit@GCInfoTable@internal@cppgc@@2GB=QQNT.original.dll.?kInitialWantedLimit@GCInfoTable@internal@cppgc@@2GB
    ?kInternalFieldCount@ArrayBuffer@v8@@2HB=QQNT.original.dll.?kInternalFieldCount@ArrayBuffer@v8@@2HB
    ?kInternalFieldCount@ArrayBufferView@v8@@2HB=QQNT.original.dll.?kInternalFieldCount@ArrayBufferView@v8@@2HB
    ?kInternalFieldCount@SharedArrayBuffer@v8@@2HB=QQNT.original.dll.?kInternalFieldCount@SharedArrayBuffer@v8@@2HB
    ?kLineOffsetNotFound@Function@v8@@2HB=QQNT.original.dll.?kLineOffsetNotFound@Function@v8@@2HB
    ?kLowerHalfWordMask@CageBaseGlobal@internal@cppgc@@0_KB=QQNT.original.dll.?kLowerHalfWordMask@CageBaseGlobal@internal@cppgc@@0_KB
    ?kMB@ResourceConstraints@v8@@0_KB=QQNT.original.dll.?kMB@ResourceConstraints@v8@@0_KB
    ?kManagedTag@WasmStreaming@v8@@2W4ExternalPointerTag@internal@2@B=QQNT.original.dll.?kManagedTag@WasmStreaming@v8@@2W4ExternalPointerTag@internal@2@B
    ?kMaxByteLength@TypedArray@v8@@2_KB=QQNT.original.dll.?kMaxByteLength@TypedArray@v8@@2_KB
    ?kMaxFramesCount@TickSample@internal@v8@@2IB=QQNT.original.dll.?kMaxFramesCount@TickSample@internal@v8@@2IB
    ?kMaxFramesCountLog2@TickSample@internal@v8@@2IB=QQNT.original.dll.?kMaxFramesCountLog2@TickSample@internal@v8@@2IB
    ?kMaxIndex@GCInfoTable@internal@cppgc@@2GB=QQNT.original.dll.?kMaxIndex@GCInfoTable@internal@cppgc@@2GB
    ?kMaxLength@BigInt64Array@v8@@2_KB=QQNT.original.dll.?kMaxLength@BigInt64Array@v8@@2_KB
    ?kMaxLength@BigUint64Array@v8@@2_KB=QQNT.original.dll.?kMaxLength@BigUint64Array@v8@@2_KB
    ?kMaxLength@Float16Array@v8@@0_KB=QQNT.original.dll.?kMaxLength@Float16Array@v8@@0_KB
    ?kMaxLength@Float32Array@v8@@2_KB=QQNT.original.dll.?kMaxLength@Float32Array@v8@@2_KB
    ?kMaxLength@Float64Array@v8@@2_KB=QQNT.original.dll.?kMaxLength@Float64Array@v8@@2_KB
    ?kMaxLength@Int16Array@v8@@2_KB=QQNT.original.dll.?kMaxLength@Int16Array@v8@@2_KB
    ?kMaxLength@Int32Array@v8@@2_KB=QQNT.original.dll.?kMaxLength@Int32Array@v8@@2_KB
    ?kMaxLength@Int8Array@v8@@2_KB=QQNT.original.dll.?kMaxLength@Int8Array@v8@@2_KB
    ?kMaxLength@String@v8@@2HB=QQNT.original.dll.?kMaxLength@String@v8@@2HB
    ?kMaxLength@Uint16Array@v8@@2_KB=QQNT.original.dll.?kMaxLength@Uint16Array@v8@@2_KB
    ?kMaxLength@Uint32Array@v8@@2_KB=QQNT.original.dll.?kMaxLength@Uint32Array@v8@@2_KB
    ?kMaxLength@Uint8Array@v8@@2_KB=QQNT.original.dll.?kMaxLength@Uint8Array@v8@@2_KB
    ?kMaxLength@Uint8ClampedArray@v8@@2_KB=QQNT.original.dll.?kMaxLength@Uint8ClampedArray@v8@@2_KB
    ?kMinCodePagesBufferSize@Isolate@v8@@2_KB=QQNT.original.dll.?kMinCodePagesBufferSize@Isolate@v8@@2_KB
    ?kMinIndex@GCInfoTable@internal@cppgc@@2GB=QQNT.original.dll.?kMinIndex@GCInfoTable@internal@cppgc@@2GB
    ?kNoColumnInfo@Message@v8@@2HB=QQNT.original.dll.?kNoColumnInfo@Message@v8@@2HB
    ?kNoColumnNumberInfo@AllocationProfile@v8@@2HB=QQNT.original.dll.?kNoColumnNumberInfo@AllocationProfile@v8@@2HB
    ?kNoColumnNumberInfo@CpuProfileNode@v8@@2HB=QQNT.original.dll.?kNoColumnNumberInfo@CpuProfileNode@v8@@2HB
    ?kNoLineNumberInfo@AllocationProfile@v8@@2HB=QQNT.original.dll.?kNoLineNumberInfo@AllocationProfile@v8@@2HB
    ?kNoLineNumberInfo@CpuProfileNode@v8@@2HB=QQNT.original.dll.?kNoLineNumberInfo@CpuProfileNode@v8@@2HB
    ?kNoLineNumberInfo@Message@v8@@2HB=QQNT.original.dll.?kNoLineNumberInfo@Message@v8@@2HB
    ?kNoNameDeducible@NameProvider@cppgc@@2QBDB=QQNT.original.dll.?kNoNameDeducible@NameProvider@cppgc@@2QBDB
    ?kNoSampleLimit@CpuProfilingOptions@v8@@2IB=QQNT.original.dll.?kNoSampleLimit@CpuProfilingOptions@v8@@2IB
    ?kNoScriptId@UnboundScript@v8@@2HB=QQNT.original.dll.?kNoScriptId@UnboundScript@v8@@2HB
    ?kNoScriptIdInfo@Message@v8@@2HB=QQNT.original.dll.?kNoScriptIdInfo@Message@v8@@2HB
    ?kNoWasmFunctionIndexInfo@Message@v8@@2HB=QQNT.original.dll.?kNoWasmFunctionIndexInfo@Message@v8@@2HB
    ?kPersistentHandleNoClassId@HeapProfiler@v8@@2GB=QQNT.original.dll.?kPersistentHandleNoClassId@HeapProfiler@v8@@2GB
    ?kRequiredSize@AgeTable@internal@cppgc@@0_KB=QQNT.original.dll.?kRequiredSize@AgeTable@internal@cppgc@@0_KB
    ?kUnknownObjectId@HeapProfiler@v8@@2IB=QQNT.original.dll.?kUnknownObjectId@HeapProfiler@v8@@2IB
    ?length@FastApiTypedArrayBase@v8@@QEBA_KXZ=QQNT.original.dll.?length@FastApiTypedArrayBase@v8@@QEBA_KXZ
    ?length@StringView@v8_inspector@@QEBA_KXZ=QQNT.original.dll.?length@StringView@v8_inspector@@QEBA_KXZ
    ?length@Utf8Value@String@v8@@QEBAHXZ=QQNT.original.dll.?length@Utf8Value@String@v8@@QEBAHXZ
    ?length@Value@String@v8@@QEBAHXZ=QQNT.original.dll.?length@Value@String@v8@@QEBAHXZ
    ?length@ValueView@String@v8@@QEBAHXZ=QQNT.original.dll.?length@ValueView@String@v8@@QEBAHXZ
    ?major_@Version@internal@v8@@0HA=QQNT.original.dll.?major_@Version@internal@v8@@0HA
    ?malloced_memory@HeapStatistics@v8@@QEAA_KXZ=QQNT.original.dll.?malloced_memory@HeapStatistics@v8@@QEAA_KXZ
    ?maxAsyncCallStackDepthChanged@V8InspectorClient@v8_inspector@@UEAAXH@Z=QQNT.original.dll.?maxAsyncCallStackDepthChanged@V8InspectorClient@v8_inspector@@UEAAXH@Z
    ?max_old_generation_size_in_bytes@ResourceConstraints@v8@@QEBA_KXZ=QQNT.original.dll.?max_old_generation_size_in_bytes@ResourceConstraints@v8@@QEBA_KXZ
    ?max_samples@CpuProfilingOptions@v8@@QEBAIXZ=QQNT.original.dll.?max_samples@CpuProfilingOptions@v8@@QEBAIXZ
    ?max_size@?$vector@UCpuProfileDeoptFrame@v8@@V?$allocator@UCpuProfileDeoptFrame@v8@@@__Cr@std@@@__Cr@std@@QEBA_KXZ=QQNT.original.dll.?max_size@?$vector@UCpuProfileDeoptFrame@v8@@V?$allocator@UCpuProfileDeoptFrame@v8@@@__Cr@std@@@__Cr@std@@QEBA_KXZ
    ?max_size@?$vector@UCpuProfileDeoptInfo@v8@@V?$allocator@UCpuProfileDeoptInfo@v8@@@__Cr@std@@@__Cr@std@@QEBA_KXZ=QQNT.original.dll.?max_size@?$vector@UCpuProfileDeoptInfo@v8@@V?$allocator@UCpuProfileDeoptInfo@v8@@@__Cr@std@@@__Cr@std@@QEBA_KXZ
    ?max_young_generation_size_in_bytes@ResourceConstraints@v8@@QEBA_KXZ=QQNT.original.dll.?max_young_generation_size_in_bytes@ResourceConstraints@v8@@QEBA_KXZ
    ?memoryInfo@V8InspectorClient@v8_inspector@@UEAA?AV?$MaybeLocal@VValue@v8@@@v8@@PEAVIsolate@4@V?$Local@VContext@v8@@@4@@Z=QQNT.original.dll.?memoryInfo@V8InspectorClient@v8_inspector@@UEAA?AV?$MaybeLocal@VValue@v8@@@v8@@PEAVIsolate@4@V?$Local@VContext@v8@@@4@@Z
    ?minor_@Version@internal@v8@@0HA=QQNT.original.dll.?minor_@Version@internal@v8@@0HA
    ?mode@CpuProfilingOptions@v8@@QEBA?AW4CpuProfilingMode@2@XZ=QQNT.original.dll.?mode@CpuProfilingOptions@v8@@QEBA?AW4CpuProfilingMode@2@XZ
    ?muteMetrics@V8InspectorClient@v8_inspector@@UEAAXH@Z=QQNT.original.dll.?muteMetrics@V8InspectorClient@v8_inspector@@UEAAXH@Z
    ?name@Extension@v8@@QEBAPEBDXZ=QQNT.original.dll.?name@Extension@v8@@QEBAPEBDXZ
    ?number_of_detached_contexts@HeapStatistics@v8@@QEAA_KXZ=QQNT.original.dll.?number_of_detached_contexts@HeapStatistics@v8@@QEAA_KXZ
    ?number_of_native_contexts@HeapStatistics@v8@@QEAA_KXZ=QQNT.original.dll.?number_of_native_contexts@HeapStatistics@v8@@QEAA_KXZ
    ?object_count@HeapObjectStatistics@v8@@QEAA_KXZ=QQNT.original.dll.?object_count@HeapObjectStatistics@v8@@QEAA_KXZ
    ?object_size@HeapObjectStatistics@v8@@QEAA_KXZ=QQNT.original.dll.?object_size@HeapObjectStatistics@v8@@QEAA_KXZ
    ?object_sub_type@HeapObjectStatistics@v8@@QEAAPEBDXZ=QQNT.original.dll.?object_sub_type@HeapObjectStatistics@v8@@QEAAPEBDXZ
    ?object_type@HeapObjectStatistics@v8@@QEAAPEBDXZ=QQNT.original.dll.?object_type@HeapObjectStatistics@v8@@QEAAPEBDXZ
    ?pair@V8DebuggerId@v8_inspector@@QEBA?AU?$pair@_J_J@__Cr@std@@XZ=QQNT.original.dll.?pair@V8DebuggerId@v8_inspector@@QEBA?AU?$pair@_J_J@__Cr@std@@XZ
    ?patch_@Version@internal@v8@@0HA=QQNT.original.dll.?patch_@Version@internal@v8@@0HA
    ?peak_malloced_memory@HeapStatistics@v8@@QEAA_KXZ=QQNT.original.dll.?peak_malloced_memory@HeapStatistics@v8@@QEAA_KXZ
    ?physical_space_size@HeapSpaceStatistics@v8@@QEAA_KXZ=QQNT.original.dll.?physical_space_size@HeapSpaceStatistics@v8@@QEAA_KXZ
    ?pop_back@?$vector@UCpuProfileDeoptFrame@v8@@V?$allocator@UCpuProfileDeoptFrame@v8@@@__Cr@std@@@__Cr@std@@QEAAXXZ=QQNT.original.dll.?pop_back@?$vector@UCpuProfileDeoptFrame@v8@@V?$allocator@UCpuProfileDeoptFrame@v8@@@__Cr@std@@@__Cr@std@@QEAAXXZ
    ?pop_back@?$vector@UCpuProfileDeoptInfo@v8@@V?$allocator@UCpuProfileDeoptInfo@v8@@@__Cr@std@@@__Cr@std@@QEAAXXZ=QQNT.original.dll.?pop_back@?$vector@UCpuProfileDeoptInfo@v8@@V?$allocator@UCpuProfileDeoptInfo@v8@@@__Cr@std@@@__Cr@std@@QEAAXXZ
    ?print@TickSample@internal@v8@@QEBAXXZ=QQNT.original.dll.?print@TickSample@internal@v8@@QEBAXXZ
    ?push_back@?$vector@UCpuProfileDeoptFrame@v8@@V?$allocator@UCpuProfileDeoptFrame@v8@@@__Cr@std@@@__Cr@std@@QEAAX$$QEAUCpuProfileDeoptFrame@v8@@@Z=QQNT.original.dll.?push_back@?$vector@UCpuProfileDeoptFrame@v8@@V?$allocator@UCpuProfileDeoptFrame@v8@@@__Cr@std@@@__Cr@std@@QEAAX$$QEAUCpuProfileDeoptFrame@v8@@@Z
    ?push_back@?$vector@UCpuProfileDeoptFrame@v8@@V?$allocator@UCpuProfileDeoptFrame@v8@@@__Cr@std@@@__Cr@std@@QEAAXAEBUCpuProfileDeoptFrame@v8@@@Z=QQNT.original.dll.?push_back@?$vector@UCpuProfileDeoptFrame@v8@@V?$allocator@UCpuProfileDeoptFrame@v8@@@__Cr@std@@@__Cr@std@@QEAAXAEBUCpuProfileDeoptFrame@v8@@@Z
    ?push_back@?$vector@UCpuProfileDeoptInfo@v8@@V?$allocator@UCpuProfileDeoptInfo@v8@@@__Cr@std@@@__Cr@std@@QEAAX$$QEAUCpuProfileDeoptInfo@v8@@@Z=QQNT.original.dll.?push_back@?$vector@UCpuProfileDeoptInfo@v8@@V?$allocator@UCpuProfileDeoptInfo@v8@@@__Cr@std@@@__Cr@std@@QEAAX$$QEAUCpuProfileDeoptInfo@v8@@@Z
    ?push_back@?$vector@UCpuProfileDeoptInfo@v8@@V?$allocator@UCpuProfileDeoptInfo@v8@@@__Cr@std@@@__Cr@std@@QEAAXAEBUCpuProfileDeoptInfo@v8@@@Z=QQNT.original.dll.?push_back@?$vector@UCpuProfileDeoptInfo@v8@@V?$allocator@UCpuProfileDeoptInfo@v8@@@__Cr@std@@@__Cr@std@@QEAAXAEBUCpuProfileDeoptInfo@v8@@@Z
    ?quitMessageLoopOnPause@V8InspectorClient@v8_inspector@@UEAAXXZ=QQNT.original.dll.?quitMessageLoopOnPause@V8InspectorClient@v8_inspector@@UEAAXXZ
    ?raw_filter_context@CpuProfilingOptions@v8@@AEBAPEAXXZ=QQNT.original.dll.?raw_filter_context@CpuProfilingOptions@v8@@AEBAPEAXXZ
    ?rbegin@?$vector@UCpuProfileDeoptFrame@v8@@V?$allocator@UCpuProfileDeoptFrame@v8@@@__Cr@std@@@__Cr@std@@QEAA?AV?$reverse_iterator@V?$__wrap_iter@PEAUCpuProfileDeoptFrame@v8@@@__Cr@std@@@23@XZ=QQNT.original.dll.?rbegin@?$vector@UCpuProfileDeoptFrame@v8@@V?$allocator@UCpuProfileDeoptFrame@v8@@@__Cr@std@@@__Cr@std@@QEAA?AV?$reverse_iterator@V?$__wrap_iter@PEAUCpuProfileDeoptFrame@v8@@@__Cr@std@@@23@XZ
    ?rbegin@?$vector@UCpuProfileDeoptFrame@v8@@V?$allocator@UCpuProfileDeoptFrame@v8@@@__Cr@std@@@__Cr@std@@QEBA?AV?$reverse_iterator@V?$__wrap_iter@PEBUCpuProfileDeoptFrame@v8@@@__Cr@std@@@23@XZ=QQNT.original.dll.?rbegin@?$vector@UCpuProfileDeoptFrame@v8@@V?$allocator@UCpuProfileDeoptFrame@v8@@@__Cr@std@@@__Cr@std@@QEBA?AV?$reverse_iterator@V?$__wrap_iter@PEBUCpuProfileDeoptFrame@v8@@@__Cr@std@@@23@XZ
    ?rbegin@?$vector@UCpuProfileDeoptInfo@v8@@V?$allocator@UCpuProfileDeoptInfo@v8@@@__Cr@std@@@__Cr@std@@QEAA?AV?$reverse_iterator@V?$__wrap_iter@PEAUCpuProfileDeoptInfo@v8@@@__Cr@std@@@23@XZ=QQNT.original.dll.?rbegin@?$vector@UCpuProfileDeoptInfo@v8@@V?$allocator@UCpuProfileDeoptInfo@v8@@@__Cr@std@@@__Cr@std@@QEAA?AV?$reverse_iterator@V?$__wrap_iter@PEAUCpuProfileDeoptInfo@v8@@@__Cr@std@@@23@XZ
    ?rbegin@?$vector@UCpuProfileDeoptInfo@v8@@V?$allocator@UCpuProfileDeoptInfo@v8@@@__Cr@std@@@__Cr@std@@QEBA?AV?$reverse_iterator@V?$__wrap_iter@PEBUCpuProfileDeoptInfo@v8@@@__Cr@std@@@23@XZ=QQNT.original.dll.?rbegin@?$vector@UCpuProfileDeoptInfo@v8@@V?$allocator@UCpuProfileDeoptInfo@v8@@@__Cr@std@@@__Cr@std@@QEBA?AV?$reverse_iterator@V?$__wrap_iter@PEBUCpuProfileDeoptInfo@v8@@@__Cr@std@@@23@XZ
    ?read_only_space_physical_size@SharedMemoryStatistics@v8@@QEAA_KXZ=QQNT.original.dll.?read_only_space_physical_size@SharedMemoryStatistics@v8@@QEAA_KXZ
    ?read_only_space_size@SharedMemoryStatistics@v8@@QEAA_KXZ=QQNT.original.dll.?read_only_space_size@SharedMemoryStatistics@v8@@QEAA_KXZ
    ?read_only_space_used_size@SharedMemoryStatistics@v8@@QEAA_KXZ=QQNT.original.dll.?read_only_space_used_size@SharedMemoryStatistics@v8@@QEAA_KXZ
    ?rend@?$vector@UCpuProfileDeoptFrame@v8@@V?$allocator@UCpuProfileDeoptFrame@v8@@@__Cr@std@@@__Cr@std@@QEAA?AV?$reverse_iterator@V?$__wrap_iter@PEAUCpuProfileDeoptFrame@v8@@@__Cr@std@@@23@XZ=QQNT.original.dll.?rend@?$vector@UCpuProfileDeoptFrame@v8@@V?$allocator@UCpuProfileDeoptFrame@v8@@@__Cr@std@@@__Cr@std@@QEAA?AV?$reverse_iterator@V?$__wrap_iter@PEAUCpuProfileDeoptFrame@v8@@@__Cr@std@@@23@XZ
    ?rend@?$vector@UCpuProfileDeoptFrame@v8@@V?$allocator@UCpuProfileDeoptFrame@v8@@@__Cr@std@@@__Cr@std@@QEBA?AV?$reverse_iterator@V?$__wrap_iter@PEBUCpuProfileDeoptFrame@v8@@@__Cr@std@@@23@XZ=QQNT.original.dll.?rend@?$vector@UCpuProfileDeoptFrame@v8@@V?$allocator@UCpuProfileDeoptFrame@v8@@@__Cr@std@@@__Cr@std@@QEBA?AV?$reverse_iterator@V?$__wrap_iter@PEBUCpuProfileDeoptFrame@v8@@@__Cr@std@@@23@XZ
    ?rend@?$vector@UCpuProfileDeoptInfo@v8@@V?$allocator@UCpuProfileDeoptInfo@v8@@@__Cr@std@@@__Cr@std@@QEAA?AV?$reverse_iterator@V?$__wrap_iter@PEAUCpuProfileDeoptInfo@v8@@@__Cr@std@@@23@XZ=QQNT.original.dll.?rend@?$vector@UCpuProfileDeoptInfo@v8@@V?$allocator@UCpuProfileDeoptInfo@v8@@@__Cr@std@@@__Cr@std@@QEAA?AV?$reverse_iterator@V?$__wrap_iter@PEAUCpuProfileDeoptInfo@v8@@@__Cr@std@@@23@XZ
    ?rend@?$vector@UCpuProfileDeoptInfo@v8@@V?$allocator@UCpuProfileDeoptInfo@v8@@@__Cr@std@@@__Cr@std@@QEBA?AV?$reverse_iterator@V?$__wrap_iter@PEBUCpuProfileDeoptInfo@v8@@@__Cr@std@@@23@XZ=QQNT.original.dll.?rend@?$vector@UCpuProfileDeoptInfo@v8@@V?$allocator@UCpuProfileDeoptInfo@v8@@@__Cr@std@@@__Cr@std@@QEBA?AV?$reverse_iterator@V?$__wrap_iter@PEBUCpuProfileDeoptInfo@v8@@@__Cr@std@@@23@XZ
    ?reserve@?$vector@UCpuProfileDeoptFrame@v8@@V?$allocator@UCpuProfileDeoptFrame@v8@@@__Cr@std@@@__Cr@std@@QEAAX_K@Z=QQNT.original.dll.?reserve@?$vector@UCpuProfileDeoptFrame@v8@@V?$allocator@UCpuProfileDeoptFrame@v8@@@__Cr@std@@@__Cr@std@@QEAAX_K@Z
    ?reserve@?$vector@UCpuProfileDeoptInfo@v8@@V?$allocator@UCpuProfileDeoptInfo@v8@@@__Cr@std@@@__Cr@std@@QEAAX_K@Z=QQNT.original.dll.?reserve@?$vector@UCpuProfileDeoptInfo@v8@@V?$allocator@UCpuProfileDeoptInfo@v8@@@__Cr@std@@@__Cr@std@@QEAAX_K@Z
    ?resize@?$vector@UCpuProfileDeoptFrame@v8@@V?$allocator@UCpuProfileDeoptFrame@v8@@@__Cr@std@@@__Cr@std@@QEAAX_K@Z=QQNT.original.dll.?resize@?$vector@UCpuProfileDeoptFrame@v8@@V?$allocator@UCpuProfileDeoptFrame@v8@@@__Cr@std@@@__Cr@std@@QEAAX_K@Z
    ?resize@?$vector@UCpuProfileDeoptFrame@v8@@V?$allocator@UCpuProfileDeoptFrame@v8@@@__Cr@std@@@__Cr@std@@QEAAX_KAEBUCpuProfileDeoptFrame@v8@@@Z=QQNT.original.dll.?resize@?$vector@UCpuProfileDeoptFrame@v8@@V?$allocator@UCpuProfileDeoptFrame@v8@@@__Cr@std@@@__Cr@std@@QEAAX_KAEBUCpuProfileDeoptFrame@v8@@@Z
    ?resize@?$vector@UCpuProfileDeoptInfo@v8@@V?$allocator@UCpuProfileDeoptInfo@v8@@@__Cr@std@@@__Cr@std@@QEAAX_K@Z=QQNT.original.dll.?resize@?$vector@UCpuProfileDeoptInfo@v8@@V?$allocator@UCpuProfileDeoptInfo@v8@@@__Cr@std@@@__Cr@std@@QEAAX_K@Z
    ?resize@?$vector@UCpuProfileDeoptInfo@v8@@V?$allocator@UCpuProfileDeoptInfo@v8@@@__Cr@std@@@__Cr@std@@QEAAX_KAEBUCpuProfileDeoptInfo@v8@@@Z=QQNT.original.dll.?resize@?$vector@UCpuProfileDeoptInfo@v8@@V?$allocator@UCpuProfileDeoptInfo@v8@@@__Cr@std@@@__Cr@std@@QEAAX_KAEBUCpuProfileDeoptInfo@v8@@@Z
    ?resourceNameToUrl@V8InspectorClient@v8_inspector@@UEAA?AV?$unique_ptr@VStringBuffer@v8_inspector@@U?$default_delete@VStringBuffer@v8_inspector@@@__Cr@std@@@__Cr@std@@AEBVStringView@2@@Z=QQNT.original.dll.?resourceNameToUrl@V8InspectorClient@v8_inspector@@UEAA?AV?$unique_ptr@VStringBuffer@v8_inspector@@U?$default_delete@VStringBuffer@v8_inspector@@@__Cr@std@@@__Cr@std@@AEBVStringView@2@@Z
    ?runIfWaitingForDebugger@V8InspectorClient@v8_inspector@@UEAAXH@Z=QQNT.original.dll.?runIfWaitingForDebugger@V8InspectorClient@v8_inspector@@UEAAXH@Z
    ?runMessageLoopOnInstrumentationPause@V8InspectorClient@v8_inspector@@UEAAXH@Z=QQNT.original.dll.?runMessageLoopOnInstrumentationPause@V8InspectorClient@v8_inspector@@UEAAXH@Z
    ?runMessageLoopOnPause@V8InspectorClient@v8_inspector@@UEAAXH@Z=QQNT.original.dll.?runMessageLoopOnPause@V8InspectorClient@v8_inspector@@UEAAXH@Z
    ?sampling_interval_us@CpuProfilingOptions@v8@@QEBAHXZ=QQNT.original.dll.?sampling_interval_us@CpuProfilingOptions@v8@@QEBAHXZ
    ?set@PropertyDescriptor@v8@@QEBA?AV?$Local@VValue@v8@@@2@XZ=QQNT.original.dll.?set@PropertyDescriptor@v8@@QEBA?AV?$Local@VValue@v8@@@2@XZ
    ?set_auto_enable@Extension@v8@@QEAAX_N@Z=QQNT.original.dll.?set_auto_enable@Extension@v8@@QEAAX_N@Z
    ?set_code_range_size_in_bytes@ResourceConstraints@v8@@QEAAX_K@Z=QQNT.original.dll.?set_code_range_size_in_bytes@ResourceConstraints@v8@@QEAAX_K@Z
    ?set_configurable@PropertyDescriptor@v8@@QEAAX_N@Z=QQNT.original.dll.?set_configurable@PropertyDescriptor@v8@@QEAAX_N@Z
    ?set_enumerable@PropertyDescriptor@v8@@QEAAX_N@Z=QQNT.original.dll.?set_enumerable@PropertyDescriptor@v8@@QEAAX_N@Z
    ?set_initial_old_generation_size_in_bytes@ResourceConstraints@v8@@QEAAX_K@Z=QQNT.original.dll.?set_initial_old_generation_size_in_bytes@ResourceConstraints@v8@@QEAAX_K@Z
    ?set_initial_young_generation_size_in_bytes@ResourceConstraints@v8@@QEAAX_K@Z=QQNT.original.dll.?set_initial_young_generation_size_in_bytes@ResourceConstraints@v8@@QEAAX_K@Z
    ?set_max_old_generation_size_in_bytes@ResourceConstraints@v8@@QEAAX_K@Z=QQNT.original.dll.?set_max_old_generation_size_in_bytes@ResourceConstraints@v8@@QEAAX_K@Z
    ?set_max_young_generation_size_in_bytes@ResourceConstraints@v8@@QEAAX_K@Z=QQNT.original.dll.?set_max_young_generation_size_in_bytes@ResourceConstraints@v8@@QEAAX_K@Z
    ?set_stack_limit@ResourceConstraints@v8@@QEAAXPEAI@Z=QQNT.original.dll.?set_stack_limit@ResourceConstraints@v8@@QEAAXPEAI@Z
    ?shrink_to_fit@?$vector@UCpuProfileDeoptFrame@v8@@V?$allocator@UCpuProfileDeoptFrame@v8@@@__Cr@std@@@__Cr@std@@QEAAXXZ=QQNT.original.dll.?shrink_to_fit@?$vector@UCpuProfileDeoptFrame@v8@@V?$allocator@UCpuProfileDeoptFrame@v8@@@__Cr@std@@@__Cr@std@@QEAAXXZ
    ?shrink_to_fit@?$vector@UCpuProfileDeoptInfo@v8@@V?$allocator@UCpuProfileDeoptInfo@v8@@@__Cr@std@@@__Cr@std@@QEAAXXZ=QQNT.original.dll.?shrink_to_fit@?$vector@UCpuProfileDeoptInfo@v8@@V?$allocator@UCpuProfileDeoptInfo@v8@@@__Cr@std@@@__Cr@std@@QEAAXXZ
    ?size@?$MemorySpan@$$CBD@v8@@QEBA_KXZ=QQNT.original.dll.?size@?$MemorySpan@$$CBD@v8@@QEBA_KXZ
    ?size@?$MemorySpan@$$CBE@v8@@QEBA_KXZ=QQNT.original.dll.?size@?$MemorySpan@$$CBE@v8@@QEBA_KXZ
    ?size@?$MemorySpan@$$CBV?$Local@VContext@v8@@@v8@@@v8@@QEBA_KXZ=QQNT.original.dll.?size@?$MemorySpan@$$CBV?$Local@VContext@v8@@@v8@@@v8@@QEBA_KXZ
    ?size@?$MemorySpan@$$CBV?$Local@VString@v8@@@v8@@@v8@@QEBA_KXZ=QQNT.original.dll.?size@?$MemorySpan@$$CBV?$Local@VString@v8@@@v8@@@v8@@QEBA_KXZ
    ?size@?$MemorySpan@$$CBV?$basic_string_view@DU?$char_traits@D@__Cr@std@@@__Cr@std@@@v8@@QEBA_KXZ=QQNT.original.dll.?size@?$MemorySpan@$$CBV?$basic_string_view@DU?$char_traits@D@__Cr@std@@@__Cr@std@@@v8@@QEBA_KXZ
    ?size@?$MemorySpan@$$CBVCFunction@v8@@@v8@@QEBA_KXZ=QQNT.original.dll.?size@?$MemorySpan@$$CBVCFunction@v8@@@v8@@QEBA_KXZ
    ?size@?$MemorySpan@E@v8@@QEBA_KXZ=QQNT.original.dll.?size@?$MemorySpan@E@v8@@QEBA_KXZ
    ?size@?$MemorySpan@V?$Handle@VMap@internal@v8@@@internal@v8@@@v8@@QEBA_KXZ=QQNT.original.dll.?size@?$MemorySpan@V?$Handle@VMap@internal@v8@@@internal@v8@@@v8@@QEBA_KXZ
    ?size@?$MemorySpan@V?$MaybeLocal@VValue@v8@@@v8@@@v8@@QEBA_KXZ=QQNT.original.dll.?size@?$MemorySpan@V?$MaybeLocal@VValue@v8@@@v8@@@v8@@QEBA_KXZ
    ?size@?$vector@UCpuProfileDeoptFrame@v8@@V?$allocator@UCpuProfileDeoptFrame@v8@@@__Cr@std@@@__Cr@std@@QEBA_KXZ=QQNT.original.dll.?size@?$vector@UCpuProfileDeoptFrame@v8@@V?$allocator@UCpuProfileDeoptFrame@v8@@@__Cr@std@@@__Cr@std@@QEBA_KXZ
    ?size@?$vector@UCpuProfileDeoptInfo@v8@@V?$allocator@UCpuProfileDeoptInfo@v8@@@__Cr@std@@@__Cr@std@@QEBA_KXZ=QQNT.original.dll.?size@?$vector@UCpuProfileDeoptInfo@v8@@V?$allocator@UCpuProfileDeoptInfo@v8@@@__Cr@std@@@__Cr@std@@QEBA_KXZ
    ?size@Binary@protocol@v8_inspector@@QEBA_KXZ=QQNT.original.dll.?size@Binary@protocol@v8_inspector@@QEBA_KXZ
    ?snapshot_creator@CommonEnvironmentSetup@node@@QEAAPEAVSnapshotCreator@v8@@XZ=QQNT.original.dll.?snapshot_creator@CommonEnvironmentSetup@node@@QEAAPEAVSnapshotCreator@v8@@XZ
    ?soname_@Version@internal@v8@@0PEBDEB=QQNT.original.dll.?soname_@Version@internal@v8@@0PEBDEB
    ?source@Extension@v8@@QEBAPEBVExternalOneByteStringResource@String@2@XZ=QQNT.original.dll.?source@Extension@v8@@QEBAPEBVExternalOneByteStringResource@String@2@XZ
    ?source_length@Extension@v8@@QEBA_KXZ=QQNT.original.dll.?source_length@Extension@v8@@QEBA_KXZ
    ?source_url@CompiledWasmModule@v8@@QEBAAEBV?$basic_string@DU?$char_traits@D@__Cr@std@@V?$allocator@D@23@@__Cr@std@@XZ=QQNT.original.dll.?source_url@CompiledWasmModule@v8@@QEBAAEBV?$basic_string@DU?$char_traits@D@__Cr@std@@V?$allocator@D@23@@__Cr@std@@XZ
    ?space_available_size@HeapSpaceStatistics@v8@@QEAA_KXZ=QQNT.original.dll.?space_available_size@HeapSpaceStatistics@v8@@QEAA_KXZ
    ?space_name@HeapSpaceStatistics@v8@@QEAAPEBDXZ=QQNT.original.dll.?space_name@HeapSpaceStatistics@v8@@QEAAPEBDXZ
    ?space_size@HeapSpaceStatistics@v8@@QEAA_KXZ=QQNT.original.dll.?space_size@HeapSpaceStatistics@v8@@QEAA_KXZ
    ?space_used_size@HeapSpaceStatistics@v8@@QEAA_KXZ=QQNT.original.dll.?space_used_size@HeapSpaceStatistics@v8@@QEAA_KXZ
    ?stack_limit@ResourceConstraints@v8@@QEBAPEAIXZ=QQNT.original.dll.?stack_limit@ResourceConstraints@v8@@QEBAPEAIXZ
    ?startRepeatingTimer@V8InspectorClient@v8_inspector@@UEAAXNP6AXPEAX@Z0@Z=QQNT.original.dll.?startRepeatingTimer@V8InspectorClient@v8_inspector@@UEAAXNP6AXPEAX@Z0@Z
    ?swap@?$vector@UCpuProfileDeoptFrame@v8@@V?$allocator@UCpuProfileDeoptFrame@v8@@@__Cr@std@@@__Cr@std@@QEAAXAEAV123@@Z=QQNT.original.dll.?swap@?$vector@UCpuProfileDeoptFrame@v8@@V?$allocator@UCpuProfileDeoptFrame@v8@@@__Cr@std@@@__Cr@std@@QEAAXAEAV123@@Z
    ?swap@?$vector@UCpuProfileDeoptInfo@v8@@V?$allocator@UCpuProfileDeoptInfo@v8@@@__Cr@std@@@__Cr@std@@QEAAXAEAV123@@Z=QQNT.original.dll.?swap@?$vector@UCpuProfileDeoptInfo@v8@@V?$allocator@UCpuProfileDeoptInfo@v8@@@__Cr@std@@@__Cr@std@@QEAAXAEAV123@@Z
    ?toBase64@Binary@protocol@v8_inspector@@QEBA?AVString16@3@XZ=QQNT.original.dll.?toBase64@Binary@protocol@v8_inspector@@QEBA?AVString16@3@XZ
    ?toString@V8DebuggerId@v8_inspector@@QEBA?AV?$unique_ptr@VStringBuffer@v8_inspector@@U?$default_delete@VStringBuffer@v8_inspector@@@__Cr@std@@@__Cr@std@@XZ=QQNT.original.dll.?toString@V8DebuggerId@v8_inspector@@QEBA?AV?$unique_ptr@VStringBuffer@v8_inspector@@U?$default_delete@VStringBuffer@v8_inspector@@@__Cr@std@@@__Cr@std@@XZ
    ?total_allocated_object_size_@ProcessHeapStatistics@cppgc@@0U?$atomic@_K@__Cr@std@@A=QQNT.original.dll.?total_allocated_object_size_@ProcessHeapStatistics@cppgc@@0U?$atomic@_K@__Cr@std@@A
    ?total_allocated_space_@ProcessHeapStatistics@cppgc@@0U?$atomic@_K@__Cr@std@@A=QQNT.original.dll.?total_allocated_space_@ProcessHeapStatistics@cppgc@@0U?$atomic@_K@__Cr@std@@A
    ?total_available_size@HeapStatistics@v8@@QEAA_KXZ=QQNT.original.dll.?total_available_size@HeapStatistics@v8@@QEAA_KXZ
    ?total_global_handles_size@HeapStatistics@v8@@QEAA_KXZ=QQNT.original.dll.?total_global_handles_size@HeapStatistics@v8@@QEAA_KXZ
    ?total_heap_size@HeapStatistics@v8@@QEAA_KXZ=QQNT.original.dll.?total_heap_size@HeapStatistics@v8@@QEAA_KXZ
    ?total_heap_size_executable@HeapStatistics@v8@@QEAA_KXZ=QQNT.original.dll.?total_heap_size_executable@HeapStatistics@v8@@QEAA_KXZ
    ?total_physical_size@HeapStatistics@v8@@QEAA_KXZ=QQNT.original.dll.?total_physical_size@HeapStatistics@v8@@QEAA_KXZ
    ?trusted_data_@ThreadIsolation@internal@v8@@0UTrustedData@123@A=QQNT.original.dll.?trusted_data_@ThreadIsolation@internal@v8@@0UTrustedData@123@A
    ?unmuteMetrics@V8InspectorClient@v8_inspector@@UEAAXH@Z=QQNT.original.dll.?unmuteMetrics@V8InspectorClient@v8_inspector@@UEAAXH@Z
    ?used_global_handles_size@HeapStatistics@v8@@QEAA_KXZ=QQNT.original.dll.?used_global_handles_size@HeapStatistics@v8@@QEAA_KXZ
    ?used_heap_size@HeapStatistics@v8@@QEAA_KXZ=QQNT.original.dll.?used_heap_size@HeapStatistics@v8@@QEAA_KXZ
    ?utf8@String16@v8_inspector@@QEBA?AV?$basic_string@DU?$char_traits@D@__Cr@std@@V?$allocator@D@23@@__Cr@std@@XZ=QQNT.original.dll.?utf8@String16@v8_inspector@@QEBA?AV?$basic_string@DU?$char_traits@D@__Cr@std@@V?$allocator@D@23@@__Cr@std@@XZ
    ?value@PropertyDescriptor@v8@@QEBA?AV?$Local@VValue@v8@@@2@XZ=QQNT.original.dll.?value@PropertyDescriptor@v8@@QEBA?AV?$Local@VValue@v8@@@2@XZ
    ?valueSubtype@V8InspectorClient@v8_inspector@@UEAA?AV?$unique_ptr@VStringBuffer@v8_inspector@@U?$default_delete@VStringBuffer@v8_inspector@@@__Cr@std@@@__Cr@std@@V?$Local@VValue@v8@@@v8@@@Z=QQNT.original.dll.?valueSubtype@V8InspectorClient@v8_inspector@@UEAA?AV?$unique_ptr@VStringBuffer@v8_inspector@@U?$default_delete@VStringBuffer@v8_inspector@@@__Cr@std@@@__Cr@std@@V?$Local@VValue@v8@@@v8@@@Z
    ?version_string_@Version@internal@v8@@0PEBDEB=QQNT.original.dll.?version_string_@Version@internal@v8@@0PEBDEB
    ?writable@PropertyDescriptor@v8@@QEBA_NXZ=QQNT.original.dll.?writable@PropertyDescriptor@v8@@QEBA_NXZ
    ?write_barrier_enabled_@WriteBarrier@internal@cppgc@@0VAtomicEntryFlag@23@A=QQNT.original.dll.?write_barrier_enabled_@WriteBarrier@internal@cppgc@@0VAtomicEntryFlag@23@A
    Cr_z_adler32=QQNT.original.dll.Cr_z_adler32
    Cr_z_adler32_combine=QQNT.original.dll.Cr_z_adler32_combine
    Cr_z_adler32_z=QQNT.original.dll.Cr_z_adler32_z
    Cr_z_compress=QQNT.original.dll.Cr_z_compress
    Cr_z_compress2=QQNT.original.dll.Cr_z_compress2
    Cr_z_compressBound=QQNT.original.dll.Cr_z_compressBound
    Cr_z_crc32=QQNT.original.dll.Cr_z_crc32
    Cr_z_crc32_combine=QQNT.original.dll.Cr_z_crc32_combine
    Cr_z_crc32_combine_gen=QQNT.original.dll.Cr_z_crc32_combine_gen
    Cr_z_crc32_combine_op=QQNT.original.dll.Cr_z_crc32_combine_op
    Cr_z_crc32_z=QQNT.original.dll.Cr_z_crc32_z
    Cr_z_deflate=QQNT.original.dll.Cr_z_deflate
    Cr_z_deflateBound=QQNT.original.dll.Cr_z_deflateBound
    Cr_z_deflateCopy=QQNT.original.dll.Cr_z_deflateCopy
    Cr_z_deflateEnd=QQNT.original.dll.Cr_z_deflateEnd
    Cr_z_deflateGetDictionary=QQNT.original.dll.Cr_z_deflateGetDictionary
    Cr_z_deflateInit2_=QQNT.original.dll.Cr_z_deflateInit2_
    Cr_z_deflateInit_=QQNT.original.dll.Cr_z_deflateInit_
    Cr_z_deflateParams=QQNT.original.dll.Cr_z_deflateParams
    Cr_z_deflatePending=QQNT.original.dll.Cr_z_deflatePending
    Cr_z_deflatePrime=QQNT.original.dll.Cr_z_deflatePrime
    Cr_z_deflateReset=QQNT.original.dll.Cr_z_deflateReset
    Cr_z_deflateResetKeep=QQNT.original.dll.Cr_z_deflateResetKeep
    Cr_z_deflateSetDictionary=QQNT.original.dll.Cr_z_deflateSetDictionary
    Cr_z_deflateSetHeader=QQNT.original.dll.Cr_z_deflateSetHeader
    Cr_z_deflateTune=QQNT.original.dll.Cr_z_deflateTune
    Cr_z_get_crc_table=QQNT.original.dll.Cr_z_get_crc_table
    Cr_z_uncompress=QQNT.original.dll.Cr_z_uncompress
    Cr_z_uncompress2=QQNT.original.dll.Cr_z_uncompress2
    Cr_z_zError=QQNT.original.dll.Cr_z_zError
    Cr_z_zlibCompileFlags=QQNT.original.dll.Cr_z_zlibCompileFlags
    Cr_z_zlibVersion=QQNT.original.dll.Cr_z_zlibVersion
    CrashForExceptionInNonABICompliantCodeRange=QQNT.original.dll.CrashForExceptionInNonABICompliantCodeRange
    ExportedContentMain=QQNT.original.dll.ExportedContentMain
    GetHandleVerifier=QQNT.original.dll.GetHandleVerifier
    IsSandboxedProcess=QQNT.original.dll.IsSandboxedProcess
    NodeContextifyContextMetrics1=QQNT.original.dll.NodeContextifyContextMetrics1
    PerfTrace=QQNT.original.dll.PerfTrace
    QQMain=QQNT.original.dll.QQMain
    napi_acquire_threadsafe_function=QQNT.original.dll.napi_acquire_threadsafe_function
    napi_add_async_cleanup_hook=QQNT.original.dll.napi_add_async_cleanup_hook
    napi_add_env_cleanup_hook=QQNT.original.dll.napi_add_env_cleanup_hook
    napi_add_finalizer=QQNT.original.dll.napi_add_finalizer
    napi_adjust_external_memory=QQNT.original.dll.napi_adjust_external_memory
    napi_async_destroy=QQNT.original.dll.napi_async_destroy
    napi_async_init=QQNT.original.dll.napi_async_init
    napi_call_function=QQNT.original.dll.napi_call_function
    napi_call_threadsafe_function=QQNT.original.dll.napi_call_threadsafe_function
    napi_cancel_async_work=QQNT.original.dll.napi_cancel_async_work
    napi_check_object_type_tag=QQNT.original.dll.napi_check_object_type_tag
    napi_close_callback_scope=QQNT.original.dll.napi_close_callback_scope
    napi_close_escapable_handle_scope=QQNT.original.dll.napi_close_escapable_handle_scope
    napi_close_handle_scope=QQNT.original.dll.napi_close_handle_scope
    napi_coerce_to_bool=QQNT.original.dll.napi_coerce_to_bool
    napi_coerce_to_number=QQNT.original.dll.napi_coerce_to_number
    napi_coerce_to_object=QQNT.original.dll.napi_coerce_to_object
    napi_coerce_to_string=QQNT.original.dll.napi_coerce_to_string
    napi_create_array=QQNT.original.dll.napi_create_array
    napi_create_array_with_length=QQNT.original.dll.napi_create_array_with_length
    napi_create_arraybuffer=QQNT.original.dll.napi_create_arraybuffer
    napi_create_async_work=QQNT.original.dll.napi_create_async_work
    napi_create_bigint_int64=QQNT.original.dll.napi_create_bigint_int64
    napi_create_bigint_uint64=QQNT.original.dll.napi_create_bigint_uint64
    napi_create_bigint_words=QQNT.original.dll.napi_create_bigint_words
    napi_create_buffer=QQNT.original.dll.napi_create_buffer
    napi_create_buffer_copy=QQNT.original.dll.napi_create_buffer_copy
    napi_create_dataview=QQNT.original.dll.napi_create_dataview
    napi_create_date=QQNT.original.dll.napi_create_date
    napi_create_double=QQNT.original.dll.napi_create_double
    napi_create_error=QQNT.original.dll.napi_create_error
    napi_create_external=QQNT.original.dll.napi_create_external
    napi_create_external_arraybuffer=QQNT.original.dll.napi_create_external_arraybuffer
    napi_create_external_buffer=QQNT.original.dll.napi_create_external_buffer
    napi_create_function=QQNT.original.dll.napi_create_function
    napi_create_int32=QQNT.original.dll.napi_create_int32
    napi_create_int64=QQNT.original.dll.napi_create_int64
    napi_create_object=QQNT.original.dll.napi_create_object
    napi_create_promise=QQNT.original.dll.napi_create_promise
    napi_create_range_error=QQNT.original.dll.napi_create_range_error
    napi_create_reference=QQNT.original.dll.napi_create_reference
    napi_create_string_latin1=QQNT.original.dll.napi_create_string_latin1
    napi_create_string_utf16=QQNT.original.dll.napi_create_string_utf16
    napi_create_string_utf8=QQNT.original.dll.napi_create_string_utf8
    napi_create_symbol=QQNT.original.dll.napi_create_symbol
    napi_create_threadsafe_function=QQNT.original.dll.napi_create_threadsafe_function
    napi_create_type_error=QQNT.original.dll.napi_create_type_error
    napi_create_typedarray=QQNT.original.dll.napi_create_typedarray
    napi_create_uint32=QQNT.original.dll.napi_create_uint32
    napi_define_class=QQNT.original.dll.napi_define_class
    napi_define_properties=QQNT.original.dll.napi_define_properties
    napi_delete_async_work=QQNT.original.dll.napi_delete_async_work
    napi_delete_element=QQNT.original.dll.napi_delete_element
    napi_delete_property=QQNT.original.dll.napi_delete_property
    napi_delete_reference=QQNT.original.dll.napi_delete_reference
    napi_detach_arraybuffer=QQNT.original.dll.napi_detach_arraybuffer
    napi_escape_handle=QQNT.original.dll.napi_escape_handle
    napi_fatal_error=QQNT.original.dll.napi_fatal_error
    napi_fatal_exception=QQNT.original.dll.napi_fatal_exception
    napi_get_all_property_names=QQNT.original.dll.napi_get_all_property_names
    napi_get_and_clear_last_exception=QQNT.original.dll.napi_get_and_clear_last_exception
    napi_get_array_length=QQNT.original.dll.napi_get_array_length
    napi_get_arraybuffer_info=QQNT.original.dll.napi_get_arraybuffer_info
    napi_get_boolean=QQNT.original.dll.napi_get_boolean
    napi_get_buffer_info=QQNT.original.dll.napi_get_buffer_info
    napi_get_cb_info=QQNT.original.dll.napi_get_cb_info
    napi_get_dataview_info=QQNT.original.dll.napi_get_dataview_info
    napi_get_date_value=QQNT.original.dll.napi_get_date_value
    napi_get_element=QQNT.original.dll.napi_get_element
    napi_get_global=QQNT.original.dll.napi_get_global
    napi_get_instance_data=QQNT.original.dll.napi_get_instance_data
    napi_get_last_error_info=QQNT.original.dll.napi_get_last_error_info
    napi_get_named_property=QQNT.original.dll.napi_get_named_property
    napi_get_new_target=QQNT.original.dll.napi_get_new_target
    napi_get_node_version=QQNT.original.dll.napi_get_node_version
    napi_get_null=QQNT.original.dll.napi_get_null
    napi_get_property=QQNT.original.dll.napi_get_property
    napi_get_property_names=QQNT.original.dll.napi_get_property_names
    napi_get_prototype=QQNT.original.dll.napi_get_prototype
    napi_get_reference_value=QQNT.original.dll.napi_get_reference_value
    napi_get_threadsafe_function_context=QQNT.original.dll.napi_get_threadsafe_function_context
    napi_get_typedarray_info=QQNT.original.dll.napi_get_typedarray_info
    napi_get_undefined=QQNT.original.dll.napi_get_undefined
    napi_get_uv_event_loop=QQNT.original.dll.napi_get_uv_event_loop
    napi_get_value_bigint_int64=QQNT.original.dll.napi_get_value_bigint_int64
    napi_get_value_bigint_uint64=QQNT.original.dll.napi_get_value_bigint_uint64
    napi_get_value_bigint_words=QQNT.original.dll.napi_get_value_bigint_words
    napi_get_value_bool=QQNT.original.dll.napi_get_value_bool
    napi_get_value_double=QQNT.original.dll.napi_get_value_double
    napi_get_value_external=QQNT.original.dll.napi_get_value_external
    napi_get_value_int32=QQNT.original.dll.napi_get_value_int32
    napi_get_value_int64=QQNT.original.dll.napi_get_value_int64
    napi_get_value_string_latin1=QQNT.original.dll.napi_get_value_string_latin1
    napi_get_value_string_utf16=QQNT.original.dll.napi_get_value_string_utf16
    napi_get_value_string_utf8=QQNT.original.dll.napi_get_value_string_utf8
    napi_get_value_uint32=QQNT.original.dll.napi_get_value_uint32
    napi_get_version=QQNT.original.dll.napi_get_version
    napi_has_element=QQNT.original.dll.napi_has_element
    napi_has_named_property=QQNT.original.dll.napi_has_named_property
    napi_has_own_property=QQNT.original.dll.napi_has_own_property
    napi_has_property=QQNT.original.dll.napi_has_property
    napi_instanceof=QQNT.original.dll.napi_instanceof
    napi_is_array=QQNT.original.dll.napi_is_array
    napi_is_arraybuffer=QQNT.original.dll.napi_is_arraybuffer
    napi_is_buffer=QQNT.original.dll.napi_is_buffer
    napi_is_dataview=QQNT.original.dll.napi_is_dataview
    napi_is_date=QQNT.original.dll.napi_is_date
    napi_is_detached_arraybuffer=QQNT.original.dll.napi_is_detached_arraybuffer
    napi_is_error=QQNT.original.dll.napi_is_error
    napi_is_exception_pending=QQNT.original.dll.napi_is_exception_pending
    napi_is_promise=QQNT.original.dll.napi_is_promise
    napi_is_typedarray=QQNT.original.dll.napi_is_typedarray
    napi_make_callback=QQNT.original.dll.napi_make_callback
    napi_module_register=QQNT.original.dll.napi_module_register
    napi_new_instance=QQNT.original.dll.napi_new_instance
    napi_object_freeze=QQNT.original.dll.napi_object_freeze
    napi_object_seal=QQNT.original.dll.napi_object_seal
    napi_open_callback_scope=QQNT.original.dll.napi_open_callback_scope
    napi_open_escapable_handle_scope=QQNT.original.dll.napi_open_escapable_handle_scope
    napi_open_handle_scope=QQNT.original.dll.napi_open_handle_scope
    napi_queue_async_work=QQNT.original.dll.napi_queue_async_work
    napi_ref_threadsafe_function=QQNT.original.dll.napi_ref_threadsafe_function
    napi_reference_ref=QQNT.original.dll.napi_reference_ref
    napi_reference_unref=QQNT.original.dll.napi_reference_unref
    napi_reject_deferred=QQNT.original.dll.napi_reject_deferred
    napi_release_threadsafe_function=QQNT.original.dll.napi_release_threadsafe_function
    napi_remove_async_cleanup_hook=QQNT.original.dll.napi_remove_async_cleanup_hook
    napi_remove_env_cleanup_hook=QQNT.original.dll.napi_remove_env_cleanup_hook
    napi_remove_wrap=QQNT.original.dll.napi_remove_wrap
    napi_resolve_deferred=QQNT.original.dll.napi_resolve_deferred
    napi_run_script=QQNT.original.dll.napi_run_script
    napi_set_element=QQNT.original.dll.napi_set_element
    napi_set_instance_data=QQNT.original.dll.napi_set_instance_data
    napi_set_named_property=QQNT.original.dll.napi_set_named_property
    napi_set_property=QQNT.original.dll.napi_set_property
    napi_strict_equals=QQNT.original.dll.napi_strict_equals
    napi_throw=QQNT.original.dll.napi_throw
    napi_throw_error=QQNT.original.dll.napi_throw_error
    napi_throw_range_error=QQNT.original.dll.napi_throw_range_error
    napi_throw_type_error=QQNT.original.dll.napi_throw_type_error
    napi_type_tag_object=QQNT.original.dll.napi_type_tag_object
    napi_typeof=QQNT.original.dll.napi_typeof
    napi_unref_threadsafe_function=QQNT.original.dll.napi_unref_threadsafe_function
    napi_unwrap=QQNT.original.dll.napi_unwrap
    napi_wrap=QQNT.original.dll.napi_wrap
    node_api_create_external_string_latin1=QQNT.original.dll.node_api_create_external_string_latin1
    node_api_create_external_string_utf16=QQNT.original.dll.node_api_create_external_string_utf16
    node_api_create_property_key_latin1=QQNT.original.dll.node_api_create_property_key_latin1
    node_api_create_property_key_utf16=QQNT.original.dll.node_api_create_property_key_utf16
    node_api_create_property_key_utf8=QQNT.original.dll.node_api_create_property_key_utf8
    node_api_create_syntax_error=QQNT.original.dll.node_api_create_syntax_error
    node_api_get_module_file_name=QQNT.original.dll.node_api_get_module_file_name
    node_api_post_finalizer=QQNT.original.dll.node_api_post_finalizer
    node_api_symbol_for=QQNT.original.dll.node_api_symbol_for
    node_api_throw_syntax_error=QQNT.original.dll.node_api_throw_syntax_error
    qq_magic_napi_register=My_qq_magic_napi_register
    qq_magic_node_register=QQNT.original.dll.qq_magic_node_register
    sqlite3_dbdata_init=QQNT.original.dll.sqlite3_dbdata_init
    uv_accept=QQNT.original.dll.uv_accept
    uv_async_init=QQNT.original.dll.uv_async_init
    uv_async_send=QQNT.original.dll.uv_async_send
    uv_available_parallelism=QQNT.original.dll.uv_available_parallelism
    uv_backend_fd=QQNT.original.dll.uv_backend_fd
    uv_backend_timeout=QQNT.original.dll.uv_backend_timeout
    uv_buf_init=QQNT.original.dll.uv_buf_init
    uv_cancel=QQNT.original.dll.uv_cancel
    uv_chdir=QQNT.original.dll.uv_chdir
    uv_check_init=QQNT.original.dll.uv_check_init
    uv_check_start=QQNT.original.dll.uv_check_start
    uv_check_stop=QQNT.original.dll.uv_check_stop
    uv_clock_gettime=QQNT.original.dll.uv_clock_gettime
    uv_close=QQNT.original.dll.uv_close
    uv_cond_broadcast=QQNT.original.dll.uv_cond_broadcast
    uv_cond_destroy=QQNT.original.dll.uv_cond_destroy
    uv_cond_init=QQNT.original.dll.uv_cond_init
    uv_cond_signal=QQNT.original.dll.uv_cond_signal
    uv_cond_timedwait=QQNT.original.dll.uv_cond_timedwait
    uv_cond_wait=QQNT.original.dll.uv_cond_wait
    uv_cpu_info=QQNT.original.dll.uv_cpu_info
    uv_cpumask_size=QQNT.original.dll.uv_cpumask_size
    uv_cwd=QQNT.original.dll.uv_cwd
    uv_default_loop=QQNT.original.dll.uv_default_loop
    uv_disable_stdio_inheritance=QQNT.original.dll.uv_disable_stdio_inheritance
    uv_dlclose=QQNT.original.dll.uv_dlclose
    uv_dlerror=QQNT.original.dll.uv_dlerror
    uv_dlopen=QQNT.original.dll.uv_dlopen
    uv_dlsym=QQNT.original.dll.uv_dlsym
    uv_err_name=QQNT.original.dll.uv_err_name
    uv_err_name_r=QQNT.original.dll.uv_err_name_r
    uv_exepath=QQNT.original.dll.uv_exepath
    uv_fileno=QQNT.original.dll.uv_fileno
    uv_free_cpu_info=QQNT.original.dll.uv_free_cpu_info
    uv_free_interface_addresses=QQNT.original.dll.uv_free_interface_addresses
    uv_freeaddrinfo=QQNT.original.dll.uv_freeaddrinfo
    uv_fs_access=QQNT.original.dll.uv_fs_access
    uv_fs_chmod=QQNT.original.dll.uv_fs_chmod
    uv_fs_chown=QQNT.original.dll.uv_fs_chown
    uv_fs_close=QQNT.original.dll.uv_fs_close
    uv_fs_closedir=QQNT.original.dll.uv_fs_closedir
    uv_fs_copyfile=QQNT.original.dll.uv_fs_copyfile
    uv_fs_event_getpath=QQNT.original.dll.uv_fs_event_getpath
    uv_fs_event_init=QQNT.original.dll.uv_fs_event_init
    uv_fs_event_start=QQNT.original.dll.uv_fs_event_start
    uv_fs_event_stop=QQNT.original.dll.uv_fs_event_stop
    uv_fs_fchmod=QQNT.original.dll.uv_fs_fchmod
    uv_fs_fchown=QQNT.original.dll.uv_fs_fchown
    uv_fs_fdatasync=QQNT.original.dll.uv_fs_fdatasync
    uv_fs_fstat=QQNT.original.dll.uv_fs_fstat
    uv_fs_fsync=QQNT.original.dll.uv_fs_fsync
    uv_fs_ftruncate=QQNT.original.dll.uv_fs_ftruncate
    uv_fs_futime=QQNT.original.dll.uv_fs_futime
    uv_fs_get_path=QQNT.original.dll.uv_fs_get_path
    uv_fs_get_ptr=QQNT.original.dll.uv_fs_get_ptr
    uv_fs_get_result=QQNT.original.dll.uv_fs_get_result
    uv_fs_get_statbuf=QQNT.original.dll.uv_fs_get_statbuf
    uv_fs_get_system_error=QQNT.original.dll.uv_fs_get_system_error
    uv_fs_get_type=QQNT.original.dll.uv_fs_get_type
    uv_fs_lchown=QQNT.original.dll.uv_fs_lchown
    uv_fs_link=QQNT.original.dll.uv_fs_link
    uv_fs_lstat=QQNT.original.dll.uv_fs_lstat
    uv_fs_lutime=QQNT.original.dll.uv_fs_lutime
    uv_fs_mkdir=QQNT.original.dll.uv_fs_mkdir
    uv_fs_mkdtemp=QQNT.original.dll.uv_fs_mkdtemp
    uv_fs_mkstemp=QQNT.original.dll.uv_fs_mkstemp
    uv_fs_open=QQNT.original.dll.uv_fs_open
    uv_fs_opendir=QQNT.original.dll.uv_fs_opendir
    uv_fs_poll_getpath=QQNT.original.dll.uv_fs_poll_getpath
    uv_fs_poll_init=QQNT.original.dll.uv_fs_poll_init
    uv_fs_poll_start=QQNT.original.dll.uv_fs_poll_start
    uv_fs_poll_stop=QQNT.original.dll.uv_fs_poll_stop
    uv_fs_read=QQNT.original.dll.uv_fs_read
    uv_fs_readdir=QQNT.original.dll.uv_fs_readdir
    uv_fs_readlink=QQNT.original.dll.uv_fs_readlink
    uv_fs_realpath=QQNT.original.dll.uv_fs_realpath
    uv_fs_rename=QQNT.original.dll.uv_fs_rename
    uv_fs_req_cleanup=QQNT.original.dll.uv_fs_req_cleanup
    uv_fs_rmdir=QQNT.original.dll.uv_fs_rmdir
    uv_fs_scandir=QQNT.original.dll.uv_fs_scandir
    uv_fs_scandir_next=QQNT.original.dll.uv_fs_scandir_next
    uv_fs_sendfile=QQNT.original.dll.uv_fs_sendfile
    uv_fs_stat=QQNT.original.dll.uv_fs_stat
    uv_fs_statfs=QQNT.original.dll.uv_fs_statfs
    uv_fs_symlink=QQNT.original.dll.uv_fs_symlink
    uv_fs_unlink=QQNT.original.dll.uv_fs_unlink
    uv_fs_utime=QQNT.original.dll.uv_fs_utime
    uv_fs_write=QQNT.original.dll.uv_fs_write
    uv_get_available_memory=QQNT.original.dll.uv_get_available_memory
    uv_get_constrained_memory=QQNT.original.dll.uv_get_constrained_memory
    uv_get_free_memory=QQNT.original.dll.uv_get_free_memory
    uv_get_osfhandle=QQNT.original.dll.uv_get_osfhandle
    uv_get_process_title=QQNT.original.dll.uv_get_process_title
    uv_get_total_memory=QQNT.original.dll.uv_get_total_memory
    uv_getaddrinfo=QQNT.original.dll.uv_getaddrinfo
    uv_getnameinfo=QQNT.original.dll.uv_getnameinfo
    uv_getrusage=QQNT.original.dll.uv_getrusage
    uv_gettimeofday=QQNT.original.dll.uv_gettimeofday
    uv_guess_handle=QQNT.original.dll.uv_guess_handle
    uv_handle_get_data=QQNT.original.dll.uv_handle_get_data
    uv_handle_get_loop=QQNT.original.dll.uv_handle_get_loop
    uv_handle_get_type=QQNT.original.dll.uv_handle_get_type
    uv_handle_set_data=QQNT.original.dll.uv_handle_set_data
    uv_handle_size=QQNT.original.dll.uv_handle_size
    uv_handle_type_name=QQNT.original.dll.uv_handle_type_name
    uv_has_ref=QQNT.original.dll.uv_has_ref
    uv_hrtime=QQNT.original.dll.uv_hrtime
    uv_idle_init=QQNT.original.dll.uv_idle_init
    uv_idle_start=QQNT.original.dll.uv_idle_start
    uv_idle_stop=QQNT.original.dll.uv_idle_stop
    uv_if_indextoiid=QQNT.original.dll.uv_if_indextoiid
    uv_if_indextoname=QQNT.original.dll.uv_if_indextoname
    uv_inet_ntop=QQNT.original.dll.uv_inet_ntop
    uv_inet_pton=QQNT.original.dll.uv_inet_pton
    uv_interface_addresses=QQNT.original.dll.uv_interface_addresses
    uv_ip4_addr=QQNT.original.dll.uv_ip4_addr
    uv_ip4_name=QQNT.original.dll.uv_ip4_name
    uv_ip6_addr=QQNT.original.dll.uv_ip6_addr
    uv_ip6_name=QQNT.original.dll.uv_ip6_name
    uv_ip_name=QQNT.original.dll.uv_ip_name
    uv_is_active=QQNT.original.dll.uv_is_active
    uv_is_closing=QQNT.original.dll.uv_is_closing
    uv_is_readable=QQNT.original.dll.uv_is_readable
    uv_is_writable=QQNT.original.dll.uv_is_writable
    uv_key_create=QQNT.original.dll.uv_key_create
    uv_key_delete=QQNT.original.dll.uv_key_delete
    uv_key_get=QQNT.original.dll.uv_key_get
    uv_key_set=QQNT.original.dll.uv_key_set
    uv_kill=QQNT.original.dll.uv_kill
    uv_library_shutdown=QQNT.original.dll.uv_library_shutdown
    uv_listen=QQNT.original.dll.uv_listen
    uv_loadavg=QQNT.original.dll.uv_loadavg
    uv_loop_alive=QQNT.original.dll.uv_loop_alive
    uv_loop_close=QQNT.original.dll.uv_loop_close
    uv_loop_configure=QQNT.original.dll.uv_loop_configure
    uv_loop_delete=QQNT.original.dll.uv_loop_delete
    uv_loop_fork=QQNT.original.dll.uv_loop_fork
    uv_loop_get_data=QQNT.original.dll.uv_loop_get_data
    uv_loop_init=QQNT.original.dll.uv_loop_init
    uv_loop_new=QQNT.original.dll.uv_loop_new
    uv_loop_set_data=QQNT.original.dll.uv_loop_set_data
    uv_loop_size=QQNT.original.dll.uv_loop_size
    uv_metrics_idle_time=QQNT.original.dll.uv_metrics_idle_time
    uv_metrics_info=QQNT.original.dll.uv_metrics_info
    uv_mutex_destroy=QQNT.original.dll.uv_mutex_destroy
    uv_mutex_init=QQNT.original.dll.uv_mutex_init
    uv_mutex_init_recursive=QQNT.original.dll.uv_mutex_init_recursive
    uv_mutex_lock=QQNT.original.dll.uv_mutex_lock
    uv_mutex_trylock=QQNT.original.dll.uv_mutex_trylock
    uv_mutex_unlock=QQNT.original.dll.uv_mutex_unlock
    uv_now=QQNT.original.dll.uv_now
    uv_once=QQNT.original.dll.uv_once
    uv_open_osfhandle=QQNT.original.dll.uv_open_osfhandle
    uv_os_environ=QQNT.original.dll.uv_os_environ
    uv_os_free_environ=QQNT.original.dll.uv_os_free_environ
    uv_os_free_group=QQNT.original.dll.uv_os_free_group
    uv_os_free_passwd=QQNT.original.dll.uv_os_free_passwd
    uv_os_get_group=QQNT.original.dll.uv_os_get_group
    uv_os_get_passwd=QQNT.original.dll.uv_os_get_passwd
    uv_os_get_passwd2=QQNT.original.dll.uv_os_get_passwd2
    uv_os_getenv=QQNT.original.dll.uv_os_getenv
    uv_os_gethostname=QQNT.original.dll.uv_os_gethostname
    uv_os_getpid=QQNT.original.dll.uv_os_getpid
    uv_os_getppid=QQNT.original.dll.uv_os_getppid
    uv_os_getpriority=QQNT.original.dll.uv_os_getpriority
    uv_os_homedir=QQNT.original.dll.uv_os_homedir
    uv_os_setenv=QQNT.original.dll.uv_os_setenv
    uv_os_setpriority=QQNT.original.dll.uv_os_setpriority
    uv_os_tmpdir=QQNT.original.dll.uv_os_tmpdir
    uv_os_uname=QQNT.original.dll.uv_os_uname
    uv_os_unsetenv=QQNT.original.dll.uv_os_unsetenv
    uv_pipe=QQNT.original.dll.uv_pipe
    uv_pipe_bind=QQNT.original.dll.uv_pipe_bind
    uv_pipe_bind2=QQNT.original.dll.uv_pipe_bind2
    uv_pipe_chmod=QQNT.original.dll.uv_pipe_chmod
    uv_pipe_connect=QQNT.original.dll.uv_pipe_connect
    uv_pipe_connect2=QQNT.original.dll.uv_pipe_connect2
    uv_pipe_getpeername=QQNT.original.dll.uv_pipe_getpeername
    uv_pipe_getsockname=QQNT.original.dll.uv_pipe_getsockname
    uv_pipe_init=QQNT.original.dll.uv_pipe_init
    uv_pipe_open=QQNT.original.dll.uv_pipe_open
    uv_pipe_pending_count=QQNT.original.dll.uv_pipe_pending_count
    uv_pipe_pending_instances=QQNT.original.dll.uv_pipe_pending_instances
    uv_pipe_pending_type=QQNT.original.dll.uv_pipe_pending_type
    uv_poll_init=QQNT.original.dll.uv_poll_init
    uv_poll_init_socket=QQNT.original.dll.uv_poll_init_socket
    uv_poll_start=QQNT.original.dll.uv_poll_start
    uv_poll_stop=QQNT.original.dll.uv_poll_stop
    uv_prepare_init=QQNT.original.dll.uv_prepare_init
    uv_prepare_start=QQNT.original.dll.uv_prepare_start
    uv_prepare_stop=QQNT.original.dll.uv_prepare_stop
    uv_print_active_handles=QQNT.original.dll.uv_print_active_handles
    uv_print_all_handles=QQNT.original.dll.uv_print_all_handles
    uv_process_get_pid=QQNT.original.dll.uv_process_get_pid
    uv_process_kill=QQNT.original.dll.uv_process_kill
    uv_queue_work=QQNT.original.dll.uv_queue_work
    uv_random=QQNT.original.dll.uv_random
    uv_read_start=QQNT.original.dll.uv_read_start
    uv_read_stop=QQNT.original.dll.uv_read_stop
    uv_recv_buffer_size=QQNT.original.dll.uv_recv_buffer_size
    uv_ref=QQNT.original.dll.uv_ref
    uv_replace_allocator=QQNT.original.dll.uv_replace_allocator
    uv_req_get_data=QQNT.original.dll.uv_req_get_data
    uv_req_get_type=QQNT.original.dll.uv_req_get_type
    uv_req_set_data=QQNT.original.dll.uv_req_set_data
    uv_req_size=QQNT.original.dll.uv_req_size
    uv_req_type_name=QQNT.original.dll.uv_req_type_name
    uv_resident_set_memory=QQNT.original.dll.uv_resident_set_memory
    uv_run=QQNT.original.dll.uv_run
    uv_rwlock_destroy=QQNT.original.dll.uv_rwlock_destroy
    uv_rwlock_init=QQNT.original.dll.uv_rwlock_init
    uv_rwlock_rdlock=QQNT.original.dll.uv_rwlock_rdlock
    uv_rwlock_rdunlock=QQNT.original.dll.uv_rwlock_rdunlock
    uv_rwlock_tryrdlock=QQNT.original.dll.uv_rwlock_tryrdlock
    uv_rwlock_trywrlock=QQNT.original.dll.uv_rwlock_trywrlock
    uv_rwlock_wrlock=QQNT.original.dll.uv_rwlock_wrlock
    uv_rwlock_wrunlock=QQNT.original.dll.uv_rwlock_wrunlock
    uv_sem_destroy=QQNT.original.dll.uv_sem_destroy
    uv_sem_init=QQNT.original.dll.uv_sem_init
    uv_sem_post=QQNT.original.dll.uv_sem_post
    uv_sem_trywait=QQNT.original.dll.uv_sem_trywait
    uv_sem_wait=QQNT.original.dll.uv_sem_wait
    uv_send_buffer_size=QQNT.original.dll.uv_send_buffer_size
    uv_set_process_title=QQNT.original.dll.uv_set_process_title
    uv_setup_args=QQNT.original.dll.uv_setup_args
    uv_shutdown=QQNT.original.dll.uv_shutdown
    uv_signal_init=QQNT.original.dll.uv_signal_init
    uv_signal_start=QQNT.original.dll.uv_signal_start
    uv_signal_start_oneshot=QQNT.original.dll.uv_signal_start_oneshot
    uv_signal_stop=QQNT.original.dll.uv_signal_stop
    uv_sleep=QQNT.original.dll.uv_sleep
    uv_socketpair=QQNT.original.dll.uv_socketpair
    uv_spawn=QQNT.original.dll.uv_spawn
    uv_stop=QQNT.original.dll.uv_stop
    uv_stream_get_write_queue_size=QQNT.original.dll.uv_stream_get_write_queue_size
    uv_stream_set_blocking=QQNT.original.dll.uv_stream_set_blocking
    uv_strerror=QQNT.original.dll.uv_strerror
    uv_strerror_r=QQNT.original.dll.uv_strerror_r
    uv_tcp_bind=QQNT.original.dll.uv_tcp_bind
    uv_tcp_close_reset=QQNT.original.dll.uv_tcp_close_reset
    uv_tcp_connect=QQNT.original.dll.uv_tcp_connect
    uv_tcp_getpeername=QQNT.original.dll.uv_tcp_getpeername
    uv_tcp_getsockname=QQNT.original.dll.uv_tcp_getsockname
    uv_tcp_init=QQNT.original.dll.uv_tcp_init
    uv_tcp_init_ex=QQNT.original.dll.uv_tcp_init_ex
    uv_tcp_keepalive=QQNT.original.dll.uv_tcp_keepalive
    uv_tcp_nodelay=QQNT.original.dll.uv_tcp_nodelay
    uv_tcp_open=QQNT.original.dll.uv_tcp_open
    uv_tcp_simultaneous_accepts=QQNT.original.dll.uv_tcp_simultaneous_accepts
    uv_thread_create=QQNT.original.dll.uv_thread_create
    uv_thread_create_ex=QQNT.original.dll.uv_thread_create_ex
    uv_thread_equal=QQNT.original.dll.uv_thread_equal
    uv_thread_getaffinity=QQNT.original.dll.uv_thread_getaffinity
    uv_thread_getcpu=QQNT.original.dll.uv_thread_getcpu
    uv_thread_join=QQNT.original.dll.uv_thread_join
    uv_thread_self=QQNT.original.dll.uv_thread_self
    uv_thread_setaffinity=QQNT.original.dll.uv_thread_setaffinity
    uv_timer_again=QQNT.original.dll.uv_timer_again
    uv_timer_get_due_in=QQNT.original.dll.uv_timer_get_due_in
    uv_timer_get_repeat=QQNT.original.dll.uv_timer_get_repeat
    uv_timer_init=QQNT.original.dll.uv_timer_init
    uv_timer_set_repeat=QQNT.original.dll.uv_timer_set_repeat
    uv_timer_start=QQNT.original.dll.uv_timer_start
    uv_timer_stop=QQNT.original.dll.uv_timer_stop
    uv_translate_sys_error=QQNT.original.dll.uv_translate_sys_error
    uv_try_write=QQNT.original.dll.uv_try_write
    uv_try_write2=QQNT.original.dll.uv_try_write2
    uv_tty_get_vterm_state=QQNT.original.dll.uv_tty_get_vterm_state
    uv_tty_get_winsize=QQNT.original.dll.uv_tty_get_winsize
    uv_tty_init=QQNT.original.dll.uv_tty_init
    uv_tty_reset_mode=QQNT.original.dll.uv_tty_reset_mode
    uv_tty_set_mode=QQNT.original.dll.uv_tty_set_mode
    uv_tty_set_vterm_state=QQNT.original.dll.uv_tty_set_vterm_state
    uv_udp_bind=QQNT.original.dll.uv_udp_bind
    uv_udp_connect=QQNT.original.dll.uv_udp_connect
    uv_udp_get_send_queue_count=QQNT.original.dll.uv_udp_get_send_queue_count
    uv_udp_get_send_queue_size=QQNT.original.dll.uv_udp_get_send_queue_size
    uv_udp_getpeername=QQNT.original.dll.uv_udp_getpeername
    uv_udp_getsockname=QQNT.original.dll.uv_udp_getsockname
    uv_udp_init=QQNT.original.dll.uv_udp_init
    uv_udp_init_ex=QQNT.original.dll.uv_udp_init_ex
    uv_udp_open=QQNT.original.dll.uv_udp_open
    uv_udp_recv_start=QQNT.original.dll.uv_udp_recv_start
    uv_udp_recv_stop=QQNT.original.dll.uv_udp_recv_stop
    uv_udp_send=QQNT.original.dll.uv_udp_send
    uv_udp_set_broadcast=QQNT.original.dll.uv_udp_set_broadcast
    uv_udp_set_membership=QQNT.original.dll.uv_udp_set_membership
    uv_udp_set_multicast_interface=QQNT.original.dll.uv_udp_set_multicast_interface
    uv_udp_set_multicast_loop=QQNT.original.dll.uv_udp_set_multicast_loop
    uv_udp_set_multicast_ttl=QQNT.original.dll.uv_udp_set_multicast_ttl
    uv_udp_set_source_membership=QQNT.original.dll.uv_udp_set_source_membership
    uv_udp_set_ttl=QQNT.original.dll.uv_udp_set_ttl
    uv_udp_try_send=QQNT.original.dll.uv_udp_try_send
    uv_udp_using_recvmmsg=QQNT.original.dll.uv_udp_using_recvmmsg
    uv_unref=QQNT.original.dll.uv_unref
    uv_update_time=QQNT.original.dll.uv_update_time
    uv_uptime=QQNT.original.dll.uv_uptime
    uv_version=QQNT.original.dll.uv_version
    uv_version_string=QQNT.original.dll.uv_version_string
    uv_walk=QQNT.original.dll.uv_walk
    uv_write=QQNT.original.dll.uv_write
    uv_write2=QQNT.original.dll.uv_write2